

Microchip MPLAB XC8 Assembler V2.36 build 20220127204148 
                                                                                               Wed Mar 09 17:21:22 2022

Microchip MPLAB XC8 C Compiler v2.36 (Free license) build 20220127204148 Og1 
     1                           	processor	18F4550
     2                           	fnconf	rparam,??,?,0
     3                           	pagewidth 120
     4                           	opt	flic
     5                           	psect	cinit,global,reloc=2,class=CODE,delta=1
     6                           	psect	cstackCOMRAM,global,class=COMRAM,space=1,delta=1,lowdata,noexec
     7                           	psect	text0,global,reloc=2,class=CODE,delta=1
     8                           	psect	text1,global,reloc=2,class=CODE,delta=1
     9                           	psect	text2,global,reloc=2,class=CODE,delta=1
    10                           	psect	text3,global,reloc=2,class=CODE,delta=1,group=1
    11                           	psect	text4,global,reloc=2,class=CODE,delta=1,group=1
    12                           	psect	text5,global,reloc=2,class=CODE,delta=1,group=1
    13                           	psect	text6,global,reloc=2,class=CODE,delta=1,group=1
    14                           	psect	intsave_regs,global,class=BIGRAM,space=1,delta=1,noexec
    15                           	psect	rparam,global,class=COMRAM,space=1,delta=1,noexec
    16                           	psect	idloc,global,abs,ovrld,class=IDLOC,space=5,delta=1,noexec
    17                           	psect	config,global,abs,ovrld,class=CONFIG,space=4,delta=1,noexec
    18  0000                     
    19                           ; Version 2.40
    20                           ; Generated 17/11/2021 GMT
    21                           ; 
    22                           ; Copyright © 2021, Microchip Technology Inc. and its subsidiaries ("Microchip")
    23                           ; All rights reserved.
    24                           ; 
    25                           ; This software is developed by Microchip Technology Inc. and its subsidiaries ("Microch
      +                          ip").
    26                           ; 
    27                           ; Redistribution and use in source and binary forms, with or without modification, are
    28                           ; permitted provided that the following conditions are met:
    29                           ; 
    30                           ;     1. Redistributions of source code must retain the above copyright notice, this lis
      +                          t of
    31                           ;        conditions and the following disclaimer.
    32                           ; 
    33                           ;     2. Redistributions in binary form must reproduce the above copyright notice, this 
      +                          list
    34                           ;        of conditions and the following disclaimer in the documentation and/or other
    35                           ;        materials provided with the distribution. Publication is not required when
    36                           ;        this file is used in an embedded application.
    37                           ; 
    38                           ;     3. Microchip's name may not be used to endorse or promote products derived from th
      +                          is
    39                           ;        software without specific prior written permission.
    40                           ; 
    41                           ; THIS SOFTWARE IS PROVIDED BY MICROCHIP "AS IS" AND ANY EXPRESS OR IMPLIED WARRANTIES,
    42                           ; INCLUDING, BUT NOT LIMITED TO, THE IMPLIED WARRANTIES OF MERCHANTABILITY AND FITNESS F
      +                          OR
    43                           ; PURPOSE ARE DISCLAIMED.  IN NO EVENT SHALL MICROCHIP BE LIABLE FOR ANY DIRECT, INDIREC
      +                          T,
    44                           ; INCIDENTAL, SPECIAL, EXEMPLARY, OR CONSEQUENTIAL DAMAGES (INCLUDING BUT NOT LIMITED TO
    45                           ; PROCUREMENT OF SUBSTITUTE GOODS OR SERVICES; LOSS OF USE, DATA OR PROFITS; OR BUSINESS
    46                           ; INTERRUPTION) HOWSOEVER CAUSED AND ON ANY THEORY OF LIABILITY, WHETHER IN CONTRACT, ST
      +                          RICT
    47                           ; LIABILITY, OR TORT (INCLUDING NEGLIGENCE OR OTHERWISE) ARISING IN ANY WAY OUT OF THE U
      +                          SE OF
    48                           ; THIS SOFTWARE, EVEN IF ADVISED OF THE POSSIBILITY OF SUCH DAMAGE.
    49                           ; 
    50                           ; 
    51                           ; Code-generator required, PIC18F4550 Definitions
    52                           ; 
    53                           ; SFR Addresses
    54  0000                     _RCREG	set	4014
    55  0000                     _TXREG	set	4013
    56  0000                     _LATBbits	set	3978
    57  0000                     _RCIF	set	31989
    58  0000                     _TRISC7	set	31911
    59  0000                     _PORTAbits	set	3968
    60  0000                     _LATB	set	3978
    61  0000                     _TRISAbits	set	3986
    62  0000                     _ADCON1	set	4033
    63  0000                     _RCSTA	set	4011
    64  0000                     _TXSTA	set	4012
    65  0000                     _SPBRG	set	4015
    66  0000                     _TRISB	set	3987
    67  0000                     _TXIF	set	31988
    68  0000                     _TRISC6	set	31910
    69                           
    70                           ; #config settings
    71                           
    72                           	psect	cinit
    73  00739E                     __pcinit:
    74                           	callstack 0
    75  00739E                     start_initialization:
    76                           	callstack 0
    77  00739E                     __initialization:
    78                           	callstack 0
    79  00739E                     end_of_initialization:
    80                           	callstack 0
    81  00739E                     __end_of__initialization:
    82                           	callstack 0
    83  00739E  0100               	movlb	0
    84  0073A0  EF25  F03A         	goto	_main	;jump to C main() function
    85                           
    86                           	psect	cstackCOMRAM
    87  000001                     __pcstackCOMRAM:
    88                           	callstack 0
    89  000001                     ?___fltol:
    90                           	callstack 0
    91  000001                     ?___xxtofl:
    92                           	callstack 0
    93  000001                     ___fltol@f1:
    94                           	callstack 0
    95  000001                     ___xxtofl@val:
    96                           	callstack 0
    97                           
    98                           ; 4 bytes @ 0x0
    99  000001                     	ds	4
   100  000005                     ??___fltol:
   101  000005                     ??___xxtofl:
   102                           
   103                           ; 1 bytes @ 0x4
   104  000005                     	ds	4
   105  000009                     ___fltol@sign1:
   106                           	callstack 0
   107  000009                     ___xxtofl@sign:
   108                           	callstack 0
   109                           
   110                           ; 1 bytes @ 0x8
   111  000009                     	ds	1
   112  00000A                     ___fltol@exp1:
   113                           	callstack 0
   114  00000A                     ___xxtofl@exp:
   115                           	callstack 0
   116                           
   117                           ; 1 bytes @ 0x9
   118  00000A                     	ds	1
   119  00000B                     ___xxtofl@arg:
   120                           	callstack 0
   121                           
   122                           ; 4 bytes @ 0xA
   123  00000B                     	ds	4
   124  00000F                     ?___fldiv:
   125                           	callstack 0
   126  00000F                     ___fldiv@b:
   127                           	callstack 0
   128                           
   129                           ; 4 bytes @ 0xE
   130  00000F                     	ds	4
   131  000013                     ___fldiv@a:
   132                           	callstack 0
   133                           
   134                           ; 4 bytes @ 0x12
   135  000013                     	ds	4
   136  000017                     ??___fldiv:
   137                           
   138                           ; 1 bytes @ 0x16
   139  000017                     	ds	4
   140  00001B                     ___fldiv@rem:
   141                           	callstack 0
   142                           
   143                           ; 4 bytes @ 0x1A
   144  00001B                     	ds	4
   145  00001F                     ___fldiv@sign:
   146                           	callstack 0
   147                           
   148                           ; 1 bytes @ 0x1E
   149  00001F                     	ds	1
   150  000020                     ___fldiv@new_exp:
   151                           	callstack 0
   152                           
   153                           ; 2 bytes @ 0x1F
   154  000020                     	ds	2
   155  000022                     ___fldiv@grs:
   156                           	callstack 0
   157                           
   158                           ; 4 bytes @ 0x21
   159  000022                     	ds	4
   160  000026                     ___fldiv@bexp:
   161                           	callstack 0
   162                           
   163                           ; 1 bytes @ 0x25
   164  000026                     	ds	1
   165  000027                     ___fldiv@aexp:
   166                           	callstack 0
   167                           
   168                           ; 1 bytes @ 0x26
   169  000027                     	ds	1
   170  000028                     ?___fladd:
   171                           	callstack 0
   172  000028                     ___fladd@b:
   173                           	callstack 0
   174                           
   175                           ; 4 bytes @ 0x27
   176  000028                     	ds	4
   177  00002C                     ___fladd@a:
   178                           	callstack 0
   179                           
   180                           ; 4 bytes @ 0x2B
   181  00002C                     	ds	4
   182  000030                     ??___fladd:
   183                           
   184                           ; 1 bytes @ 0x2F
   185  000030                     	ds	4
   186  000034                     ___fladd@signs:
   187                           	callstack 0
   188                           
   189                           ; 1 bytes @ 0x33
   190  000034                     	ds	1
   191  000035                     ___fladd@aexp:
   192                           	callstack 0
   193                           
   194                           ; 1 bytes @ 0x34
   195  000035                     	ds	1
   196  000036                     ___fladd@bexp:
   197                           	callstack 0
   198                           
   199                           ; 1 bytes @ 0x35
   200  000036                     	ds	1
   201  000037                     ___fladd@grs:
   202                           	callstack 0
   203                           
   204                           ; 1 bytes @ 0x36
   205  000037                     	ds	1
   206  000038                     USART_Init@baud_rate:
   207                           	callstack 0
   208                           
   209                           ; 4 bytes @ 0x37
   210  000038                     	ds	4
   211  00003C                     USART_Init@temp:
   212                           	callstack 0
   213                           
   214                           ; 4 bytes @ 0x3B
   215  00003C                     	ds	4
   216  000040                     ??_main:
   217                           
   218                           ; 1 bytes @ 0x3F
   219  000040                     	ds	2
   220  000042                     main@data_in:
   221                           	callstack 0
   222                           
   223                           ; 1 bytes @ 0x41
   224  000042                     	ds	1
   225                           
   226 ;;
   227 ;;Main: autosize = 0, tempsize = 2, incstack = 0, save=0
   228 ;;
   229 ;; *************** function _main *****************
   230 ;; Defined at:
   231 ;;		line 16 in file "PIC.c"
   232 ;; Parameters:    Size  Location     Type
   233 ;;		None
   234 ;; Auto vars:     Size  Location     Type
   235 ;;  data_in         1   65[COMRAM] unsigned char 
   236 ;; Return value:  Size  Location     Type
   237 ;;                  1    wreg      void 
   238 ;; Registers used:
   239 ;;		wreg, status,2, status,0, cstack
   240 ;; Tracked objects:
   241 ;;		On entry : 0/0
   242 ;;		On exit  : 0/0
   243 ;;		Unchanged: 0/0
   244 ;; Data sizes:     COMRAM   BANK0   BANK1   BANK2   BANK3   BANK4   BANK5   BANK6   BANK7
   245 ;;      Params:         0       0       0       0       0       0       0       0       0
   246 ;;      Locals:         1       0       0       0       0       0       0       0       0
   247 ;;      Temps:          2       0       0       0       0       0       0       0       0
   248 ;;      Totals:         3       0       0       0       0       0       0       0       0
   249 ;;Total ram usage:        3 bytes
   250 ;; Hardware stack levels required when called: 2
   251 ;; This function calls:
   252 ;;		_USART_Init
   253 ;;		_USART_ReceiveChar
   254 ;; This function is called by:
   255 ;;		Startup code after reset
   256 ;; This function uses a non-reentrant model
   257 ;;
   258                           
   259                           	psect	text0
   260  00744A                     __ptext0:
   261                           	callstack 0
   262  00744A                     _main:
   263                           	callstack 29
   264  00744A                     
   265                           ;PIC.c: 17:     char data_in;;PIC.c: 18:     ADCON1 = 0x0F;
   266  00744A  0E0F               	movlw	15
   267  00744C  6EC1               	movwf	193,c	;volatile
   268  00744E                     
   269                           ;PIC.c: 19:     USART_Init(9600);
   270  00744E  0E80               	movlw	128
   271  007450  6E38               	movwf	USART_Init@baud_rate^0,c
   272  007452  0E25               	movlw	37
   273  007454  6E39               	movwf	(USART_Init@baud_rate+1)^0,c
   274  007456  0E00               	movlw	0
   275  007458  6E3A               	movwf	(USART_Init@baud_rate+2)^0,c
   276  00745A  0E00               	movlw	0
   277  00745C  6E3B               	movwf	(USART_Init@baud_rate+3)^0,c
   278  00745E  ECDB  F039         	call	_USART_Init	;wreg free
   279  007462                     
   280                           ;PIC.c: 20:     TRISAbits.TRISA0 = 1;
   281  007462  8092               	bsf	146,0,c	;volatile
   282  007464                     
   283                           ;PIC.c: 21:     TRISB = 0;
   284  007464  0E00               	movlw	0
   285  007466  6E93               	movwf	147,c	;volatile
   286  007468                     
   287                           ;PIC.c: 22:     LATB = 1;
   288  007468  0E01               	movlw	1
   289  00746A  6E8A               	movwf	138,c	;volatile
   290  00746C                     l1702:
   291                           
   292                           ;PIC.c: 25:         data_in = USART_ReceiveChar();
   293  00746C  ECD2  F039         	call	_USART_ReceiveChar	;wreg free
   294  007470  6E42               	movwf	main@data_in^0,c
   295                           
   296                           ;PIC.c: 26:         if(data_in == '1'){
   297  007472  0E31               	movlw	49
   298  007474  1842               	xorwf	main@data_in^0,w,c
   299  007476  A4D8               	btfss	status,2,c
   300  007478  EF40  F03A         	goto	u1681
   301  00747C  EF42  F03A         	goto	u1680
   302  007480                     u1681:
   303  007480  EF45  F03A         	goto	l1706
   304  007484                     u1680:
   305  007484                     
   306                           ;PIC.c: 27:             LATBbits.LATB2 = 1;
   307  007484  848A               	bsf	138,2,c	;volatile
   308                           
   309                           ;PIC.c: 28:         }else if(data_in == '2'){
   310  007486  EF36  F03A         	goto	l1702
   311  00748A                     l1706:
   312  00748A  0E32               	movlw	50
   313  00748C  1842               	xorwf	main@data_in^0,w,c
   314  00748E  A4D8               	btfss	status,2,c
   315  007490  EF4C  F03A         	goto	u1691
   316  007494  EF4E  F03A         	goto	u1690
   317  007498                     u1691:
   318  007498  EF51  F03A         	goto	l1710
   319  00749C                     u1690:
   320  00749C                     
   321                           ;PIC.c: 29:             LATBbits.LATB2 = 0;
   322  00749C  948A               	bcf	138,2,c	;volatile
   323                           
   324                           ;PIC.c: 30:         }else if(data_in == '3'){
   325  00749E  EF36  F03A         	goto	l1702
   326  0074A2                     l1710:
   327  0074A2  0E33               	movlw	51
   328  0074A4  1842               	xorwf	main@data_in^0,w,c
   329  0074A6  A4D8               	btfss	status,2,c
   330  0074A8  EF58  F03A         	goto	u1701
   331  0074AC  EF5A  F03A         	goto	u1700
   332  0074B0                     u1701:
   333  0074B0  EF72  F03A         	goto	l25
   334  0074B4                     u1700:
   335  0074B4                     
   336                           ;PIC.c: 31:             if(PORTAbits.RA0 == 1){
   337  0074B4  A080               	btfss	128,0,c	;volatile
   338  0074B6  EF5F  F03A         	goto	u1711
   339  0074BA  EF61  F03A         	goto	u1710
   340  0074BE                     u1711:
   341  0074BE  EF64  F03A         	goto	l29
   342  0074C2                     u1710:
   343  0074C2                     
   344                           ;PIC.c: 32:                 LATBbits.LATB2 = 1;
   345  0074C2  848A               	bsf	138,2,c	;volatile
   346                           
   347                           ;PIC.c: 33:             }else {
   348  0074C4  EF65  F03A         	goto	l1716
   349  0074C8                     l29:
   350                           
   351                           ;PIC.c: 34:                 LATBbits.LATB2 = 0;
   352  0074C8  948A               	bcf	138,2,c	;volatile
   353  0074CA                     l1716:
   354                           
   355                           ;PIC.c: 36:             _delay((unsigned long)((300)*(8000000/4000.0)));
   356  0074CA  0E04               	movlw	4
   357  0074CC  6E41               	movwf	(??_main+1)^0,c
   358  0074CE  0E0C               	movlw	12
   359  0074D0  6E40               	movwf	??_main^0,c
   360  0074D2  0E34               	movlw	52
   361  0074D4                     u1727:
   362  0074D4  2EE8               	decfsz	wreg,f,c
   363  0074D6  D7FE               	bra	u1727
   364  0074D8  2E40               	decfsz	??_main^0,f,c
   365  0074DA  D7FC               	bra	u1727
   366  0074DC  2E41               	decfsz	(??_main+1)^0,f,c
   367  0074DE  D7FA               	bra	u1727
   368  0074E0  EF36  F03A         	goto	l1702
   369  0074E4                     l25:
   370  0074E4  EF36  F03A         	goto	l1702
   371  0074E8  EF00  F000         	goto	start
   372  0074EC                     __end_of_main:
   373                           	callstack 0
   374                           
   375 ;; *************** function _USART_ReceiveChar *****************
   376 ;; Defined at:
   377 ;;		line 27 in file "../../../PIC18F4550 HC-05 Project File_/HC-05_module.X/USART_Source_File.c"
   378 ;; Parameters:    Size  Location     Type
   379 ;;		None
   380 ;; Auto vars:     Size  Location     Type
   381 ;;		None
   382 ;; Return value:  Size  Location     Type
   383 ;;                  1    wreg      unsigned char 
   384 ;; Registers used:
   385 ;;		wreg, status,2
   386 ;; Tracked objects:
   387 ;;		On entry : 0/0
   388 ;;		On exit  : 0/0
   389 ;;		Unchanged: 0/0
   390 ;; Data sizes:     COMRAM   BANK0   BANK1   BANK2   BANK3   BANK4   BANK5   BANK6   BANK7
   391 ;;      Params:         0       0       0       0       0       0       0       0       0
   392 ;;      Locals:         0       0       0       0       0       0       0       0       0
   393 ;;      Temps:          0       0       0       0       0       0       0       0       0
   394 ;;      Totals:         0       0       0       0       0       0       0       0       0
   395 ;;Total ram usage:        0 bytes
   396 ;; Hardware stack levels used: 1
   397 ;; This function calls:
   398 ;;		Nothing
   399 ;; This function is called by:
   400 ;;		_main
   401 ;; This function uses a non-reentrant model
   402 ;;
   403                           
   404                           	psect	text1
   405  0073A4                     __ptext1:
   406                           	callstack 0
   407  0073A4                     _USART_ReceiveChar:
   408                           	callstack 30
   409  0073A4                     l63:
   410  0073A4  AA9E               	btfss	3998,5,c	;volatile
   411  0073A6  EFD7  F039         	goto	u801
   412  0073AA  EFD9  F039         	goto	u800
   413  0073AE                     u801:
   414  0073AE  EFD2  F039         	goto	l63
   415  0073B2                     u800:
   416  0073B2                     
   417                           ;../../../PIC18F4550 HC-05 Project File_/HC-05_module.X/USART_Source_File.c: 31:     ret
      +                          urn(RCREG);
   418  0073B2  50AE               	movf	174,w,c	;volatile
   419  0073B4  0012               	return		;funcret
   420  0073B6                     __end_of_USART_ReceiveChar:
   421                           	callstack 0
   422                           
   423 ;; *************** function _USART_Init *****************
   424 ;; Defined at:
   425 ;;		line 9 in file "../../../PIC18F4550 HC-05 Project File_/HC-05_module.X/USART_Source_File.c"
   426 ;; Parameters:    Size  Location     Type
   427 ;;  baud_rate       4   55[COMRAM] long 
   428 ;; Auto vars:     Size  Location     Type
   429 ;;  temp            4   59[COMRAM] float 
   430 ;; Return value:  Size  Location     Type
   431 ;;                  1    wreg      void 
   432 ;; Registers used:
   433 ;;		wreg, status,2, status,0, cstack
   434 ;; Tracked objects:
   435 ;;		On entry : 0/0
   436 ;;		On exit  : 0/0
   437 ;;		Unchanged: 0/0
   438 ;; Data sizes:     COMRAM   BANK0   BANK1   BANK2   BANK3   BANK4   BANK5   BANK6   BANK7
   439 ;;      Params:         4       0       0       0       0       0       0       0       0
   440 ;;      Locals:         4       0       0       0       0       0       0       0       0
   441 ;;      Temps:          0       0       0       0       0       0       0       0       0
   442 ;;      Totals:         8       0       0       0       0       0       0       0       0
   443 ;;Total ram usage:        8 bytes
   444 ;; Hardware stack levels used: 1
   445 ;; Hardware stack levels required when called: 1
   446 ;; This function calls:
   447 ;;		___fladd
   448 ;;		___fldiv
   449 ;;		___fltol
   450 ;;		___xxtofl
   451 ;; This function is called by:
   452 ;;		_main
   453 ;; This function uses a non-reentrant model
   454 ;;
   455                           
   456                           	psect	text2
   457  0073B6                     __ptext2:
   458                           	callstack 0
   459  0073B6                     _USART_Init:
   460                           	callstack 29
   461  0073B6                     
   462                           ;../../../PIC18F4550 HC-05 Project File_/HC-05_module.X/USART_Source_File.c: 9: void USA
      +                          RT_Init(long baud_rate);../../../PIC18F4550 HC-05 Project File_/HC-05_module.X/USART_Sou
      +                          rce_File.c: 10: {;../../../PIC18F4550 HC-05 Project File_/HC-05_module.X/USART_Source_Fi
      +                          le.c: 11:     float temp;;../../../PIC18F4550 HC-05 Project File_/HC-05_module.X/USART_S
      +                          ource_File.c: 12:     TRISC6=0;
   463  0073B6  9C94               	bcf	3988,6,c	;volatile
   464                           
   465                           ;../../../PIC18F4550 HC-05 Project File_/HC-05_module.X/USART_Source_File.c: 13:     TRI
      +                          SC7=1;
   466  0073B8  8E94               	bsf	3988,7,c	;volatile
   467  0073BA                     
   468                           ;../../../PIC18F4550 HC-05 Project File_/HC-05_module.X/USART_Source_File.c: 14:     tem
      +                          p=(((float)(8000000/64)/(float)baud_rate)-1);
   469  0073BA  C038  F001         	movff	USART_Init@baud_rate,___xxtofl@val
   470  0073BE  C039  F002         	movff	USART_Init@baud_rate+1,___xxtofl@val+1
   471  0073C2  C03A  F003         	movff	USART_Init@baud_rate+2,___xxtofl@val+2
   472  0073C6  C03B  F004         	movff	USART_Init@baud_rate+3,___xxtofl@val+3
   473  0073CA  0E01               	movlw	1
   474  0073CC  ECF9  F03A         	call	___xxtofl
   475  0073D0  C001  F013         	movff	?___xxtofl,___fldiv@a
   476  0073D4  C002  F014         	movff	?___xxtofl+1,___fldiv@a+1
   477  0073D8  C003  F015         	movff	?___xxtofl+2,___fldiv@a+2
   478  0073DC  C004  F016         	movff	?___xxtofl+3,___fldiv@a+3
   479  0073E0  0E00               	movlw	0
   480  0073E2  6E0F               	movwf	___fldiv@b^0,c
   481  0073E4  0E24               	movlw	36
   482  0073E6  6E10               	movwf	(___fldiv@b+1)^0,c
   483  0073E8  0EF4               	movlw	244
   484  0073EA  6E11               	movwf	(___fldiv@b+2)^0,c
   485  0073EC  0E47               	movlw	71
   486  0073EE  6E12               	movwf	(___fldiv@b+3)^0,c
   487  0073F0  ECD3  F03B         	call	___fldiv	;wreg free
   488  0073F4  C00F  F028         	movff	?___fldiv,___fladd@b
   489  0073F8  C010  F029         	movff	?___fldiv+1,___fladd@b+1
   490  0073FC  C011  F02A         	movff	?___fldiv+2,___fladd@b+2
   491  007400  C012  F02B         	movff	?___fldiv+3,___fladd@b+3
   492  007404  0E00               	movlw	0
   493  007406  6E2C               	movwf	___fladd@a^0,c
   494  007408  0E00               	movlw	0
   495  00740A  6E2D               	movwf	(___fladd@a+1)^0,c
   496  00740C  0E80               	movlw	128
   497  00740E  6E2E               	movwf	(___fladd@a+2)^0,c
   498  007410  0EBF               	movlw	191
   499  007412  6E2F               	movwf	(___fladd@a+3)^0,c
   500  007414  ECA0  F03D         	call	___fladd	;wreg free
   501  007418  C028  F03C         	movff	?___fladd,USART_Init@temp
   502  00741C  C029  F03D         	movff	?___fladd+1,USART_Init@temp+1
   503  007420  C02A  F03E         	movff	?___fladd+2,USART_Init@temp+2
   504  007424  C02B  F03F         	movff	?___fladd+3,USART_Init@temp+3
   505                           
   506                           ;../../../PIC18F4550 HC-05 Project File_/HC-05_module.X/USART_Source_File.c: 15:     SPB
      +                          RG=(int)temp;
   507  007428  C03C  F001         	movff	USART_Init@temp,___fltol@f1
   508  00742C  C03D  F002         	movff	USART_Init@temp+1,___fltol@f1+1
   509  007430  C03E  F003         	movff	USART_Init@temp+2,___fltol@f1+2
   510  007434  C03F  F004         	movff	USART_Init@temp+3,___fltol@f1+3
   511  007438  EC76  F03A         	call	___fltol	;wreg free
   512  00743C  5001               	movf	?___fltol^0,w,c
   513  00743E  6EAF               	movwf	175,c	;volatile
   514  007440                     
   515                           ;../../../PIC18F4550 HC-05 Project File_/HC-05_module.X/USART_Source_File.c: 16:     TXS
      +                          TA=0x20;
   516  007440  0E20               	movlw	32
   517  007442  6EAC               	movwf	172,c	;volatile
   518  007444                     
   519                           ;../../../PIC18F4550 HC-05 Project File_/HC-05_module.X/USART_Source_File.c: 17:     RCS
      +                          TA=0x90;
   520  007444  0E90               	movlw	144
   521  007446  6EAB               	movwf	171,c	;volatile
   522  007448  0012               	return		;funcret
   523  00744A                     __end_of_USART_Init:
   524                           	callstack 0
   525                           
   526 ;; *************** function ___xxtofl *****************
   527 ;; Defined at:
   528 ;;		line 10 in file "D:\mplab\pic\sources\c99\common\xxtofl.c"
   529 ;; Parameters:    Size  Location     Type
   530 ;;  sign            1    wreg     unsigned char 
   531 ;;  val             4    0[COMRAM] long 
   532 ;; Auto vars:     Size  Location     Type
   533 ;;  sign            1    8[COMRAM] unsigned char 
   534 ;;  arg             4   10[COMRAM] unsigned long 
   535 ;;  exp             1    9[COMRAM] unsigned char 
   536 ;; Return value:  Size  Location     Type
   537 ;;                  4    0[COMRAM] unsigned char 
   538 ;; Registers used:
   539 ;;		wreg, status,2, status,0
   540 ;; Tracked objects:
   541 ;;		On entry : 0/0
   542 ;;		On exit  : 0/0
   543 ;;		Unchanged: 0/0
   544 ;; Data sizes:     COMRAM   BANK0   BANK1   BANK2   BANK3   BANK4   BANK5   BANK6   BANK7
   545 ;;      Params:         4       0       0       0       0       0       0       0       0
   546 ;;      Locals:         6       0       0       0       0       0       0       0       0
   547 ;;      Temps:          4       0       0       0       0       0       0       0       0
   548 ;;      Totals:        14       0       0       0       0       0       0       0       0
   549 ;;Total ram usage:       14 bytes
   550 ;; Hardware stack levels used: 1
   551 ;; This function calls:
   552 ;;		Nothing
   553 ;; This function is called by:
   554 ;;		_USART_Init
   555 ;; This function uses a non-reentrant model
   556 ;;
   557                           
   558                           	psect	text3
   559  0075F2                     __ptext3:
   560                           	callstack 0
   561  0075F2                     ___xxtofl:
   562                           	callstack 29
   563                           
   564                           ;incstack = 0
   565                           ;___xxtofl@sign stored from wreg
   566  0075F2  6E09               	movwf	___xxtofl@sign^0,c
   567  0075F4  5009               	movf	___xxtofl@sign^0,w,c
   568  0075F6  B4D8               	btfsc	status,2,c
   569  0075F8  EF00  F03B         	goto	u1581
   570  0075FC  EF02  F03B         	goto	u1580
   571  007600                     u1581:
   572  007600  EF24  F03B         	goto	l738
   573  007604                     u1580:
   574  007604  BE04               	btfsc	(___xxtofl@val+3)^0,7,c
   575  007606  EF09  F03B         	goto	u1590
   576  00760A  EF07  F03B         	goto	u1591
   577  00760E                     u1591:
   578  00760E  EF24  F03B         	goto	l738
   579  007612                     u1590:
   580  007612  C001  F005         	movff	___xxtofl@val,??___xxtofl
   581  007616  C002  F006         	movff	___xxtofl@val+1,??___xxtofl+1
   582  00761A  C003  F007         	movff	___xxtofl@val+2,??___xxtofl+2
   583  00761E  C004  F008         	movff	___xxtofl@val+3,??___xxtofl+3
   584  007622  1E05               	comf	??___xxtofl^0,f,c
   585  007624  1E06               	comf	(??___xxtofl+1)^0,f,c
   586  007626  1E07               	comf	(??___xxtofl+2)^0,f,c
   587  007628  1E08               	comf	(??___xxtofl+3)^0,f,c
   588  00762A  2A05               	incf	??___xxtofl^0,f,c
   589  00762C  0E00               	movlw	0
   590  00762E  2206               	addwfc	(??___xxtofl+1)^0,f,c
   591  007630  2207               	addwfc	(??___xxtofl+2)^0,f,c
   592  007632  2208               	addwfc	(??___xxtofl+3)^0,f,c
   593  007634  C005  F00B         	movff	??___xxtofl,___xxtofl@arg
   594  007638  C006  F00C         	movff	??___xxtofl+1,___xxtofl@arg+1
   595  00763C  C007  F00D         	movff	??___xxtofl+2,___xxtofl@arg+2
   596  007640  C008  F00E         	movff	??___xxtofl+3,___xxtofl@arg+3
   597  007644  EF2C  F03B         	goto	l1644
   598  007648                     l738:
   599  007648  C001  F00B         	movff	___xxtofl@val,___xxtofl@arg
   600  00764C  C002  F00C         	movff	___xxtofl@val+1,___xxtofl@arg+1
   601  007650  C003  F00D         	movff	___xxtofl@val+2,___xxtofl@arg+2
   602  007654  C004  F00E         	movff	___xxtofl@val+3,___xxtofl@arg+3
   603  007658                     l1644:
   604  007658  5001               	movf	___xxtofl@val^0,w,c
   605  00765A  1002               	iorwf	(___xxtofl@val+1)^0,w,c
   606  00765C  1003               	iorwf	(___xxtofl@val+2)^0,w,c
   607  00765E  1004               	iorwf	(___xxtofl@val+3)^0,w,c
   608  007660  A4D8               	btfss	status,2,c
   609  007662  EF35  F03B         	goto	u1601
   610  007666  EF37  F03B         	goto	u1600
   611  00766A                     u1601:
   612  00766A  EF41  F03B         	goto	l1650
   613  00766E                     u1600:
   614  00766E  0E00               	movlw	0
   615  007670  6E01               	movwf	?___xxtofl^0,c
   616  007672  0E00               	movlw	0
   617  007674  6E02               	movwf	(?___xxtofl+1)^0,c
   618  007676  0E00               	movlw	0
   619  007678  6E03               	movwf	(?___xxtofl+2)^0,c
   620  00767A  0E00               	movlw	0
   621  00767C  6E04               	movwf	(?___xxtofl+3)^0,c
   622  00767E  EFD2  F03B         	goto	l741
   623  007682                     l1650:
   624  007682  0E96               	movlw	150
   625  007684  6E0A               	movwf	___xxtofl@exp^0,c
   626  007686  EF4B  F03B         	goto	l1654
   627  00768A                     l1652:
   628  00768A  2A0A               	incf	___xxtofl@exp^0,f,c
   629  00768C  90D8               	bcf	status,0,c
   630  00768E  320E               	rrcf	(___xxtofl@arg+3)^0,f,c
   631  007690  320D               	rrcf	(___xxtofl@arg+2)^0,f,c
   632  007692  320C               	rrcf	(___xxtofl@arg+1)^0,f,c
   633  007694  320B               	rrcf	___xxtofl@arg^0,f,c
   634  007696                     l1654:
   635  007696  0E00               	movlw	0
   636  007698  140B               	andwf	___xxtofl@arg^0,w,c
   637  00769A  6E05               	movwf	??___xxtofl^0,c
   638  00769C  0E00               	movlw	0
   639  00769E  140C               	andwf	(___xxtofl@arg+1)^0,w,c
   640  0076A0  6E06               	movwf	(??___xxtofl+1)^0,c
   641  0076A2  0E00               	movlw	0
   642  0076A4  140D               	andwf	(___xxtofl@arg+2)^0,w,c
   643  0076A6  6E07               	movwf	(??___xxtofl+2)^0,c
   644  0076A8  0EFE               	movlw	254
   645  0076AA  140E               	andwf	(___xxtofl@arg+3)^0,w,c
   646  0076AC  6E08               	movwf	(??___xxtofl+3)^0,c
   647  0076AE  5005               	movf	??___xxtofl^0,w,c
   648  0076B0  1006               	iorwf	(??___xxtofl+1)^0,w,c
   649  0076B2  1007               	iorwf	(??___xxtofl+2)^0,w,c
   650  0076B4  1008               	iorwf	(??___xxtofl+3)^0,w,c
   651  0076B6  A4D8               	btfss	status,2,c
   652  0076B8  EF60  F03B         	goto	u1611
   653  0076BC  EF62  F03B         	goto	u1610
   654  0076C0                     u1611:
   655  0076C0  EF45  F03B         	goto	l1652
   656  0076C4                     u1610:
   657  0076C4  EF70  F03B         	goto	l745
   658  0076C8                     l1656:
   659  0076C8  2A0A               	incf	___xxtofl@exp^0,f,c
   660  0076CA  0E01               	movlw	1
   661  0076CC  260B               	addwf	___xxtofl@arg^0,f,c
   662  0076CE  0E00               	movlw	0
   663  0076D0  220C               	addwfc	(___xxtofl@arg+1)^0,f,c
   664  0076D2  220D               	addwfc	(___xxtofl@arg+2)^0,f,c
   665  0076D4  220E               	addwfc	(___xxtofl@arg+3)^0,f,c
   666  0076D6  90D8               	bcf	status,0,c
   667  0076D8  320E               	rrcf	(___xxtofl@arg+3)^0,f,c
   668  0076DA  320D               	rrcf	(___xxtofl@arg+2)^0,f,c
   669  0076DC  320C               	rrcf	(___xxtofl@arg+1)^0,f,c
   670  0076DE  320B               	rrcf	___xxtofl@arg^0,f,c
   671  0076E0                     l745:
   672  0076E0  0E00               	movlw	0
   673  0076E2  140B               	andwf	___xxtofl@arg^0,w,c
   674  0076E4  6E05               	movwf	??___xxtofl^0,c
   675  0076E6  0E00               	movlw	0
   676  0076E8  140C               	andwf	(___xxtofl@arg+1)^0,w,c
   677  0076EA  6E06               	movwf	(??___xxtofl+1)^0,c
   678  0076EC  0E00               	movlw	0
   679  0076EE  140D               	andwf	(___xxtofl@arg+2)^0,w,c
   680  0076F0  6E07               	movwf	(??___xxtofl+2)^0,c
   681  0076F2  0EFF               	movlw	255
   682  0076F4  140E               	andwf	(___xxtofl@arg+3)^0,w,c
   683  0076F6  6E08               	movwf	(??___xxtofl+3)^0,c
   684  0076F8  5005               	movf	??___xxtofl^0,w,c
   685  0076FA  1006               	iorwf	(??___xxtofl+1)^0,w,c
   686  0076FC  1007               	iorwf	(??___xxtofl+2)^0,w,c
   687  0076FE  1008               	iorwf	(??___xxtofl+3)^0,w,c
   688  007700  A4D8               	btfss	status,2,c
   689  007702  EF85  F03B         	goto	u1621
   690  007706  EF87  F03B         	goto	u1620
   691  00770A                     u1621:
   692  00770A  EF64  F03B         	goto	l1656
   693  00770E                     u1620:
   694  00770E  EF8F  F03B         	goto	l1664
   695  007712                     l1662:
   696  007712  060A               	decf	___xxtofl@exp^0,f,c
   697  007714  90D8               	bcf	status,0,c
   698  007716  360B               	rlcf	___xxtofl@arg^0,f,c
   699  007718  360C               	rlcf	(___xxtofl@arg+1)^0,f,c
   700  00771A  360D               	rlcf	(___xxtofl@arg+2)^0,f,c
   701  00771C  360E               	rlcf	(___xxtofl@arg+3)^0,f,c
   702  00771E                     l1664:
   703  00771E  BE0D               	btfsc	(___xxtofl@arg+2)^0,7,c
   704  007720  EF94  F03B         	goto	u1631
   705  007724  EF96  F03B         	goto	u1630
   706  007728                     u1631:
   707  007728  EF9E  F03B         	goto	l752
   708  00772C                     u1630:
   709  00772C  0E02               	movlw	2
   710  00772E  600A               	cpfslt	___xxtofl@exp^0,c
   711  007730  EF9C  F03B         	goto	u1641
   712  007734  EF9E  F03B         	goto	u1640
   713  007738                     u1641:
   714  007738  EF89  F03B         	goto	l1662
   715  00773C                     u1640:
   716  00773C                     l752:
   717  00773C  B00A               	btfsc	___xxtofl@exp^0,0,c
   718  00773E  EFA3  F03B         	goto	u1651
   719  007742  EFA5  F03B         	goto	u1650
   720  007746                     u1651:
   721  007746  EFA6  F03B         	goto	l1670
   722  00774A                     u1650:
   723  00774A  9E0D               	bcf	(___xxtofl@arg+2)^0,7,c
   724  00774C                     l1670:
   725  00774C  90D8               	bcf	status,0,c
   726  00774E  320A               	rrcf	___xxtofl@exp^0,f,c
   727  007750  C00A  F005         	movff	___xxtofl@exp,??___xxtofl
   728  007754  6A06               	clrf	(??___xxtofl+1)^0,c
   729  007756  6A07               	clrf	(??___xxtofl+2)^0,c
   730  007758  6A08               	clrf	(??___xxtofl+3)^0,c
   731  00775A  C005  F008         	movff	??___xxtofl,??___xxtofl+3
   732  00775E  6A07               	clrf	(??___xxtofl+2)^0,c
   733  007760  6A06               	clrf	(??___xxtofl+1)^0,c
   734  007762  6A05               	clrf	??___xxtofl^0,c
   735  007764  5005               	movf	??___xxtofl^0,w,c
   736  007766  120B               	iorwf	___xxtofl@arg^0,f,c
   737  007768  5006               	movf	(??___xxtofl+1)^0,w,c
   738  00776A  120C               	iorwf	(___xxtofl@arg+1)^0,f,c
   739  00776C  5007               	movf	(??___xxtofl+2)^0,w,c
   740  00776E  120D               	iorwf	(___xxtofl@arg+2)^0,f,c
   741  007770  5008               	movf	(??___xxtofl+3)^0,w,c
   742  007772  120E               	iorwf	(___xxtofl@arg+3)^0,f,c
   743  007774  5009               	movf	___xxtofl@sign^0,w,c
   744  007776  B4D8               	btfsc	status,2,c
   745  007778  EFC0  F03B         	goto	u1661
   746  00777C  EFC2  F03B         	goto	u1660
   747  007780                     u1661:
   748  007780  EFCA  F03B         	goto	l1680
   749  007784                     u1660:
   750  007784  BE04               	btfsc	(___xxtofl@val+3)^0,7,c
   751  007786  EFC9  F03B         	goto	u1670
   752  00778A  EFC7  F03B         	goto	u1671
   753  00778E                     u1671:
   754  00778E  EFCA  F03B         	goto	l1680
   755  007792                     u1670:
   756  007792  8E0E               	bsf	(___xxtofl@arg+3)^0,7,c
   757  007794                     l1680:
   758  007794  C00B  F001         	movff	___xxtofl@arg,?___xxtofl
   759  007798  C00C  F002         	movff	___xxtofl@arg+1,?___xxtofl+1
   760  00779C  C00D  F003         	movff	___xxtofl@arg+2,?___xxtofl+2
   761  0077A0  C00E  F004         	movff	___xxtofl@arg+3,?___xxtofl+3
   762  0077A4                     l741:
   763  0077A4  0012               	return		;funcret
   764  0077A6                     __end_of___xxtofl:
   765                           	callstack 0
   766                           
   767 ;; *************** function ___fltol *****************
   768 ;; Defined at:
   769 ;;		line 43 in file "D:\mplab\pic\sources\c99\common\fltol.c"
   770 ;; Parameters:    Size  Location     Type
   771 ;;  f1              4    0[COMRAM] unsigned char 
   772 ;; Auto vars:     Size  Location     Type
   773 ;;  exp1            1    9[COMRAM] unsigned char 
   774 ;;  sign1           1    8[COMRAM] unsigned char 
   775 ;; Return value:  Size  Location     Type
   776 ;;                  4    0[COMRAM] long 
   777 ;; Registers used:
   778 ;;		wreg, status,2, status,0
   779 ;; Tracked objects:
   780 ;;		On entry : 0/0
   781 ;;		On exit  : 0/0
   782 ;;		Unchanged: 0/0
   783 ;; Data sizes:     COMRAM   BANK0   BANK1   BANK2   BANK3   BANK4   BANK5   BANK6   BANK7
   784 ;;      Params:         4       0       0       0       0       0       0       0       0
   785 ;;      Locals:         2       0       0       0       0       0       0       0       0
   786 ;;      Temps:          4       0       0       0       0       0       0       0       0
   787 ;;      Totals:        10       0       0       0       0       0       0       0       0
   788 ;;Total ram usage:       10 bytes
   789 ;; Hardware stack levels used: 1
   790 ;; This function calls:
   791 ;;		Nothing
   792 ;; This function is called by:
   793 ;;		_USART_Init
   794 ;; This function uses a non-reentrant model
   795 ;;
   796                           
   797                           	psect	text4
   798  0074EC                     __ptext4:
   799                           	callstack 0
   800  0074EC                     ___fltol:
   801                           	callstack 29
   802  0074EC  3403               	rlcf	(___fltol@f1+2)^0,w,c
   803  0074EE  3404               	rlcf	(___fltol@f1+3)^0,w,c
   804  0074F0  6E0A               	movwf	___fltol@exp1^0,c
   805  0074F2  500A               	movf	___fltol@exp1^0,w,c
   806  0074F4  A4D8               	btfss	status,2,c
   807  0074F6  EF7F  F03A         	goto	u1511
   808  0074FA  EF81  F03A         	goto	u1510
   809  0074FE                     u1511:
   810  0074FE  EF8B  F03A         	goto	l1600
   811  007502                     u1510:
   812  007502                     l1596:
   813  007502  0E00               	movlw	0
   814  007504  6E01               	movwf	?___fltol^0,c
   815  007506  0E00               	movlw	0
   816  007508  6E02               	movwf	(?___fltol+1)^0,c
   817  00750A  0E00               	movlw	0
   818  00750C  6E03               	movwf	(?___fltol+2)^0,c
   819  00750E  0E00               	movlw	0
   820  007510  6E04               	movwf	(?___fltol+3)^0,c
   821  007512  EFF8  F03A         	goto	l380
   822  007516                     l1600:
   823  007516  C001  F005         	movff	___fltol@f1,??___fltol
   824  00751A  C002  F006         	movff	___fltol@f1+1,??___fltol+1
   825  00751E  C003  F007         	movff	___fltol@f1+2,??___fltol+2
   826  007522  C004  F008         	movff	___fltol@f1+3,??___fltol+3
   827  007526  0E20               	movlw	32
   828  007528  EF9B  F03A         	goto	u1520
   829  00752C                     u1525:
   830  00752C  90D8               	bcf	status,0,c
   831  00752E  3208               	rrcf	(??___fltol+3)^0,f,c
   832  007530  3207               	rrcf	(??___fltol+2)^0,f,c
   833  007532  3206               	rrcf	(??___fltol+1)^0,f,c
   834  007534  3205               	rrcf	??___fltol^0,f,c
   835  007536                     u1520:
   836  007536  2EE8               	decfsz	wreg,f,c
   837  007538  EF96  F03A         	goto	u1525
   838  00753C  5005               	movf	??___fltol^0,w,c
   839  00753E  6E09               	movwf	___fltol@sign1^0,c
   840  007540  8E03               	bsf	(___fltol@f1+2)^0,7,c
   841  007542  0EFF               	movlw	255
   842  007544  1601               	andwf	___fltol@f1^0,f,c
   843  007546  0EFF               	movlw	255
   844  007548  1602               	andwf	(___fltol@f1+1)^0,f,c
   845  00754A  0EFF               	movlw	255
   846  00754C  1603               	andwf	(___fltol@f1+2)^0,f,c
   847  00754E  0E00               	movlw	0
   848  007550  1604               	andwf	(___fltol@f1+3)^0,f,c
   849  007552  0E96               	movlw	150
   850  007554  5E0A               	subwf	___fltol@exp1^0,f,c
   851  007556  BE0A               	btfsc	___fltol@exp1^0,7,c
   852  007558  EFB2  F03A         	goto	u1530
   853  00755C  EFB0  F03A         	goto	u1531
   854  007560                     u1531:
   855  007560  EFC8  F03A         	goto	l1620
   856  007564                     u1530:
   857  007564  500A               	movf	___fltol@exp1^0,w,c
   858  007566  0A80               	xorlw	128
   859  007568  0F97               	addlw	151
   860  00756A  B0D8               	btfsc	status,0,c
   861  00756C  EFBA  F03A         	goto	u1541
   862  007570  EFBC  F03A         	goto	u1540
   863  007574                     u1541:
   864  007574  EFBE  F03A         	goto	l1616
   865  007578                     u1540:
   866  007578  EF81  F03A         	goto	l1596
   867  00757C                     l1616:
   868  00757C  90D8               	bcf	status,0,c
   869  00757E  3204               	rrcf	(___fltol@f1+3)^0,f,c
   870  007580  3203               	rrcf	(___fltol@f1+2)^0,f,c
   871  007582  3202               	rrcf	(___fltol@f1+1)^0,f,c
   872  007584  3201               	rrcf	___fltol@f1^0,f,c
   873  007586  3E0A               	incfsz	___fltol@exp1^0,f,c
   874  007588  EFBE  F03A         	goto	l1616
   875  00758C  EFE0  F03A         	goto	l1630
   876  007590                     l1620:
   877  007590  0E1F               	movlw	31
   878  007592  640A               	cpfsgt	___fltol@exp1^0,c
   879  007594  EFCE  F03A         	goto	u1551
   880  007598  EFD0  F03A         	goto	u1550
   881  00759C                     u1551:
   882  00759C  EFD8  F03A         	goto	l1628
   883  0075A0                     u1550:
   884  0075A0  EF81  F03A         	goto	l1596
   885  0075A4                     l1626:
   886  0075A4  90D8               	bcf	status,0,c
   887  0075A6  3601               	rlcf	___fltol@f1^0,f,c
   888  0075A8  3602               	rlcf	(___fltol@f1+1)^0,f,c
   889  0075AA  3603               	rlcf	(___fltol@f1+2)^0,f,c
   890  0075AC  3604               	rlcf	(___fltol@f1+3)^0,f,c
   891  0075AE  060A               	decf	___fltol@exp1^0,f,c
   892  0075B0                     l1628:
   893  0075B0  500A               	movf	___fltol@exp1^0,w,c
   894  0075B2  A4D8               	btfss	status,2,c
   895  0075B4  EFDE  F03A         	goto	u1561
   896  0075B8  EFE0  F03A         	goto	u1560
   897  0075BC                     u1561:
   898  0075BC  EFD2  F03A         	goto	l1626
   899  0075C0                     u1560:
   900  0075C0                     l1630:
   901  0075C0  5009               	movf	___fltol@sign1^0,w,c
   902  0075C2  B4D8               	btfsc	status,2,c
   903  0075C4  EFE6  F03A         	goto	u1571
   904  0075C8  EFE8  F03A         	goto	u1570
   905  0075CC                     u1571:
   906  0075CC  EFF0  F03A         	goto	l1634
   907  0075D0                     u1570:
   908  0075D0  1E04               	comf	(___fltol@f1+3)^0,f,c
   909  0075D2  1E03               	comf	(___fltol@f1+2)^0,f,c
   910  0075D4  1E02               	comf	(___fltol@f1+1)^0,f,c
   911  0075D6  6C01               	negf	___fltol@f1^0,c
   912  0075D8  0E00               	movlw	0
   913  0075DA  2202               	addwfc	(___fltol@f1+1)^0,f,c
   914  0075DC  2203               	addwfc	(___fltol@f1+2)^0,f,c
   915  0075DE  2204               	addwfc	(___fltol@f1+3)^0,f,c
   916  0075E0                     l1634:
   917  0075E0  C001  F001         	movff	___fltol@f1,?___fltol
   918  0075E4  C002  F002         	movff	___fltol@f1+1,?___fltol+1
   919  0075E8  C003  F003         	movff	___fltol@f1+2,?___fltol+2
   920  0075EC  C004  F004         	movff	___fltol@f1+3,?___fltol+3
   921  0075F0                     l380:
   922  0075F0  0012               	return		;funcret
   923  0075F2                     __end_of___fltol:
   924                           	callstack 0
   925                           
   926 ;; *************** function ___fldiv *****************
   927 ;; Defined at:
   928 ;;		line 11 in file "D:\mplab\pic\sources\c99\common\sprcdiv.c"
   929 ;; Parameters:    Size  Location     Type
   930 ;;  b               4   14[COMRAM] long 
   931 ;;  a               4   18[COMRAM] long 
   932 ;; Auto vars:     Size  Location     Type
   933 ;;  grs             4   33[COMRAM] unsigned long 
   934 ;;  rem             4   26[COMRAM] unsigned long 
   935 ;;  new_exp         2   31[COMRAM] short 
   936 ;;  aexp            1   38[COMRAM] unsigned char 
   937 ;;  bexp            1   37[COMRAM] unsigned char 
   938 ;;  sign            1   30[COMRAM] unsigned char 
   939 ;; Return value:  Size  Location     Type
   940 ;;                  4   14[COMRAM] unsigned char 
   941 ;; Registers used:
   942 ;;		wreg, status,2, status,0
   943 ;; Tracked objects:
   944 ;;		On entry : 0/0
   945 ;;		On exit  : 0/0
   946 ;;		Unchanged: 0/0
   947 ;; Data sizes:     COMRAM   BANK0   BANK1   BANK2   BANK3   BANK4   BANK5   BANK6   BANK7
   948 ;;      Params:         8       0       0       0       0       0       0       0       0
   949 ;;      Locals:        13       0       0       0       0       0       0       0       0
   950 ;;      Temps:          4       0       0       0       0       0       0       0       0
   951 ;;      Totals:        25       0       0       0       0       0       0       0       0
   952 ;;Total ram usage:       25 bytes
   953 ;; Hardware stack levels used: 1
   954 ;; This function calls:
   955 ;;		Nothing
   956 ;; This function is called by:
   957 ;;		_USART_Init
   958 ;; This function uses a non-reentrant model
   959 ;;
   960                           
   961                           	psect	text5
   962  0077A6                     __ptext5:
   963                           	callstack 0
   964  0077A6                     ___fldiv:
   965                           	callstack 29
   966  0077A6  5012               	movf	(___fldiv@b+3)^0,w,c
   967  0077A8  0B80               	andlw	128
   968  0077AA  6E1F               	movwf	___fldiv@sign^0,c
   969  0077AC  5012               	movf	(___fldiv@b+3)^0,w,c
   970  0077AE  2412               	addwf	(___fldiv@b+3)^0,w,c
   971  0077B0  6E26               	movwf	___fldiv@bexp^0,c
   972  0077B2  AE11               	btfss	(___fldiv@b+2)^0,7,c
   973  0077B4  EFDE  F03B         	goto	u1281
   974  0077B8  EFE0  F03B         	goto	u1280
   975  0077BC                     u1281:
   976  0077BC  EFE1  F03B         	goto	l1462
   977  0077C0                     u1280:
   978  0077C0  8026               	bsf	___fldiv@bexp^0,0,c
   979  0077C2                     l1462:
   980  0077C2  5026               	movf	___fldiv@bexp^0,w,c
   981  0077C4  B4D8               	btfsc	status,2,c
   982  0077C6  EFE7  F03B         	goto	u1291
   983  0077CA  EFE9  F03B         	goto	u1290
   984  0077CE                     u1291:
   985  0077CE  EFFE  F03B         	goto	l1472
   986  0077D2                     u1290:
   987  0077D2  2826               	incf	___fldiv@bexp^0,w,c
   988  0077D4  A4D8               	btfss	status,2,c
   989  0077D6  EFEF  F03B         	goto	u1301
   990  0077DA  EFF1  F03B         	goto	u1300
   991  0077DE                     u1301:
   992  0077DE  EFF9  F03B         	goto	l1468
   993  0077E2                     u1300:
   994  0077E2  0E00               	movlw	0
   995  0077E4  6E0F               	movwf	___fldiv@b^0,c
   996  0077E6  0E00               	movlw	0
   997  0077E8  6E10               	movwf	(___fldiv@b+1)^0,c
   998  0077EA  0E00               	movlw	0
   999  0077EC  6E11               	movwf	(___fldiv@b+2)^0,c
  1000  0077EE  0E00               	movlw	0
  1001  0077F0  6E12               	movwf	(___fldiv@b+3)^0,c
  1002  0077F2                     l1468:
  1003  0077F2  8E11               	bsf	(___fldiv@b+2)^0,7,c
  1004  0077F4  0E00               	movlw	0
  1005  0077F6  6E12               	movwf	(___fldiv@b+3)^0,c
  1006  0077F8  EF06  F03C         	goto	l1474
  1007  0077FC                     l1472:
  1008  0077FC  0E00               	movlw	0
  1009  0077FE  6E0F               	movwf	___fldiv@b^0,c
  1010  007800  0E00               	movlw	0
  1011  007802  6E10               	movwf	(___fldiv@b+1)^0,c
  1012  007804  0E00               	movlw	0
  1013  007806  6E11               	movwf	(___fldiv@b+2)^0,c
  1014  007808  0E00               	movlw	0
  1015  00780A  6E12               	movwf	(___fldiv@b+3)^0,c
  1016  00780C                     l1474:
  1017  00780C  5016               	movf	(___fldiv@a+3)^0,w,c
  1018  00780E  0B80               	andlw	128
  1019  007810  1A1F               	xorwf	___fldiv@sign^0,f,c
  1020  007812  5016               	movf	(___fldiv@a+3)^0,w,c
  1021  007814  2416               	addwf	(___fldiv@a+3)^0,w,c
  1022  007816  6E27               	movwf	___fldiv@aexp^0,c
  1023  007818  AE15               	btfss	(___fldiv@a+2)^0,7,c
  1024  00781A  EF11  F03C         	goto	u1311
  1025  00781E  EF13  F03C         	goto	u1310
  1026  007822                     u1311:
  1027  007822  EF14  F03C         	goto	l1482
  1028  007826                     u1310:
  1029  007826  8027               	bsf	___fldiv@aexp^0,0,c
  1030  007828                     l1482:
  1031  007828  5027               	movf	___fldiv@aexp^0,w,c
  1032  00782A  B4D8               	btfsc	status,2,c
  1033  00782C  EF1A  F03C         	goto	u1321
  1034  007830  EF1C  F03C         	goto	u1320
  1035  007834                     u1321:
  1036  007834  EF31  F03C         	goto	l1492
  1037  007838                     u1320:
  1038  007838  2827               	incf	___fldiv@aexp^0,w,c
  1039  00783A  A4D8               	btfss	status,2,c
  1040  00783C  EF22  F03C         	goto	u1331
  1041  007840  EF24  F03C         	goto	u1330
  1042  007844                     u1331:
  1043  007844  EF2C  F03C         	goto	l1488
  1044  007848                     u1330:
  1045  007848  0E00               	movlw	0
  1046  00784A  6E13               	movwf	___fldiv@a^0,c
  1047  00784C  0E00               	movlw	0
  1048  00784E  6E14               	movwf	(___fldiv@a+1)^0,c
  1049  007850  0E00               	movlw	0
  1050  007852  6E15               	movwf	(___fldiv@a+2)^0,c
  1051  007854  0E00               	movlw	0
  1052  007856  6E16               	movwf	(___fldiv@a+3)^0,c
  1053  007858                     l1488:
  1054  007858  8E15               	bsf	(___fldiv@a+2)^0,7,c
  1055  00785A  0E00               	movlw	0
  1056  00785C  6E16               	movwf	(___fldiv@a+3)^0,c
  1057  00785E  EF39  F03C         	goto	l1494
  1058  007862                     l1492:
  1059  007862  0E00               	movlw	0
  1060  007864  6E13               	movwf	___fldiv@a^0,c
  1061  007866  0E00               	movlw	0
  1062  007868  6E14               	movwf	(___fldiv@a+1)^0,c
  1063  00786A  0E00               	movlw	0
  1064  00786C  6E15               	movwf	(___fldiv@a+2)^0,c
  1065  00786E  0E00               	movlw	0
  1066  007870  6E16               	movwf	(___fldiv@a+3)^0,c
  1067  007872                     l1494:
  1068  007872  5013               	movf	___fldiv@a^0,w,c
  1069  007874  1014               	iorwf	(___fldiv@a+1)^0,w,c
  1070  007876  1015               	iorwf	(___fldiv@a+2)^0,w,c
  1071  007878  1016               	iorwf	(___fldiv@a+3)^0,w,c
  1072  00787A  A4D8               	btfss	status,2,c
  1073  00787C  EF42  F03C         	goto	u1341
  1074  007880  EF44  F03C         	goto	u1340
  1075  007884                     u1341:
  1076  007884  EF5C  F03C         	goto	l1506
  1077  007888                     u1340:
  1078  007888  0E00               	movlw	0
  1079  00788A  6E0F               	movwf	___fldiv@b^0,c
  1080  00788C  0E00               	movlw	0
  1081  00788E  6E10               	movwf	(___fldiv@b+1)^0,c
  1082  007890  0E00               	movlw	0
  1083  007892  6E11               	movwf	(___fldiv@b+2)^0,c
  1084  007894  0E00               	movlw	0
  1085  007896  6E12               	movwf	(___fldiv@b+3)^0,c
  1086  007898  0E80               	movlw	128
  1087  00789A  1211               	iorwf	(___fldiv@b+2)^0,f,c
  1088  00789C  0E7F               	movlw	127
  1089  00789E  1212               	iorwf	(___fldiv@b+3)^0,f,c
  1090  0078A0                     l1500:
  1091  0078A0  501F               	movf	___fldiv@sign^0,w,c
  1092  0078A2  1212               	iorwf	(___fldiv@b+3)^0,f,c
  1093  0078A4  C00F  F00F         	movff	___fldiv@b,?___fldiv
  1094  0078A8  C010  F010         	movff	___fldiv@b+1,?___fldiv+1
  1095  0078AC  C011  F011         	movff	___fldiv@b+2,?___fldiv+2
  1096  0078B0  C012  F012         	movff	___fldiv@b+3,?___fldiv+3
  1097  0078B4  EF9F  F03D         	goto	l665
  1098  0078B8                     l1506:
  1099  0078B8  5026               	movf	___fldiv@bexp^0,w,c
  1100  0078BA  A4D8               	btfss	status,2,c
  1101  0078BC  EF62  F03C         	goto	u1351
  1102  0078C0  EF64  F03C         	goto	u1350
  1103  0078C4                     u1351:
  1104  0078C4  EF6E  F03C         	goto	l1514
  1105  0078C8                     u1350:
  1106  0078C8  0E00               	movlw	0
  1107  0078CA  6E0F               	movwf	?___fldiv^0,c
  1108  0078CC  0E00               	movlw	0
  1109  0078CE  6E10               	movwf	(?___fldiv+1)^0,c
  1110  0078D0  0E00               	movlw	0
  1111  0078D2  6E11               	movwf	(?___fldiv+2)^0,c
  1112  0078D4  0E00               	movlw	0
  1113  0078D6  6E12               	movwf	(?___fldiv+3)^0,c
  1114  0078D8  EF9F  F03D         	goto	l665
  1115  0078DC                     l1514:
  1116  0078DC  5027               	movf	___fldiv@aexp^0,w,c
  1117  0078DE  C026  F017         	movff	___fldiv@bexp,??___fldiv
  1118  0078E2  6A18               	clrf	(??___fldiv+1)^0,c
  1119  0078E4  5E17               	subwf	??___fldiv^0,f,c
  1120  0078E6  0E00               	movlw	0
  1121  0078E8  5A18               	subwfb	(??___fldiv+1)^0,f,c
  1122  0078EA  0E7F               	movlw	127
  1123  0078EC  2417               	addwf	??___fldiv^0,w,c
  1124  0078EE  6E20               	movwf	___fldiv@new_exp^0,c
  1125  0078F0  0E00               	movlw	0
  1126  0078F2  2018               	addwfc	(??___fldiv+1)^0,w,c
  1127  0078F4  6E21               	movwf	(___fldiv@new_exp+1)^0,c
  1128  0078F6  C00F  F01B         	movff	___fldiv@b,___fldiv@rem
  1129  0078FA  C010  F01C         	movff	___fldiv@b+1,___fldiv@rem+1
  1130  0078FE  C011  F01D         	movff	___fldiv@b+2,___fldiv@rem+2
  1131  007902  C012  F01E         	movff	___fldiv@b+3,___fldiv@rem+3
  1132  007906  0E00               	movlw	0
  1133  007908  6E0F               	movwf	___fldiv@b^0,c
  1134  00790A  0E00               	movlw	0
  1135  00790C  6E10               	movwf	(___fldiv@b+1)^0,c
  1136  00790E  0E00               	movlw	0
  1137  007910  6E11               	movwf	(___fldiv@b+2)^0,c
  1138  007912  0E00               	movlw	0
  1139  007914  6E12               	movwf	(___fldiv@b+3)^0,c
  1140  007916  0E00               	movlw	0
  1141  007918  6E22               	movwf	___fldiv@grs^0,c
  1142  00791A  0E00               	movlw	0
  1143  00791C  6E23               	movwf	(___fldiv@grs+1)^0,c
  1144  00791E  0E00               	movlw	0
  1145  007920  6E24               	movwf	(___fldiv@grs+2)^0,c
  1146  007922  0E00               	movlw	0
  1147  007924  6E25               	movwf	(___fldiv@grs+3)^0,c
  1148  007926  0E00               	movlw	0
  1149  007928  6E27               	movwf	___fldiv@aexp^0,c
  1150  00792A  EFCF  F03C         	goto	l667
  1151  00792E                     l1524:
  1152  00792E  5027               	movf	___fldiv@aexp^0,w,c
  1153  007930  B4D8               	btfsc	status,2,c
  1154  007932  EF9D  F03C         	goto	u1361
  1155  007936  EF9F  F03C         	goto	u1360
  1156  00793A                     u1361:
  1157  00793A  EFB6  F03C         	goto	l1532
  1158  00793E                     u1360:
  1159  00793E  90D8               	bcf	status,0,c
  1160  007940  361B               	rlcf	___fldiv@rem^0,f,c
  1161  007942  361C               	rlcf	(___fldiv@rem+1)^0,f,c
  1162  007944  361D               	rlcf	(___fldiv@rem+2)^0,f,c
  1163  007946  361E               	rlcf	(___fldiv@rem+3)^0,f,c
  1164  007948  90D8               	bcf	status,0,c
  1165  00794A  360F               	rlcf	___fldiv@b^0,f,c
  1166  00794C  3610               	rlcf	(___fldiv@b+1)^0,f,c
  1167  00794E  3611               	rlcf	(___fldiv@b+2)^0,f,c
  1168  007950  3612               	rlcf	(___fldiv@b+3)^0,f,c
  1169  007952  AE25               	btfss	(___fldiv@grs+3)^0,7,c
  1170  007954  EFAE  F03C         	goto	u1371
  1171  007958  EFB0  F03C         	goto	u1370
  1172  00795C                     u1371:
  1173  00795C  EFB1  F03C         	goto	l670
  1174  007960                     u1370:
  1175  007960  800F               	bsf	___fldiv@b^0,0,c
  1176  007962                     l670:
  1177  007962  90D8               	bcf	status,0,c
  1178  007964  3622               	rlcf	___fldiv@grs^0,f,c
  1179  007966  3623               	rlcf	(___fldiv@grs+1)^0,f,c
  1180  007968  3624               	rlcf	(___fldiv@grs+2)^0,f,c
  1181  00796A  3625               	rlcf	(___fldiv@grs+3)^0,f,c
  1182  00796C                     l1532:
  1183  00796C  5013               	movf	___fldiv@a^0,w,c
  1184  00796E  5C1B               	subwf	___fldiv@rem^0,w,c
  1185  007970  5014               	movf	(___fldiv@a+1)^0,w,c
  1186  007972  581C               	subwfb	(___fldiv@rem+1)^0,w,c
  1187  007974  5015               	movf	(___fldiv@a+2)^0,w,c
  1188  007976  581D               	subwfb	(___fldiv@rem+2)^0,w,c
  1189  007978  5016               	movf	(___fldiv@a+3)^0,w,c
  1190  00797A  581E               	subwfb	(___fldiv@rem+3)^0,w,c
  1191  00797C  A0D8               	btfss	status,0,c
  1192  00797E  EFC3  F03C         	goto	u1381
  1193  007982  EFC5  F03C         	goto	u1380
  1194  007986                     u1381:
  1195  007986  EFCE  F03C         	goto	l1538
  1196  00798A                     u1380:
  1197  00798A  8C25               	bsf	(___fldiv@grs+3)^0,6,c
  1198  00798C  5013               	movf	___fldiv@a^0,w,c
  1199  00798E  5E1B               	subwf	___fldiv@rem^0,f,c
  1200  007990  5014               	movf	(___fldiv@a+1)^0,w,c
  1201  007992  5A1C               	subwfb	(___fldiv@rem+1)^0,f,c
  1202  007994  5015               	movf	(___fldiv@a+2)^0,w,c
  1203  007996  5A1D               	subwfb	(___fldiv@rem+2)^0,f,c
  1204  007998  5016               	movf	(___fldiv@a+3)^0,w,c
  1205  00799A  5A1E               	subwfb	(___fldiv@rem+3)^0,f,c
  1206  00799C                     l1538:
  1207  00799C  2A27               	incf	___fldiv@aexp^0,f,c
  1208  00799E                     l667:
  1209  00799E  0E19               	movlw	25
  1210  0079A0  6427               	cpfsgt	___fldiv@aexp^0,c
  1211  0079A2  EFD5  F03C         	goto	u1391
  1212  0079A6  EFD7  F03C         	goto	u1390
  1213  0079AA                     u1391:
  1214  0079AA  EF97  F03C         	goto	l1524
  1215  0079AE                     u1390:
  1216  0079AE  501B               	movf	___fldiv@rem^0,w,c
  1217  0079B0  101C               	iorwf	(___fldiv@rem+1)^0,w,c
  1218  0079B2  101D               	iorwf	(___fldiv@rem+2)^0,w,c
  1219  0079B4  101E               	iorwf	(___fldiv@rem+3)^0,w,c
  1220  0079B6  B4D8               	btfsc	status,2,c
  1221  0079B8  EFE0  F03C         	goto	u1401
  1222  0079BC  EFE2  F03C         	goto	u1400
  1223  0079C0                     u1401:
  1224  0079C0  EFFA  F03C         	goto	l1550
  1225  0079C4                     u1400:
  1226  0079C4  8022               	bsf	___fldiv@grs^0,0,c
  1227  0079C6  EFFA  F03C         	goto	l1550
  1228  0079CA                     l1544:
  1229  0079CA  90D8               	bcf	status,0,c
  1230  0079CC  360F               	rlcf	___fldiv@b^0,f,c
  1231  0079CE  3610               	rlcf	(___fldiv@b+1)^0,f,c
  1232  0079D0  3611               	rlcf	(___fldiv@b+2)^0,f,c
  1233  0079D2  3612               	rlcf	(___fldiv@b+3)^0,f,c
  1234  0079D4  AE25               	btfss	(___fldiv@grs+3)^0,7,c
  1235  0079D6  EFEF  F03C         	goto	u1411
  1236  0079DA  EFF1  F03C         	goto	u1410
  1237  0079DE                     u1411:
  1238  0079DE  EFF2  F03C         	goto	l676
  1239  0079E2                     u1410:
  1240  0079E2  800F               	bsf	___fldiv@b^0,0,c
  1241  0079E4                     l676:
  1242  0079E4  90D8               	bcf	status,0,c
  1243  0079E6  3622               	rlcf	___fldiv@grs^0,f,c
  1244  0079E8  3623               	rlcf	(___fldiv@grs+1)^0,f,c
  1245  0079EA  3624               	rlcf	(___fldiv@grs+2)^0,f,c
  1246  0079EC  3625               	rlcf	(___fldiv@grs+3)^0,f,c
  1247  0079EE  0620               	decf	___fldiv@new_exp^0,f,c
  1248  0079F0  A0D8               	btfss	status,0,c
  1249  0079F2  0621               	decf	(___fldiv@new_exp+1)^0,f,c
  1250  0079F4                     l1550:
  1251  0079F4  AE11               	btfss	(___fldiv@b+2)^0,7,c
  1252  0079F6  EFFF  F03C         	goto	u1421
  1253  0079FA  EF01  F03D         	goto	u1420
  1254  0079FE                     u1421:
  1255  0079FE  EFE5  F03C         	goto	l1544
  1256  007A02                     u1420:
  1257  007A02  0E00               	movlw	0
  1258  007A04  6E27               	movwf	___fldiv@aexp^0,c
  1259  007A06  AE25               	btfss	(___fldiv@grs+3)^0,7,c
  1260  007A08  EF08  F03D         	goto	u1431
  1261  007A0C  EF0A  F03D         	goto	u1430
  1262  007A10                     u1431:
  1263  007A10  EF2E  F03D         	goto	l678
  1264  007A14                     u1430:
  1265  007A14  0EFF               	movlw	255
  1266  007A16  1422               	andwf	___fldiv@grs^0,w,c
  1267  007A18  6E17               	movwf	??___fldiv^0,c
  1268  007A1A  0EFF               	movlw	255
  1269  007A1C  1423               	andwf	(___fldiv@grs+1)^0,w,c
  1270  007A1E  6E18               	movwf	(??___fldiv+1)^0,c
  1271  007A20  0EFF               	movlw	255
  1272  007A22  1424               	andwf	(___fldiv@grs+2)^0,w,c
  1273  007A24  6E19               	movwf	(??___fldiv+2)^0,c
  1274  007A26  0E7F               	movlw	127
  1275  007A28  1425               	andwf	(___fldiv@grs+3)^0,w,c
  1276  007A2A  6E1A               	movwf	(??___fldiv+3)^0,c
  1277  007A2C  5017               	movf	??___fldiv^0,w,c
  1278  007A2E  1018               	iorwf	(??___fldiv+1)^0,w,c
  1279  007A30  1019               	iorwf	(??___fldiv+2)^0,w,c
  1280  007A32  101A               	iorwf	(??___fldiv+3)^0,w,c
  1281  007A34  B4D8               	btfsc	status,2,c
  1282  007A36  EF1F  F03D         	goto	u1441
  1283  007A3A  EF21  F03D         	goto	u1440
  1284  007A3E                     u1441:
  1285  007A3E  EF25  F03D         	goto	l679
  1286  007A42                     u1440:
  1287  007A42                     l1558:
  1288  007A42  0E01               	movlw	1
  1289  007A44  6E27               	movwf	___fldiv@aexp^0,c
  1290  007A46  EF2E  F03D         	goto	l678
  1291  007A4A                     l679:
  1292  007A4A  A00F               	btfss	___fldiv@b^0,0,c
  1293  007A4C  EF2A  F03D         	goto	u1451
  1294  007A50  EF2C  F03D         	goto	u1450
  1295  007A54                     u1451:
  1296  007A54  EF2E  F03D         	goto	l678
  1297  007A58                     u1450:
  1298  007A58  EF21  F03D         	goto	l1558
  1299  007A5C                     l678:
  1300  007A5C  5027               	movf	___fldiv@aexp^0,w,c
  1301  007A5E  B4D8               	btfsc	status,2,c
  1302  007A60  EF34  F03D         	goto	u1461
  1303  007A64  EF36  F03D         	goto	u1460
  1304  007A68                     u1461:
  1305  007A68  EF5A  F03D         	goto	l1570
  1306  007A6C                     u1460:
  1307  007A6C  0E01               	movlw	1
  1308  007A6E  260F               	addwf	___fldiv@b^0,f,c
  1309  007A70  0E00               	movlw	0
  1310  007A72  2210               	addwfc	(___fldiv@b+1)^0,f,c
  1311  007A74  2211               	addwfc	(___fldiv@b+2)^0,f,c
  1312  007A76  2212               	addwfc	(___fldiv@b+3)^0,f,c
  1313  007A78  A012               	btfss	(___fldiv@b+3)^0,0,c
  1314  007A7A  EF41  F03D         	goto	u1471
  1315  007A7E  EF43  F03D         	goto	u1470
  1316  007A82                     u1471:
  1317  007A82  EF5A  F03D         	goto	l1570
  1318  007A86                     u1470:
  1319  007A86  C00F  F017         	movff	___fldiv@b,??___fldiv
  1320  007A8A  C010  F018         	movff	___fldiv@b+1,??___fldiv+1
  1321  007A8E  C011  F019         	movff	___fldiv@b+2,??___fldiv+2
  1322  007A92  C012  F01A         	movff	___fldiv@b+3,??___fldiv+3
  1323  007A96  341A               	rlcf	(??___fldiv+3)^0,w,c
  1324  007A98  321A               	rrcf	(??___fldiv+3)^0,f,c
  1325  007A9A  3219               	rrcf	(??___fldiv+2)^0,f,c
  1326  007A9C  3218               	rrcf	(??___fldiv+1)^0,f,c
  1327  007A9E  3217               	rrcf	??___fldiv^0,f,c
  1328  007AA0  C017  F00F         	movff	??___fldiv,___fldiv@b
  1329  007AA4  C018  F010         	movff	??___fldiv+1,___fldiv@b+1
  1330  007AA8  C019  F011         	movff	??___fldiv+2,___fldiv@b+2
  1331  007AAC  C01A  F012         	movff	??___fldiv+3,___fldiv@b+3
  1332  007AB0  4A20               	infsnz	___fldiv@new_exp^0,f,c
  1333  007AB2  2A21               	incf	(___fldiv@new_exp+1)^0,f,c
  1334  007AB4                     l1570:
  1335  007AB4  BE21               	btfsc	(___fldiv@new_exp+1)^0,7,c
  1336  007AB6  EF65  F03D         	goto	u1481
  1337  007ABA  5021               	movf	(___fldiv@new_exp+1)^0,w,c
  1338  007ABC  E108               	bnz	u1480
  1339  007ABE  2820               	incf	___fldiv@new_exp^0,w,c
  1340  007AC0  A0D8               	btfss	status,0,c
  1341  007AC2  EF65  F03D         	goto	u1481
  1342  007AC6  EF67  F03D         	goto	u1480
  1343  007ACA                     u1481:
  1344  007ACA  EF72  F03D         	goto	l1574
  1345  007ACE                     u1480:
  1346  007ACE  0E00               	movlw	0
  1347  007AD0  6E21               	movwf	(___fldiv@new_exp+1)^0,c
  1348  007AD2  6820               	setf	___fldiv@new_exp^0,c
  1349  007AD4  0E00               	movlw	0
  1350  007AD6  6E0F               	movwf	___fldiv@b^0,c
  1351  007AD8  0E00               	movlw	0
  1352  007ADA  6E10               	movwf	(___fldiv@b+1)^0,c
  1353  007ADC  0E00               	movlw	0
  1354  007ADE  6E11               	movwf	(___fldiv@b+2)^0,c
  1355  007AE0  0E00               	movlw	0
  1356  007AE2  6E12               	movwf	(___fldiv@b+3)^0,c
  1357  007AE4                     l1574:
  1358  007AE4  BE21               	btfsc	(___fldiv@new_exp+1)^0,7,c
  1359  007AE6  EF7F  F03D         	goto	u1490
  1360  007AEA  5021               	movf	(___fldiv@new_exp+1)^0,w,c
  1361  007AEC  E106               	bnz	u1491
  1362  007AEE  0420               	decf	___fldiv@new_exp^0,w,c
  1363  007AF0  B0D8               	btfsc	status,0,c
  1364  007AF2  EF7D  F03D         	goto	u1491
  1365  007AF6  EF7F  F03D         	goto	u1490
  1366  007AFA                     u1491:
  1367  007AFA  EF8D  F03D         	goto	l1578
  1368  007AFE                     u1490:
  1369  007AFE  0E00               	movlw	0
  1370  007B00  6E21               	movwf	(___fldiv@new_exp+1)^0,c
  1371  007B02  0E00               	movlw	0
  1372  007B04  6E20               	movwf	___fldiv@new_exp^0,c
  1373  007B06  0E00               	movlw	0
  1374  007B08  6E0F               	movwf	___fldiv@b^0,c
  1375  007B0A  0E00               	movlw	0
  1376  007B0C  6E10               	movwf	(___fldiv@b+1)^0,c
  1377  007B0E  0E00               	movlw	0
  1378  007B10  6E11               	movwf	(___fldiv@b+2)^0,c
  1379  007B12  0E00               	movlw	0
  1380  007B14  6E12               	movwf	(___fldiv@b+3)^0,c
  1381  007B16  0E00               	movlw	0
  1382  007B18  6E1F               	movwf	___fldiv@sign^0,c
  1383  007B1A                     l1578:
  1384  007B1A  C020  F026         	movff	___fldiv@new_exp,___fldiv@bexp
  1385  007B1E  A026               	btfss	___fldiv@bexp^0,0,c
  1386  007B20  EF94  F03D         	goto	u1501
  1387  007B24  EF96  F03D         	goto	u1500
  1388  007B28                     u1501:
  1389  007B28  EF99  F03D         	goto	l1584
  1390  007B2C                     u1500:
  1391  007B2C  8E11               	bsf	(___fldiv@b+2)^0,7,c
  1392  007B2E  EF9A  F03D         	goto	l1586
  1393  007B32                     l1584:
  1394  007B32  9E11               	bcf	(___fldiv@b+2)^0,7,c
  1395  007B34                     l1586:
  1396  007B34  90D8               	bcf	status,0,c
  1397  007B36  3026               	rrcf	___fldiv@bexp^0,w,c
  1398  007B38  6E12               	movwf	(___fldiv@b+3)^0,c
  1399  007B3A  EF50  F03C         	goto	l1500
  1400  007B3E                     l665:
  1401  007B3E  0012               	return		;funcret
  1402  007B40                     __end_of___fldiv:
  1403                           	callstack 0
  1404                           
  1405 ;; *************** function ___fladd *****************
  1406 ;; Defined at:
  1407 ;;		line 10 in file "D:\mplab\pic\sources\c99\common\sprcadd.c"
  1408 ;; Parameters:    Size  Location     Type
  1409 ;;  b               4   39[COMRAM] unsigned char 
  1410 ;;  a               4   43[COMRAM] unsigned char 
  1411 ;; Auto vars:     Size  Location     Type
  1412 ;;  grs             1   54[COMRAM] unsigned char 
  1413 ;;  bexp            1   53[COMRAM] unsigned char 
  1414 ;;  aexp            1   52[COMRAM] unsigned char 
  1415 ;;  signs           1   51[COMRAM] unsigned char 
  1416 ;; Return value:  Size  Location     Type
  1417 ;;                  4   39[COMRAM] unsigned char 
  1418 ;; Registers used:
  1419 ;;		wreg, status,2, status,0
  1420 ;; Tracked objects:
  1421 ;;		On entry : 0/0
  1422 ;;		On exit  : 0/0
  1423 ;;		Unchanged: 0/0
  1424 ;; Data sizes:     COMRAM   BANK0   BANK1   BANK2   BANK3   BANK4   BANK5   BANK6   BANK7
  1425 ;;      Params:         8       0       0       0       0       0       0       0       0
  1426 ;;      Locals:         4       0       0       0       0       0       0       0       0
  1427 ;;      Temps:          4       0       0       0       0       0       0       0       0
  1428 ;;      Totals:        16       0       0       0       0       0       0       0       0
  1429 ;;Total ram usage:       16 bytes
  1430 ;; Hardware stack levels used: 1
  1431 ;; This function calls:
  1432 ;;		Nothing
  1433 ;; This function is called by:
  1434 ;;		_USART_Init
  1435 ;; This function uses a non-reentrant model
  1436 ;;
  1437                           
  1438                           	psect	text6
  1439  007B40                     __ptext6:
  1440                           	callstack 0
  1441  007B40                     ___fladd:
  1442                           	callstack 29
  1443  007B40  502B               	movf	(___fladd@b+3)^0,w,c
  1444  007B42  0B80               	andlw	128
  1445  007B44  6E34               	movwf	___fladd@signs^0,c
  1446  007B46  502B               	movf	(___fladd@b+3)^0,w,c
  1447  007B48  242B               	addwf	(___fladd@b+3)^0,w,c
  1448  007B4A  6E36               	movwf	___fladd@bexp^0,c
  1449  007B4C  AE2A               	btfss	(___fladd@b+2)^0,7,c
  1450  007B4E  EFAB  F03D         	goto	u891
  1451  007B52  EFAD  F03D         	goto	u890
  1452  007B56                     u891:
  1453  007B56  EFAE  F03D         	goto	l1260
  1454  007B5A                     u890:
  1455  007B5A  8036               	bsf	___fladd@bexp^0,0,c
  1456  007B5C                     l1260:
  1457  007B5C  5036               	movf	___fladd@bexp^0,w,c
  1458  007B5E  B4D8               	btfsc	status,2,c
  1459  007B60  EFB4  F03D         	goto	u901
  1460  007B64  EFB6  F03D         	goto	u900
  1461  007B68                     u901:
  1462  007B68  EFCB  F03D         	goto	l1270
  1463  007B6C                     u900:
  1464  007B6C  2836               	incf	___fladd@bexp^0,w,c
  1465  007B6E  A4D8               	btfss	status,2,c
  1466  007B70  EFBC  F03D         	goto	u911
  1467  007B74  EFBE  F03D         	goto	u910
  1468  007B78                     u911:
  1469  007B78  EFC6  F03D         	goto	l1266
  1470  007B7C                     u910:
  1471  007B7C  0E00               	movlw	0
  1472  007B7E  6E28               	movwf	___fladd@b^0,c
  1473  007B80  0E00               	movlw	0
  1474  007B82  6E29               	movwf	(___fladd@b+1)^0,c
  1475  007B84  0E00               	movlw	0
  1476  007B86  6E2A               	movwf	(___fladd@b+2)^0,c
  1477  007B88  0E00               	movlw	0
  1478  007B8A  6E2B               	movwf	(___fladd@b+3)^0,c
  1479  007B8C                     l1266:
  1480  007B8C  8E2A               	bsf	(___fladd@b+2)^0,7,c
  1481  007B8E  0E00               	movlw	0
  1482  007B90  6E2B               	movwf	(___fladd@b+3)^0,c
  1483  007B92  EFD3  F03D         	goto	l1272
  1484  007B96                     l1270:
  1485  007B96  0E00               	movlw	0
  1486  007B98  6E28               	movwf	___fladd@b^0,c
  1487  007B9A  0E00               	movlw	0
  1488  007B9C  6E29               	movwf	(___fladd@b+1)^0,c
  1489  007B9E  0E00               	movlw	0
  1490  007BA0  6E2A               	movwf	(___fladd@b+2)^0,c
  1491  007BA2  0E00               	movlw	0
  1492  007BA4  6E2B               	movwf	(___fladd@b+3)^0,c
  1493  007BA6                     l1272:
  1494  007BA6  502F               	movf	(___fladd@a+3)^0,w,c
  1495  007BA8  0B80               	andlw	128
  1496  007BAA  6E35               	movwf	___fladd@aexp^0,c
  1497  007BAC  5034               	movf	___fladd@signs^0,w,c
  1498  007BAE  1835               	xorwf	___fladd@aexp^0,w,c
  1499  007BB0  B4D8               	btfsc	status,2,c
  1500  007BB2  EFDD  F03D         	goto	u921
  1501  007BB6  EFDF  F03D         	goto	u920
  1502  007BBA                     u921:
  1503  007BBA  EFE0  F03D         	goto	l1278
  1504  007BBE                     u920:
  1505  007BBE  8C34               	bsf	___fladd@signs^0,6,c
  1506  007BC0                     l1278:
  1507  007BC0  502F               	movf	(___fladd@a+3)^0,w,c
  1508  007BC2  242F               	addwf	(___fladd@a+3)^0,w,c
  1509  007BC4  6E35               	movwf	___fladd@aexp^0,c
  1510  007BC6  AE2E               	btfss	(___fladd@a+2)^0,7,c
  1511  007BC8  EFE8  F03D         	goto	u931
  1512  007BCC  EFEA  F03D         	goto	u930
  1513  007BD0                     u931:
  1514  007BD0  EFEB  F03D         	goto	l1284
  1515  007BD4                     u930:
  1516  007BD4  8035               	bsf	___fladd@aexp^0,0,c
  1517  007BD6                     l1284:
  1518  007BD6  5035               	movf	___fladd@aexp^0,w,c
  1519  007BD8  B4D8               	btfsc	status,2,c
  1520  007BDA  EFF1  F03D         	goto	u941
  1521  007BDE  EFF3  F03D         	goto	u940
  1522  007BE2                     u941:
  1523  007BE2  EF08  F03E         	goto	l1294
  1524  007BE6                     u940:
  1525  007BE6  2835               	incf	___fladd@aexp^0,w,c
  1526  007BE8  A4D8               	btfss	status,2,c
  1527  007BEA  EFF9  F03D         	goto	u951
  1528  007BEE  EFFB  F03D         	goto	u950
  1529  007BF2                     u951:
  1530  007BF2  EF03  F03E         	goto	l1290
  1531  007BF6                     u950:
  1532  007BF6  0E00               	movlw	0
  1533  007BF8  6E2C               	movwf	___fladd@a^0,c
  1534  007BFA  0E00               	movlw	0
  1535  007BFC  6E2D               	movwf	(___fladd@a+1)^0,c
  1536  007BFE  0E00               	movlw	0
  1537  007C00  6E2E               	movwf	(___fladd@a+2)^0,c
  1538  007C02  0E00               	movlw	0
  1539  007C04  6E2F               	movwf	(___fladd@a+3)^0,c
  1540  007C06                     l1290:
  1541  007C06  8E2E               	bsf	(___fladd@a+2)^0,7,c
  1542  007C08  0E00               	movlw	0
  1543  007C0A  6E2F               	movwf	(___fladd@a+3)^0,c
  1544  007C0C  EF10  F03E         	goto	l1296
  1545  007C10                     l1294:
  1546  007C10  0E00               	movlw	0
  1547  007C12  6E2C               	movwf	___fladd@a^0,c
  1548  007C14  0E00               	movlw	0
  1549  007C16  6E2D               	movwf	(___fladd@a+1)^0,c
  1550  007C18  0E00               	movlw	0
  1551  007C1A  6E2E               	movwf	(___fladd@a+2)^0,c
  1552  007C1C  0E00               	movlw	0
  1553  007C1E  6E2F               	movwf	(___fladd@a+3)^0,c
  1554  007C20                     l1296:
  1555  007C20  5036               	movf	___fladd@bexp^0,w,c
  1556  007C22  5C35               	subwf	___fladd@aexp^0,w,c
  1557  007C24  B0D8               	btfsc	status,0,c
  1558  007C26  EF17  F03E         	goto	u961
  1559  007C2A  EF19  F03E         	goto	u960
  1560  007C2E                     u961:
  1561  007C2E  EF40  F03E         	goto	l1332
  1562  007C32                     u960:
  1563  007C32  AC34               	btfss	___fladd@signs^0,6,c
  1564  007C34  EF1E  F03E         	goto	u971
  1565  007C38  EF20  F03E         	goto	u970
  1566  007C3C                     u971:
  1567  007C3C  EF22  F03E         	goto	l1302
  1568  007C40                     u970:
  1569  007C40  0E80               	movlw	128
  1570  007C42  1A34               	xorwf	___fladd@signs^0,f,c
  1571  007C44                     l1302:
  1572  007C44  C036  F037         	movff	___fladd@bexp,___fladd@grs
  1573  007C48  C035  F036         	movff	___fladd@aexp,___fladd@bexp
  1574  007C4C  C037  F035         	movff	___fladd@grs,___fladd@aexp
  1575  007C50  C028  F037         	movff	___fladd@b,___fladd@grs
  1576  007C54  C02C  F028         	movff	___fladd@a,___fladd@b
  1577  007C58  C037  F02C         	movff	___fladd@grs,___fladd@a
  1578  007C5C  C029  F037         	movff	___fladd@b+1,___fladd@grs
  1579  007C60  C02D  F029         	movff	___fladd@a+1,___fladd@b+1
  1580  007C64  C037  F02D         	movff	___fladd@grs,___fladd@a+1
  1581  007C68  C02A  F037         	movff	___fladd@b+2,___fladd@grs
  1582  007C6C  C02E  F02A         	movff	___fladd@a+2,___fladd@b+2
  1583  007C70  C037  F02E         	movff	___fladd@grs,___fladd@a+2
  1584  007C74  C02B  F037         	movff	___fladd@b+3,___fladd@grs
  1585  007C78  C02F  F02B         	movff	___fladd@a+3,___fladd@b+3
  1586  007C7C  C037  F02F         	movff	___fladd@grs,___fladd@a+3
  1587  007C80                     l1332:
  1588  007C80  0E00               	movlw	0
  1589  007C82  6E37               	movwf	___fladd@grs^0,c
  1590  007C84  5036               	movf	___fladd@bexp^0,w,c
  1591  007C86  C035  F030         	movff	___fladd@aexp,??___fladd
  1592  007C8A  6A31               	clrf	(??___fladd+1)^0,c
  1593  007C8C  5E30               	subwf	??___fladd^0,f,c
  1594  007C8E  0E00               	movlw	0
  1595  007C90  5A31               	subwfb	(??___fladd+1)^0,f,c
  1596  007C92  BE31               	btfsc	(??___fladd+1)^0,7,c
  1597  007C94  EF55  F03E         	goto	u981
  1598  007C98  5031               	movf	(??___fladd+1)^0,w,c
  1599  007C9A  E109               	bnz	u980
  1600  007C9C  0E1A               	movlw	26
  1601  007C9E  5C30               	subwf	??___fladd^0,w,c
  1602  007CA0  A0D8               	btfss	status,0,c
  1603  007CA2  EF55  F03E         	goto	u981
  1604  007CA6  EF57  F03E         	goto	u980
  1605  007CAA                     u981:
  1606  007CAA  EF8E  F03E         	goto	l612
  1607  007CAE                     u980:
  1608  007CAE  5028               	movf	___fladd@b^0,w,c
  1609  007CB0  1029               	iorwf	(___fladd@b+1)^0,w,c
  1610  007CB2  102A               	iorwf	(___fladd@b+2)^0,w,c
  1611  007CB4  102B               	iorwf	(___fladd@b+3)^0,w,c
  1612  007CB6  A4D8               	btfss	status,2,c
  1613  007CB8  EF60  F03E         	goto	u991
  1614  007CBC  EF63  F03E         	goto	u990
  1615  007CC0                     u991:
  1616  007CC0  0E01               	movlw	1
  1617  007CC2  EF64  F03E         	goto	u1000
  1618  007CC6                     u990:
  1619  007CC6  0E00               	movlw	0
  1620  007CC8                     u1000:
  1621  007CC8  6E37               	movwf	___fladd@grs^0,c
  1622  007CCA  0E00               	movlw	0
  1623  007CCC  6E28               	movwf	___fladd@b^0,c
  1624  007CCE  0E00               	movlw	0
  1625  007CD0  6E29               	movwf	(___fladd@b+1)^0,c
  1626  007CD2  0E00               	movlw	0
  1627  007CD4  6E2A               	movwf	(___fladd@b+2)^0,c
  1628  007CD6  0E00               	movlw	0
  1629  007CD8  6E2B               	movwf	(___fladd@b+3)^0,c
  1630  007CDA  C035  F036         	movff	___fladd@aexp,___fladd@bexp
  1631  007CDE  EF97  F03E         	goto	l611
  1632  007CE2                     l613:
  1633  007CE2  A037               	btfss	___fladd@grs^0,0,c
  1634  007CE4  EF76  F03E         	goto	u1011
  1635  007CE8  EF78  F03E         	goto	u1010
  1636  007CEC                     u1011:
  1637  007CEC  EF7E  F03E         	goto	l1344
  1638  007CF0                     u1010:
  1639  007CF0  90D8               	bcf	status,0,c
  1640  007CF2  3037               	rrcf	___fladd@grs^0,w,c
  1641  007CF4  0901               	iorlw	1
  1642  007CF6  6E37               	movwf	___fladd@grs^0,c
  1643  007CF8  EF80  F03E         	goto	l1346
  1644  007CFC                     l1344:
  1645  007CFC  90D8               	bcf	status,0,c
  1646  007CFE  3237               	rrcf	___fladd@grs^0,f,c
  1647  007D00                     l1346:
  1648  007D00  A028               	btfss	___fladd@b^0,0,c
  1649  007D02  EF85  F03E         	goto	u1021
  1650  007D06  EF87  F03E         	goto	u1020
  1651  007D0A                     u1021:
  1652  007D0A  EF88  F03E         	goto	l1350
  1653  007D0E                     u1020:
  1654  007D0E  8E37               	bsf	___fladd@grs^0,7,c
  1655  007D10                     l1350:
  1656  007D10  342B               	rlcf	(___fladd@b+3)^0,w,c
  1657  007D12  322B               	rrcf	(___fladd@b+3)^0,f,c
  1658  007D14  322A               	rrcf	(___fladd@b+2)^0,f,c
  1659  007D16  3229               	rrcf	(___fladd@b+1)^0,f,c
  1660  007D18  3228               	rrcf	___fladd@b^0,f,c
  1661  007D1A  2A36               	incf	___fladd@bexp^0,f,c
  1662  007D1C                     l612:
  1663  007D1C  5035               	movf	___fladd@aexp^0,w,c
  1664  007D1E  5C36               	subwf	___fladd@bexp^0,w,c
  1665  007D20  A0D8               	btfss	status,0,c
  1666  007D22  EF95  F03E         	goto	u1031
  1667  007D26  EF97  F03E         	goto	u1030
  1668  007D2A                     u1031:
  1669  007D2A  EF71  F03E         	goto	l613
  1670  007D2E                     u1030:
  1671  007D2E                     l611:
  1672  007D2E  BC34               	btfsc	___fladd@signs^0,6,c
  1673  007D30  EF9C  F03E         	goto	u1041
  1674  007D34  EF9E  F03E         	goto	u1040
  1675  007D38                     u1041:
  1676  007D38  EFDE  F03E         	goto	l1378
  1677  007D3C                     u1040:
  1678  007D3C  5036               	movf	___fladd@bexp^0,w,c
  1679  007D3E  A4D8               	btfss	status,2,c
  1680  007D40  EFA4  F03E         	goto	u1051
  1681  007D44  EFA6  F03E         	goto	u1050
  1682  007D48                     u1051:
  1683  007D48  EFB0  F03E         	goto	l1360
  1684  007D4C                     u1050:
  1685  007D4C  0E00               	movlw	0
  1686  007D4E  6E28               	movwf	?___fladd^0,c
  1687  007D50  0E00               	movlw	0
  1688  007D52  6E29               	movwf	(?___fladd+1)^0,c
  1689  007D54  0E00               	movlw	0
  1690  007D56  6E2A               	movwf	(?___fladd+2)^0,c
  1691  007D58  0E00               	movlw	0
  1692  007D5A  6E2B               	movwf	(?___fladd+3)^0,c
  1693  007D5C  EFFF  F03F         	goto	l620
  1694  007D60                     l1360:
  1695  007D60  502C               	movf	___fladd@a^0,w,c
  1696  007D62  2628               	addwf	___fladd@b^0,f,c
  1697  007D64  502D               	movf	(___fladd@a+1)^0,w,c
  1698  007D66  2229               	addwfc	(___fladd@b+1)^0,f,c
  1699  007D68  502E               	movf	(___fladd@a+2)^0,w,c
  1700  007D6A  222A               	addwfc	(___fladd@b+2)^0,f,c
  1701  007D6C  502F               	movf	(___fladd@a+3)^0,w,c
  1702  007D6E  222B               	addwfc	(___fladd@b+3)^0,f,c
  1703  007D70  A02B               	btfss	(___fladd@b+3)^0,0,c
  1704  007D72  EFBD  F03E         	goto	u1061
  1705  007D76  EFBF  F03E         	goto	u1060
  1706  007D7A                     u1061:
  1707  007D7A  EF6B  F03F         	goto	l1414
  1708  007D7E                     u1060:
  1709  007D7E  A037               	btfss	___fladd@grs^0,0,c
  1710  007D80  EFC4  F03E         	goto	u1071
  1711  007D84  EFC6  F03E         	goto	u1070
  1712  007D88                     u1071:
  1713  007D88  EFCC  F03E         	goto	l1368
  1714  007D8C                     u1070:
  1715  007D8C  90D8               	bcf	status,0,c
  1716  007D8E  3037               	rrcf	___fladd@grs^0,w,c
  1717  007D90  0901               	iorlw	1
  1718  007D92  6E37               	movwf	___fladd@grs^0,c
  1719  007D94  EFCE  F03E         	goto	l1370
  1720  007D98                     l1368:
  1721  007D98  90D8               	bcf	status,0,c
  1722  007D9A  3237               	rrcf	___fladd@grs^0,f,c
  1723  007D9C                     l1370:
  1724  007D9C  A028               	btfss	___fladd@b^0,0,c
  1725  007D9E  EFD3  F03E         	goto	u1081
  1726  007DA2  EFD5  F03E         	goto	u1080
  1727  007DA6                     u1081:
  1728  007DA6  EFD6  F03E         	goto	l1374
  1729  007DAA                     u1080:
  1730  007DAA  8E37               	bsf	___fladd@grs^0,7,c
  1731  007DAC                     l1374:
  1732  007DAC  342B               	rlcf	(___fladd@b+3)^0,w,c
  1733  007DAE  322B               	rrcf	(___fladd@b+3)^0,f,c
  1734  007DB0  322A               	rrcf	(___fladd@b+2)^0,f,c
  1735  007DB2  3229               	rrcf	(___fladd@b+1)^0,f,c
  1736  007DB4  3228               	rrcf	___fladd@b^0,f,c
  1737  007DB6  2A36               	incf	___fladd@bexp^0,f,c
  1738  007DB8  EF6B  F03F         	goto	l1414
  1739  007DBC                     l1378:
  1740  007DBC  502C               	movf	___fladd@a^0,w,c
  1741  007DBE  5C28               	subwf	___fladd@b^0,w,c
  1742  007DC0  502D               	movf	(___fladd@a+1)^0,w,c
  1743  007DC2  5829               	subwfb	(___fladd@b+1)^0,w,c
  1744  007DC4  502E               	movf	(___fladd@a+2)^0,w,c
  1745  007DC6  582A               	subwfb	(___fladd@b+2)^0,w,c
  1746  007DC8  502B               	movf	(___fladd@b+3)^0,w,c
  1747  007DCA  0A80               	xorlw	128
  1748  007DCC  6E30               	movwf	??___fladd^0,c
  1749  007DCE  502F               	movf	(___fladd@a+3)^0,w,c
  1750  007DD0  0A80               	xorlw	128
  1751  007DD2  5830               	subwfb	??___fladd^0,w,c
  1752  007DD4  B0D8               	btfsc	status,0,c
  1753  007DD6  EFEF  F03E         	goto	u1091
  1754  007DDA  EFF1  F03E         	goto	u1090
  1755  007DDE                     u1091:
  1756  007DDE  EF1C  F03F         	goto	l1388
  1757  007DE2                     u1090:
  1758  007DE2  5028               	movf	___fladd@b^0,w,c
  1759  007DE4  5C2C               	subwf	___fladd@a^0,w,c
  1760  007DE6  6E30               	movwf	??___fladd^0,c
  1761  007DE8  5029               	movf	(___fladd@b+1)^0,w,c
  1762  007DEA  582D               	subwfb	(___fladd@a+1)^0,w,c
  1763  007DEC  6E31               	movwf	(??___fladd+1)^0,c
  1764  007DEE  502A               	movf	(___fladd@b+2)^0,w,c
  1765  007DF0  582E               	subwfb	(___fladd@a+2)^0,w,c
  1766  007DF2  6E32               	movwf	(??___fladd+2)^0,c
  1767  007DF4  502B               	movf	(___fladd@b+3)^0,w,c
  1768  007DF6  582F               	subwfb	(___fladd@a+3)^0,w,c
  1769  007DF8  6E33               	movwf	(??___fladd+3)^0,c
  1770  007DFA  0EFF               	movlw	255
  1771  007DFC  2430               	addwf	??___fladd^0,w,c
  1772  007DFE  6E28               	movwf	___fladd@b^0,c
  1773  007E00  0EFF               	movlw	255
  1774  007E02  2031               	addwfc	(??___fladd+1)^0,w,c
  1775  007E04  6E29               	movwf	(___fladd@b+1)^0,c
  1776  007E06  0EFF               	movlw	255
  1777  007E08  2032               	addwfc	(??___fladd+2)^0,w,c
  1778  007E0A  6E2A               	movwf	(___fladd@b+2)^0,c
  1779  007E0C  0EFF               	movlw	255
  1780  007E0E  2033               	addwfc	(??___fladd+3)^0,w,c
  1781  007E10  6E2B               	movwf	(___fladd@b+3)^0,c
  1782  007E12  0E80               	movlw	128
  1783  007E14  1A34               	xorwf	___fladd@signs^0,f,c
  1784  007E16  6C37               	negf	___fladd@grs^0,c
  1785  007E18  5037               	movf	___fladd@grs^0,w,c
  1786  007E1A  A4D8               	btfss	status,2,c
  1787  007E1C  EF12  F03F         	goto	u1101
  1788  007E20  EF14  F03F         	goto	u1100
  1789  007E24                     u1101:
  1790  007E24  EF24  F03F         	goto	l628
  1791  007E28                     u1100:
  1792  007E28  0E01               	movlw	1
  1793  007E2A  2628               	addwf	___fladd@b^0,f,c
  1794  007E2C  0E00               	movlw	0
  1795  007E2E  2229               	addwfc	(___fladd@b+1)^0,f,c
  1796  007E30  222A               	addwfc	(___fladd@b+2)^0,f,c
  1797  007E32  222B               	addwfc	(___fladd@b+3)^0,f,c
  1798  007E34  EF24  F03F         	goto	l628
  1799  007E38                     l1388:
  1800  007E38  502C               	movf	___fladd@a^0,w,c
  1801  007E3A  5E28               	subwf	___fladd@b^0,f,c
  1802  007E3C  502D               	movf	(___fladd@a+1)^0,w,c
  1803  007E3E  5A29               	subwfb	(___fladd@b+1)^0,f,c
  1804  007E40  502E               	movf	(___fladd@a+2)^0,w,c
  1805  007E42  5A2A               	subwfb	(___fladd@b+2)^0,f,c
  1806  007E44  502F               	movf	(___fladd@a+3)^0,w,c
  1807  007E46  5A2B               	subwfb	(___fladd@b+3)^0,f,c
  1808  007E48                     l628:
  1809  007E48  5028               	movf	___fladd@b^0,w,c
  1810  007E4A  1029               	iorwf	(___fladd@b+1)^0,w,c
  1811  007E4C  102A               	iorwf	(___fladd@b+2)^0,w,c
  1812  007E4E  102B               	iorwf	(___fladd@b+3)^0,w,c
  1813  007E50  A4D8               	btfss	status,2,c
  1814  007E52  EF2D  F03F         	goto	u1111
  1815  007E56  EF2F  F03F         	goto	u1110
  1816  007E5A                     u1111:
  1817  007E5A  EF64  F03F         	goto	l1412
  1818  007E5E                     u1110:
  1819  007E5E  5037               	movf	___fladd@grs^0,w,c
  1820  007E60  A4D8               	btfss	status,2,c
  1821  007E62  EF35  F03F         	goto	u1121
  1822  007E66  EF37  F03F         	goto	u1120
  1823  007E6A                     u1121:
  1824  007E6A  EF64  F03F         	goto	l1412
  1825  007E6E                     u1120:
  1826  007E6E  0E00               	movlw	0
  1827  007E70  6E28               	movwf	?___fladd^0,c
  1828  007E72  0E00               	movlw	0
  1829  007E74  6E29               	movwf	(?___fladd+1)^0,c
  1830  007E76  0E00               	movlw	0
  1831  007E78  6E2A               	movwf	(?___fladd+2)^0,c
  1832  007E7A  0E00               	movlw	0
  1833  007E7C  6E2B               	movwf	(?___fladd+3)^0,c
  1834  007E7E  EFFF  F03F         	goto	l620
  1835  007E82                     l1396:
  1836  007E82  90D8               	bcf	status,0,c
  1837  007E84  3628               	rlcf	___fladd@b^0,f,c
  1838  007E86  3629               	rlcf	(___fladd@b+1)^0,f,c
  1839  007E88  362A               	rlcf	(___fladd@b+2)^0,f,c
  1840  007E8A  362B               	rlcf	(___fladd@b+3)^0,f,c
  1841  007E8C  AE37               	btfss	___fladd@grs^0,7,c
  1842  007E8E  EF4B  F03F         	goto	u1131
  1843  007E92  EF4D  F03F         	goto	u1130
  1844  007E96                     u1131:
  1845  007E96  EF4E  F03F         	goto	l1402
  1846  007E9A                     u1130:
  1847  007E9A  8028               	bsf	___fladd@b^0,0,c
  1848  007E9C                     l1402:
  1849  007E9C  A037               	btfss	___fladd@grs^0,0,c
  1850  007E9E  EF53  F03F         	goto	u1141
  1851  007EA2  EF55  F03F         	goto	u1140
  1852  007EA6                     u1141:
  1853  007EA6  EF59  F03F         	goto	l1406
  1854  007EAA                     u1140:
  1855  007EAA  80D8               	bsf	status,0,c
  1856  007EAC  3637               	rlcf	___fladd@grs^0,f,c
  1857  007EAE  EF5B  F03F         	goto	l1408
  1858  007EB2                     l1406:
  1859  007EB2  90D8               	bcf	status,0,c
  1860  007EB4  3637               	rlcf	___fladd@grs^0,f,c
  1861  007EB6                     l1408:
  1862  007EB6  5036               	movf	___fladd@bexp^0,w,c
  1863  007EB8  B4D8               	btfsc	status,2,c
  1864  007EBA  EF61  F03F         	goto	u1151
  1865  007EBE  EF63  F03F         	goto	u1150
  1866  007EC2                     u1151:
  1867  007EC2  EF64  F03F         	goto	l1412
  1868  007EC6                     u1150:
  1869  007EC6  0636               	decf	___fladd@bexp^0,f,c
  1870  007EC8                     l1412:
  1871  007EC8  AE2A               	btfss	(___fladd@b+2)^0,7,c
  1872  007ECA  EF69  F03F         	goto	u1161
  1873  007ECE  EF6B  F03F         	goto	u1160
  1874  007ED2                     u1161:
  1875  007ED2  EF41  F03F         	goto	l1396
  1876  007ED6                     u1160:
  1877  007ED6                     l1414:
  1878  007ED6  0E00               	movlw	0
  1879  007ED8  6E35               	movwf	___fladd@aexp^0,c
  1880  007EDA  AE37               	btfss	___fladd@grs^0,7,c
  1881  007EDC  EF72  F03F         	goto	u1171
  1882  007EE0  EF74  F03F         	goto	u1170
  1883  007EE4                     u1171:
  1884  007EE4  EF8C  F03F         	goto	l637
  1885  007EE8                     u1170:
  1886  007EE8  C037  F030         	movff	___fladd@grs,??___fladd
  1887  007EEC  0E7F               	movlw	127
  1888  007EEE  1630               	andwf	??___fladd^0,f,c
  1889  007EF0  B4D8               	btfsc	status,2,c
  1890  007EF2  EF7D  F03F         	goto	u1181
  1891  007EF6  EF7F  F03F         	goto	u1180
  1892  007EFA                     u1181:
  1893  007EFA  EF83  F03F         	goto	l638
  1894  007EFE                     u1180:
  1895  007EFE                     l1420:
  1896  007EFE  0E01               	movlw	1
  1897  007F00  6E35               	movwf	___fladd@aexp^0,c
  1898  007F02  EF8C  F03F         	goto	l637
  1899  007F06                     l638:
  1900  007F06  A028               	btfss	___fladd@b^0,0,c
  1901  007F08  EF88  F03F         	goto	u1191
  1902  007F0C  EF8A  F03F         	goto	u1190
  1903  007F10                     u1191:
  1904  007F10  EF8C  F03F         	goto	l637
  1905  007F14                     u1190:
  1906  007F14  EF7F  F03F         	goto	l1420
  1907  007F18                     l637:
  1908  007F18  5035               	movf	___fladd@aexp^0,w,c
  1909  007F1A  B4D8               	btfsc	status,2,c
  1910  007F1C  EF92  F03F         	goto	u1201
  1911  007F20  EF94  F03F         	goto	u1200
  1912  007F24                     u1201:
  1913  007F24  EFBF  F03F         	goto	l1432
  1914  007F28                     u1200:
  1915  007F28  0E01               	movlw	1
  1916  007F2A  2628               	addwf	___fladd@b^0,f,c
  1917  007F2C  0E00               	movlw	0
  1918  007F2E  2229               	addwfc	(___fladd@b+1)^0,f,c
  1919  007F30  222A               	addwfc	(___fladd@b+2)^0,f,c
  1920  007F32  222B               	addwfc	(___fladd@b+3)^0,f,c
  1921  007F34  A02B               	btfss	(___fladd@b+3)^0,0,c
  1922  007F36  EF9F  F03F         	goto	u1211
  1923  007F3A  EFA1  F03F         	goto	u1210
  1924  007F3E                     u1211:
  1925  007F3E  EFBF  F03F         	goto	l1432
  1926  007F42                     u1210:
  1927  007F42  C028  F030         	movff	___fladd@b,??___fladd
  1928  007F46  C029  F031         	movff	___fladd@b+1,??___fladd+1
  1929  007F4A  C02A  F032         	movff	___fladd@b+2,??___fladd+2
  1930  007F4E  C02B  F033         	movff	___fladd@b+3,??___fladd+3
  1931  007F52  3433               	rlcf	(??___fladd+3)^0,w,c
  1932  007F54  3233               	rrcf	(??___fladd+3)^0,f,c
  1933  007F56  3232               	rrcf	(??___fladd+2)^0,f,c
  1934  007F58  3231               	rrcf	(??___fladd+1)^0,f,c
  1935  007F5A  3230               	rrcf	??___fladd^0,f,c
  1936  007F5C  C030  F028         	movff	??___fladd,___fladd@b
  1937  007F60  C031  F029         	movff	??___fladd+1,___fladd@b+1
  1938  007F64  C032  F02A         	movff	??___fladd+2,___fladd@b+2
  1939  007F68  C033  F02B         	movff	??___fladd+3,___fladd@b+3
  1940  007F6C  2836               	incf	___fladd@bexp^0,w,c
  1941  007F6E  B4D8               	btfsc	status,2,c
  1942  007F70  EFBC  F03F         	goto	u1221
  1943  007F74  EFBE  F03F         	goto	u1220
  1944  007F78                     u1221:
  1945  007F78  EFBF  F03F         	goto	l1432
  1946  007F7C                     u1220:
  1947  007F7C  2A36               	incf	___fladd@bexp^0,f,c
  1948  007F7E                     l1432:
  1949  007F7E  2836               	incf	___fladd@bexp^0,w,c
  1950  007F80  B4D8               	btfsc	status,2,c
  1951  007F82  EFC5  F03F         	goto	u1231
  1952  007F86  EFC7  F03F         	goto	u1230
  1953  007F8A                     u1231:
  1954  007F8A  EFCF  F03F         	goto	l1436
  1955  007F8E                     u1230:
  1956  007F8E  5036               	movf	___fladd@bexp^0,w,c
  1957  007F90  A4D8               	btfss	status,2,c
  1958  007F92  EFCD  F03F         	goto	u1241
  1959  007F96  EFCF  F03F         	goto	u1240
  1960  007F9A                     u1241:
  1961  007F9A  EFE1  F03F         	goto	l1440
  1962  007F9E                     u1240:
  1963  007F9E                     l1436:
  1964  007F9E  0E00               	movlw	0
  1965  007FA0  6E28               	movwf	___fladd@b^0,c
  1966  007FA2  0E00               	movlw	0
  1967  007FA4  6E29               	movwf	(___fladd@b+1)^0,c
  1968  007FA6  0E00               	movlw	0
  1969  007FA8  6E2A               	movwf	(___fladd@b+2)^0,c
  1970  007FAA  0E00               	movlw	0
  1971  007FAC  6E2B               	movwf	(___fladd@b+3)^0,c
  1972  007FAE  5036               	movf	___fladd@bexp^0,w,c
  1973  007FB0  A4D8               	btfss	status,2,c
  1974  007FB2  EFDD  F03F         	goto	u1251
  1975  007FB6  EFDF  F03F         	goto	u1250
  1976  007FBA                     u1251:
  1977  007FBA  EFE1  F03F         	goto	l1440
  1978  007FBE                     u1250:
  1979  007FBE  0E00               	movlw	0
  1980  007FC0  6E34               	movwf	___fladd@signs^0,c
  1981  007FC2                     l1440:
  1982  007FC2  A036               	btfss	___fladd@bexp^0,0,c
  1983  007FC4  EFE6  F03F         	goto	u1261
  1984  007FC8  EFE8  F03F         	goto	u1260
  1985  007FCC                     u1261:
  1986  007FCC  EFEB  F03F         	goto	l1444
  1987  007FD0                     u1260:
  1988  007FD0  8E2A               	bsf	(___fladd@b+2)^0,7,c
  1989  007FD2  EFEC  F03F         	goto	l1446
  1990  007FD6                     l1444:
  1991  007FD6  9E2A               	bcf	(___fladd@b+2)^0,7,c
  1992  007FD8                     l1446:
  1993  007FD8  90D8               	bcf	status,0,c
  1994  007FDA  3036               	rrcf	___fladd@bexp^0,w,c
  1995  007FDC  6E2B               	movwf	(___fladd@b+3)^0,c
  1996  007FDE  AE34               	btfss	___fladd@signs^0,7,c
  1997  007FE0  EFF4  F03F         	goto	u1271
  1998  007FE4  EFF6  F03F         	goto	u1270
  1999  007FE8                     u1271:
  2000  007FE8  EFF7  F03F         	goto	l1452
  2001  007FEC                     u1270:
  2002  007FEC  8E2B               	bsf	(___fladd@b+3)^0,7,c
  2003  007FEE                     l1452:
  2004  007FEE  C028  F028         	movff	___fladd@b,?___fladd
  2005  007FF2  C029  F029         	movff	___fladd@b+1,?___fladd+1
  2006  007FF6  C02A  F02A         	movff	___fladd@b+2,?___fladd+2
  2007  007FFA  C02B  F02B         	movff	___fladd@b+3,?___fladd+3
  2008  007FFE                     l620:
  2009  007FFE  0012               	return		;funcret
  2010  008000                     __end_of___fladd:
  2011                           	callstack 0
  2012  0000                     
  2013                           	psect	rparam
  2014  0000                     
  2015                           	psect	idloc
  2016                           
  2017                           ;Config register IDLOC0 @ 0x200000
  2018                           ;	unspecified, using default values
  2019  200000                     	org	2097152
  2020  200000  FF                 	db	255
  2021                           
  2022                           ;Config register IDLOC1 @ 0x200001
  2023                           ;	unspecified, using default values
  2024  200001                     	org	2097153
  2025  200001  FF                 	db	255
  2026                           
  2027                           ;Config register IDLOC2 @ 0x200002
  2028                           ;	unspecified, using default values
  2029  200002                     	org	2097154
  2030  200002  FF                 	db	255
  2031                           
  2032                           ;Config register IDLOC3 @ 0x200003
  2033                           ;	unspecified, using default values
  2034  200003                     	org	2097155
  2035  200003  FF                 	db	255
  2036                           
  2037                           ;Config register IDLOC4 @ 0x200004
  2038                           ;	unspecified, using default values
  2039  200004                     	org	2097156
  2040  200004  FF                 	db	255
  2041                           
  2042                           ;Config register IDLOC5 @ 0x200005
  2043                           ;	unspecified, using default values
  2044  200005                     	org	2097157
  2045  200005  FF                 	db	255
  2046                           
  2047                           ;Config register IDLOC6 @ 0x200006
  2048                           ;	unspecified, using default values
  2049  200006                     	org	2097158
  2050  200006  FF                 	db	255
  2051                           
  2052                           ;Config register IDLOC7 @ 0x200007
  2053                           ;	unspecified, using default values
  2054  200007                     	org	2097159
  2055  200007  FF                 	db	255
  2056                           
  2057                           	psect	config
  2058                           
  2059                           ;Config register CONFIG1L @ 0x300000
  2060                           ;	PLL Prescaler Selection bits
  2061                           ;	PLLDIV = 1, No prescale (4 MHz oscillator input drives PLL directly)
  2062                           ;	System Clock Postscaler Selection bits
  2063                           ;	CPUDIV = OSC1_PLL2, [Primary Oscillator Src: /1][96 MHz PLL Src: /2]
  2064                           ;	USB Clock Selection bit (used in Full-Speed USB mode only; UCFG:FSEN = 1)
  2065                           ;	USBDIV = 1, USB clock source comes directly from the primary oscillator block with no 
      +                          postscale
  2066  300000                     	org	3145728
  2067  300000  00                 	db	0
  2068                           
  2069                           ;Config register CONFIG1H @ 0x300001
  2070                           ;	Oscillator Selection bits
  2071                           ;	FOSC = INTOSC_EC, Internal oscillator, CLKO function on RA6, EC used by USB (INTCKO)
  2072                           ;	Fail-Safe Clock Monitor Enable bit
  2073                           ;	FCMEN = OFF, Fail-Safe Clock Monitor disabled
  2074                           ;	Internal/External Oscillator Switchover bit
  2075                           ;	IESO = OFF, Oscillator Switchover mode disabled
  2076  300001                     	org	3145729
  2077  300001  09                 	db	9
  2078                           
  2079                           ;Config register CONFIG2L @ 0x300002
  2080                           ;	Power-up Timer Enable bit
  2081                           ;	PWRT = OFF, PWRT disabled
  2082                           ;	Brown-out Reset Enable bits
  2083                           ;	BOR = ON, Brown-out Reset enabled in hardware only (SBOREN is disabled)
  2084                           ;	Brown-out Reset Voltage bits
  2085                           ;	BORV = 3, Minimum setting 2.05V
  2086                           ;	USB Voltage Regulator Enable bit
  2087                           ;	VREGEN = OFF, USB voltage regulator disabled
  2088  300002                     	org	3145730
  2089  300002  1F                 	db	31
  2090                           
  2091                           ;Config register CONFIG2H @ 0x300003
  2092                           ;	Watchdog Timer Enable bit
  2093                           ;	WDT = OFF, WDT disabled (control is placed on the SWDTEN bit)
  2094                           ;	Watchdog Timer Postscale Select bits
  2095                           ;	WDTPS = 32768, 1:32768
  2096  300003                     	org	3145731
  2097  300003  1E                 	db	30
  2098                           
  2099                           ; Padding undefined space
  2100  300004                     	org	3145732
  2101  300004  FF                 	db	255
  2102                           
  2103                           ;Config register CONFIG3H @ 0x300005
  2104                           ;	CCP2 MUX bit
  2105                           ;	CCP2MX = ON, CCP2 input/output is multiplexed with RC1
  2106                           ;	PORTB A/D Enable bit
  2107                           ;	PBADEN = OFF, PORTB<4:0> pins are configured as digital I/O on Reset
  2108                           ;	Low-Power Timer 1 Oscillator Enable bit
  2109                           ;	LPT1OSC = OFF, Timer1 configured for higher power operation
  2110                           ;	MCLR Pin Enable bit
  2111                           ;	MCLRE = ON, MCLR pin enabled; RE3 input pin disabled
  2112  300005                     	org	3145733
  2113  300005  81                 	db	129
  2114                           
  2115                           ;Config register CONFIG4L @ 0x300006
  2116                           ;	Stack Full/Underflow Reset Enable bit
  2117                           ;	STVREN = ON, Stack full/underflow will cause Reset
  2118                           ;	Single-Supply ICSP Enable bit
  2119                           ;	LVP = OFF, Single-Supply ICSP disabled
  2120                           ;	Dedicated In-Circuit Debug/Programming Port (ICPORT) Enable bit
  2121                           ;	ICPRT = OFF, ICPORT disabled
  2122                           ;	Extended Instruction Set Enable bit
  2123                           ;	XINST = OFF, Instruction set extension and Indexed Addressing mode disabled (Legacy mo
      +                          de)
  2124                           ;	Background Debugger Enable bit
  2125                           ;	DEBUG = 0x1, unprogrammed default
  2126  300006                     	org	3145734
  2127  300006  81                 	db	129
  2128                           
  2129                           ; Padding undefined space
  2130  300007                     	org	3145735
  2131  300007  FF                 	db	255
  2132                           
  2133                           ;Config register CONFIG5L @ 0x300008
  2134                           ;	Code Protection bit
  2135                           ;	CP0 = OFF, Block 0 (000800-001FFFh) is not code-protected
  2136                           ;	Code Protection bit
  2137                           ;	CP1 = OFF, Block 1 (002000-003FFFh) is not code-protected
  2138                           ;	Code Protection bit
  2139                           ;	CP2 = OFF, Block 2 (004000-005FFFh) is not code-protected
  2140                           ;	Code Protection bit
  2141                           ;	CP3 = OFF, Block 3 (006000-007FFFh) is not code-protected
  2142  300008                     	org	3145736
  2143  300008  0F                 	db	15
  2144                           
  2145                           ;Config register CONFIG5H @ 0x300009
  2146                           ;	Boot Block Code Protection bit
  2147                           ;	CPB = OFF, Boot block (000000-0007FFh) is not code-protected
  2148                           ;	Data EEPROM Code Protection bit
  2149                           ;	CPD = OFF, Data EEPROM is not code-protected
  2150  300009                     	org	3145737
  2151  300009  C0                 	db	192
  2152                           
  2153                           ;Config register CONFIG6L @ 0x30000A
  2154                           ;	Write Protection bit
  2155                           ;	WRT0 = OFF, Block 0 (000800-001FFFh) is not write-protected
  2156                           ;	Write Protection bit
  2157                           ;	WRT1 = OFF, Block 1 (002000-003FFFh) is not write-protected
  2158                           ;	Write Protection bit
  2159                           ;	WRT2 = OFF, Block 2 (004000-005FFFh) is not write-protected
  2160                           ;	Write Protection bit
  2161                           ;	WRT3 = OFF, Block 3 (006000-007FFFh) is not write-protected
  2162  30000A                     	org	3145738
  2163  30000A  0F                 	db	15
  2164                           
  2165                           ;Config register CONFIG6H @ 0x30000B
  2166                           ;	Configuration Register Write Protection bit
  2167                           ;	WRTC = OFF, Configuration registers (300000-3000FFh) are not write-protected
  2168                           ;	Boot Block Write Protection bit
  2169                           ;	WRTB = OFF, Boot block (000000-0007FFh) is not write-protected
  2170                           ;	Data EEPROM Write Protection bit
  2171                           ;	WRTD = OFF, Data EEPROM is not write-protected
  2172  30000B                     	org	3145739
  2173  30000B  E0                 	db	224
  2174                           
  2175                           ;Config register CONFIG7L @ 0x30000C
  2176                           ;	Table Read Protection bit
  2177                           ;	EBTR0 = OFF, Block 0 (000800-001FFFh) is not protected from table reads executed in ot
      +                          her blocks
  2178                           ;	Table Read Protection bit
  2179                           ;	EBTR1 = OFF, Block 1 (002000-003FFFh) is not protected from table reads executed in ot
      +                          her blocks
  2180                           ;	Table Read Protection bit
  2181                           ;	EBTR2 = OFF, Block 2 (004000-005FFFh) is not protected from table reads executed in ot
      +                          her blocks
  2182                           ;	Table Read Protection bit
  2183                           ;	EBTR3 = OFF, Block 3 (006000-007FFFh) is not protected from table reads executed in ot
      +                          her blocks
  2184  30000C                     	org	3145740
  2185  30000C  0F                 	db	15
  2186                           
  2187                           ;Config register CONFIG7H @ 0x30000D
  2188                           ;	Boot Block Table Read Protection bit
  2189                           ;	EBTRB = OFF, Boot block (000000-0007FFh) is not protected from table reads executed in
      +                           other blocks
  2190  30000D                     	org	3145741
  2191  30000D  40                 	db	64
  2192                           tosu	equ	0xFFF
  2193                           tosh	equ	0xFFE
  2194                           tosl	equ	0xFFD
  2195                           stkptr	equ	0xFFC
  2196                           pclatu	equ	0xFFB
  2197                           pclath	equ	0xFFA
  2198                           pcl	equ	0xFF9
  2199                           tblptru	equ	0xFF8
  2200                           tblptrh	equ	0xFF7
  2201                           tblptrl	equ	0xFF6
  2202                           tablat	equ	0xFF5
  2203                           prodh	equ	0xFF4
  2204                           prodl	equ	0xFF3
  2205                           indf0	equ	0xFEF
  2206                           postinc0	equ	0xFEE
  2207                           postdec0	equ	0xFED
  2208                           preinc0	equ	0xFEC
  2209                           plusw0	equ	0xFEB
  2210                           fsr0h	equ	0xFEA
  2211                           fsr0l	equ	0xFE9
  2212                           wreg	equ	0xFE8
  2213                           indf1	equ	0xFE7
  2214                           postinc1	equ	0xFE6
  2215                           postdec1	equ	0xFE5
  2216                           preinc1	equ	0xFE4
  2217                           plusw1	equ	0xFE3
  2218                           fsr1h	equ	0xFE2
  2219                           fsr1l	equ	0xFE1
  2220                           bsr	equ	0xFE0
  2221                           indf2	equ	0xFDF
  2222                           postinc2	equ	0xFDE
  2223                           postdec2	equ	0xFDD
  2224                           preinc2	equ	0xFDC
  2225                           plusw2	equ	0xFDB
  2226                           fsr2h	equ	0xFDA
  2227                           fsr2l	equ	0xFD9
  2228                           status	equ	0xFD8

Data Sizes:
    Strings     0
    Constant    0
    Data        0
    BSS         0
    Persistent  0
    Stack       0

Auto Spaces:
    Space          Size  Autos    Used
    COMRAM           95     66      66
    BANK0           160      0       0
    BANK1           256      0       0
    BANK2           256      0       0
    BANK3           256      0       0
    BANK4           256      0       0
    BANK5           256      0       0
    BANK6           256      0       0
    BANK7           256      0       0

Pointer List with Targets:

    None.

Critical Paths under _main in COMRAM

    _main->_USART_Init
    _USART_Init->___fladd
    ___fldiv->___xxtofl
    ___fladd->___fldiv

Critical Paths under _main in BANK0

    None.

Critical Paths under _main in BANK1

    None.

Critical Paths under _main in BANK2

    None.

Critical Paths under _main in BANK3

    None.

Critical Paths under _main in BANK4

    None.

Critical Paths under _main in BANK5

    None.

Critical Paths under _main in BANK6

    None.

Critical Paths under _main in BANK7

    None.

Call Graph Tables:

 ---------------------------------------------------------------------------------
 (Depth) Function   	        Calls       Base Space   Used Autos Params    Refs
 ---------------------------------------------------------------------------------
 (0) _main                                                 3     3      0    4678
                                             63 COMRAM     3     3      0
                         _USART_Init
                  _USART_ReceiveChar
 ---------------------------------------------------------------------------------
 (1) _USART_ReceiveChar                                    0     0      0       0
 ---------------------------------------------------------------------------------
 (1) _USART_Init                                           8     4      4    4611
                                             55 COMRAM     8     4      4
                            ___fladd
                            ___fldiv
                            ___fltol
                           ___xxtofl
 ---------------------------------------------------------------------------------
 (2) ___xxtofl                                            14    10      4     398
                                              0 COMRAM    14    10      4
 ---------------------------------------------------------------------------------
 (2) ___fltol                                             10     6      4     305
                                              0 COMRAM    10     6      4
 ---------------------------------------------------------------------------------
 (2) ___fldiv                                             25    17      8    1399
                                             14 COMRAM    25    17      8
                           ___xxtofl (ARG)
 ---------------------------------------------------------------------------------
 (2) ___fladd                                             16     8      8    2388
                                             39 COMRAM    16     8      8
                            ___fldiv (ARG)
                           ___xxtofl (ARG)
 ---------------------------------------------------------------------------------
 Estimated maximum stack depth 2
 ---------------------------------------------------------------------------------

 Call Graph Graphs:

 _main (ROOT)
   _USART_Init
     ___fladd
       ___fldiv (ARG)
         ___xxtofl (ARG)
       ___xxtofl (ARG)
     ___fldiv
     ___fltol
     ___xxtofl
   _USART_ReceiveChar

 Address spaces:
Name               Size   Autos  Total    Cost      Usage
BITCOMRAM           5F      0       0       0        0.0%
EEDATA             100      0       0       0        0.0%
NULL                 0      0       0       0        0.0%
CODE                 0      0       0       0        0.0%
COMRAM              5F     42      42       1       69.5%
STACK                0      0       0       2        0.0%
DATA                 0      0       0       3        0.0%
BITBANK0            A0      0       0       4        0.0%
BANK0               A0      0       0       5        0.0%
BITBANK1           100      0       0       6        0.0%
BANK1              100      0       0       7        0.0%
BITBANK2           100      0       0       8        0.0%
BANK2              100      0       0       9        0.0%
BITBANK3           100      0       0      10        0.0%
BANK3              100      0       0      11        0.0%
BITBANK4           100      0       0      12        0.0%
BANK4              100      0       0      13        0.0%
BITBANK5           100      0       0      14        0.0%
BANK5              100      0       0      15        0.0%
BITBANK6           100      0       0      16        0.0%
BANK6              100      0       0      17        0.0%
BITBANK7           100      0       0      18        0.0%
BANK7              100      0       0      19        0.0%
BITBIGSFRh          3E      0       0      20        0.0%
BITBIGSFRlhh        11      0       0      21        0.0%
BITBIGSFRlhllh       C      0       0      22        0.0%
BITBIGSFRlhlll       9      0       0      23        0.0%
BITBIGSFRllh         7      0       0      24        0.0%
BITBIGSFRlllh        9      0       0      25        0.0%
BITBIGSFRllll       20      0       0      26        0.0%
ABS                  0      0       0      27        0.0%
BIGRAM             7FF      0       0      28        0.0%
BIGSFR               0      0       0     200        0.0%
BITSFR               0      0       0     200        0.0%
SFR                  0      0       0     200        0.0%


Microchip Technology PIC18 Macro Assembler V2.36 build 20220127204148 
Symbol Table                                                                                   Wed Mar 09 17:21:22 2022

             ___fldiv@aexp 0027               ___fldiv@bexp 0026               ___fldiv@sign 001F  
                       l25 74E4                         l29 74C8                         l54 7448  
                       l63 73A4                         l66 73B4                        l611 7D2E  
                      l620 7FFE                        l612 7D1C                        l380 75F0  
                      l613 7CE2                        l628 7E48                        l637 7F18  
                      l741 77A4                        l638 7F06                        l670 7962  
                      l752 773C                        l665 7B3E                        l745 76E0  
                      l738 7648                        l667 799E                        l676 79E4  
                      l678 7A5C                        l679 7A4A                        u800 73B2  
                      u801 73AE                        u900 7B6C                        u901 7B68  
                      u910 7B7C                        u911 7B78                        u920 7BBE  
                      u921 7BBA                        u930 7BD4                        u931 7BD0  
                      u940 7BE6                        u941 7BE2                        u950 7BF6  
                      u951 7BF2                        u960 7C32                        u961 7C2E  
                      u970 7C40                        u890 7B5A                        u971 7C3C  
                      u891 7B56                        u980 7CAE                        u981 7CAA  
                      u990 7CC6                        u991 7CC0                        wreg 000FE8  
              main@data_in 0042               ___fltol@exp1 000A                       l1300 7C40  
                     l1310 7C54                       l1302 7C44                       l1400 7E9A  
                     l1320 7C68                       l1312 7C58                       l1304 7C48  
                     l1410 7EC6                       l1402 7E9C                       l1330 7C7C  
                     l1322 7C6C                       l1314 7C5C                       l1306 7C4C  
                     l1420 7EFE                       l1404 7EAA                       l1412 7EC8  
                     l1340 7CDA                       l1324 7C70                       l1316 7C60  
                     l1308 7C50                       l1332 7C80                       l1260 7B5C  
                     l1500 78A0                       l1430 7F7C                       l1406 7EB2  
                     l1414 7ED6                       l1350 7D10                       l1342 7CF0  
                     l1334 7C84                       l1326 7C74                       l1318 7C64  
                     l1262 7B6C                       l1270 7B96                       l1254 7B40  
                     l1510 78C8                       l1502 78A4                       l1440 7FC2  
                     l1424 7F28                       l1432 7F7E                       l1416 7EDA  
                     l1408 7EB6                       l1360 7D60                       l1352 7D1A  
                     l1344 7CFC                       l1336 7CAE                       l1328 7C78  
                     l1280 7BC6                       l1272 7BA6                       l1264 7B7C  
                     l1256 7B4C                       l1520 7916                       l1600 7516  
                     l1450 7FEC                       l1442 7FD0                       l1434 7F8E  
                     l1426 7F34                       l1418 7EE8                       l1370 7D9C  
                     l1362 7D70                       l1354 7D3C                       l1346 7D00  
                     l1338 7CCA                       l1290 7C06                       l1282 7BD4  
                     l1274 7BAC                       l1266 7B8C                       l1258 7B5A  
                     l1530 7960                       l1522 7926                       l1514 78DC  
                     l1506 78B8                       l1610 7564                       l1602 7540  
                     l1194 73A4                       l1452 7FEE                       l1444 7FD6  
                     l1436 7F9E                       l1428 7F42                       l1380 7DE2  
                     l1372 7DAA                       l1364 7D7E                       l1356 7D4C  
                     l1348 7D0E                       l1292 7C08                       l1284 7BD6  
                     l1276 7BBE                       l1268 7B8E                       l1540 79AE  
                     l1532 796C                       l1524 792E                       l1516 78F6  
                     l1508 78C8                       l1460 77C0                       l1620 7590  
                     l1604 7542                       l1196 73B2                       l1700 7468  
                     l1446 7FD8                       l1438 7FBE                       l1390 7E5E  
                     l1382 7E16                       l1374 7DAC                       l1366 7D8C  
                     l1286 7BE6                       l1294 7C10                       l1278 7BC0  
                     l1542 79C4                       l1550 79F4                       l1534 798A  
                     l1526 793E                       l1518 7906                       l1470 77F4  
                     l1462 77C2                       l1630 75C0                       l1606 7552  
                     l1710 74A2                       l1702 746C                       l1448 7FDE  
                     l1392 7E6E                       l1384 7E18                       l1376 7DB6  
                     l1368 7D98                       l1296 7C20                       l1288 7BF6  
                     l1552 7A02                       l1544 79CA                       l1536 798C  
                     l1528 7952                       l1480 7826                       l1464 77D2  
                     l1472 77FC                       l1456 77A6                       l1632 75D0  
                     l1616 757C                       l1608 7556                       l1640 7604  
                     l1712 74B4                       l1704 7484                       l1386 7E28  
                     l1378 7DBC                       l1298 7C32                       l1562 7A6C  
                     l1570 7AB4                       l1554 7A06                       l1546 79D4  
                     l1538 799C                       l1490 785A                       l1482 7828  
                     l1474 780C                       l1466 77E2                       l1458 77B2  
                     l1634 75E0                       l1626 75A4                       l1618 7586  
                     l1650 7682                       l1642 7612                       l1714 74C2  
                     l1706 748A                       l1396 7E82                       l1388 7E38  
                     l1580 7B1E                       l1572 7ACE                       l1564 7A78  
                     l1556 7A14                       l1548 79E2                       l1484 7838  
                     l1492 7862                       l1476 7812                       l1468 77F2  
                     l1628 75B0                       l1660 76D6                       l1652 768A  
                     l1644 7658                       l1716 74CA                       l1708 749C  
                     l1398 7E8C                       l1582 7B2C                       l1574 7AE4  
                     l1566 7A86                       l1558 7A42                       l1494 7872  
                     l1486 7848                       l1478 7818                       l1670 774C  
                     l1662 7712                       l1654 7696                       l1646 766E  
                     l1638 75F4                       l1584 7B32                       l1576 7AFE  
                     l1568 7AB0                       l1496 7888                       l1488 7858  
                     l1680 7794                       l1672 7750                       l1664 771E  
                     l1656 76C8                       l1586 7B34                       l1578 7B1A  
                     l1498 7898                       l1594 74EC                       l1674 7774  
                     l1666 772C                       l1658 76CA                       l1690 7444  
                     l1596 7502                       l1676 7784                       l1668 774A  
                     l1684 73B6                       l1692 744A                       l1678 7792  
                     l1686 73BA                       l1694 744E                       l1688 7440  
                     l1696 7462                       l1698 7464                       u1000 7CC8  
                     u1010 7CF0                       u1011 7CEC                       u1100 7E28  
                     u1020 7D0E                       u1101 7E24                       u1021 7D0A  
                     u1110 7E5E                       u1030 7D2E                       u1111 7E5A  
                     u1031 7D2A                       u1200 7F28                       u1120 7E6E  
                     u1040 7D3C                       u1201 7F24                       u1121 7E6A  
                     u1041 7D38                       u1210 7F42                       u1130 7E9A  
                     u1050 7D4C                       u1211 7F3E                       u1131 7E96  
                     u1051 7D48                       u1220 7F7C                       u1140 7EAA  
                     u1060 7D7E                       u1300 77E2                       u1221 7F78  
                     u1141 7EA6                       u1061 7D7A                       u1301 77DE  
                     u1230 7F8E                       u1150 7EC6                       u1070 7D8C  
                     u1310 7826                       u1231 7F8A                       u1151 7EC2  
                     u1071 7D88                       u1311 7822                       u1240 7F9E  
                     u1160 7ED6                       u1080 7DAA                       u1400 79C4  
                     u1320 7838                       u1241 7F9A                       u1161 7ED2  
                     u1081 7DA6                       u1401 79C0                       u1321 7834  
                     u1250 7FBE                       u1170 7EE8                       u1090 7DE2  
                     u1410 79E2                       u1330 7848                       u1251 7FBA  
                     u1171 7EE4                       u1091 7DDE                       u1411 79DE  
                     u1331 7844                       u1260 7FD0                       u1180 7EFE  
                     u1500 7B2C                       u1420 7A02                       u1340 7888  
                     u1261 7FCC                       u1181 7EFA                       u1501 7B28  
                     u1421 79FE                       u1341 7884                       u1270 7FEC  
                     u1190 7F14                       u1430 7A14                       u1350 78C8  
                     u1510 7502                       _LATB 000F8A                       u1271 7FE8  
                     u1191 7F10                       u1431 7A10                       u1351 78C4  
                     u1511 74FE                       u1440 7A42                       u1360 793E  
                     u1280 77C0                       u1520 7536                       u1600 766E  
                     u1441 7A3E                       u1361 793A                       u1281 77BC  
                     u1601 766A                       u1450 7A58                       u1370 7960  
                     u1290 77D2                       u1530 7564                       u1610 76C4  
                     u1451 7A54                       u1371 795C                       u1291 77CE  
                     u1531 7560                       u1611 76C0                       u1460 7A6C  
                     u1380 798A                       u1540 7578                       u1620 770E  
                     u1700 74B4                       u1461 7A68                       u1381 7986  
                     u1541 7574                       u1525 752C                       u1621 770A  
                     u1701 74B0                       u1470 7A86                       u1390 79AE  
                     u1550 75A0                       u1630 772C                       u1710 74C2  
                     u1471 7A82                       u1391 79AA                       u1551 759C  
                     u1631 7728                       u1711 74BE                       u1480 7ACE  
                     u1560 75C0                       u1640 773C                       u1481 7ACA  
                     u1561 75BC                       u1641 7738                       u1490 7AFE  
                     u1570 75D0                       u1650 774A                       u1491 7AFA  
                     u1571 75CC                       u1651 7746                       u1660 7784  
                     u1580 7604                       u1661 7780                       u1581 7600  
                     u1670 7792                       u1590 7612                       u1671 778E  
                     u1591 760E                       u1727 74D4                       u1680 7484  
                     u1681 7480                       u1690 749C                       u1691 7498  
                     _RCIF 007CF5                       _TXIF 007CF4                       _main 744A  
                     start 0000            ___fldiv@new_exp 0020               ___param_bank 000000  
            ___fltol@sign1 0009            __end_of___fladd 8000                      ?_main 0001  
          __end_of___fldiv 7B40            __end_of___fltol 75F2                      _RCREG 000FAE  
                    _RCSTA 000FAB                      _SPBRG 000FAF                      _TRISB 000F93  
                    _TXREG 000FAD                      _TXSTA 000FAC                      status 000FD8  
              ?_USART_Init 0038            __initialization 739E               __end_of_main 74EC  
                   ??_main 0040              __activetblptr 000000                     _ADCON1 000FC1  
                   _TRISC6 007CA6                     _TRISC7 007CA7           __end_of___xxtofl 77A6  
                ??___fladd 0030                  ??___fldiv 0017                  ??___fltol 0005  
                   isa$std 000001               ___xxtofl@arg 000B               ___xxtofl@exp 000A  
             ___xxtofl@val 0001                 __accesstop 0060    __end_of__initialization 739E  
            ___rparam_used 000001                 ___fltol@f1 0001             __pcstackCOMRAM 0001  
                ?___xxtofl 0001               ??_USART_Init 003C                    __Hparam 0000  
                  __Lparam 0000                    ___fladd 7B40                    ___fldiv 77A6  
                  ___fltol 74EC                    __pcinit 739E                    __ramtop 0800  
                  __ptext0 744A                    __ptext1 73A4                    __ptext2 73B6  
                  __ptext3 75F2                    __ptext4 74EC                    __ptext5 77A6  
                  __ptext6 7B40             USART_Init@temp 003C                 ??___xxtofl 0005  
       __end_of_USART_Init 744A       end_of_initialization 739E                  _PORTAbits 000F80  
              ___fladd@grs 0037              ___xxtofl@sign 0009                  _TRISAbits 000F92  
              ___fldiv@grs 0022                ___fldiv@rem 001B        USART_Init@baud_rate 0038  
      start_initialization 739E          _USART_ReceiveChar 73A4         ?_USART_ReceiveChar 0001  
      ??_USART_ReceiveChar 0001                  ___fladd@a 002C                  ___fladd@b 0028  
                ___fldiv@a 0013                  ___fldiv@b 000F  __end_of_USART_ReceiveChar 73B6  
                 ?___fladd 0028                   ?___fldiv 000F                   ?___fltol 0001  
                 _LATBbits 000F8A                   __Hrparam 0000                   __Lrparam 0000  
                 ___xxtofl 75F2                   isa$xinst 000000              ___fladd@signs 0034  
             ___fladd@aexp 0035               ___fladd@bexp 0036                 _USART_Init 73B6  
