

Microchip MPLAB XC8 Assembler V2.36 build 20220127204148 
                                                                                               Wed Mar 09 16:10:44 2022

Microchip MPLAB XC8 C Compiler v2.36 (Free license) build 20220127204148 Og1 
     1                           	processor	18F4550
     2                           	fnconf	rparam,??,?,0
     3                           	pagewidth 120
     4                           	opt	flic
     5                           	psect	cinit,global,reloc=2,class=CODE,delta=1
     6                           	psect	cstackCOMRAM,global,class=COMRAM,space=1,delta=1,lowdata,noexec
     7                           	psect	text0,global,reloc=2,class=CODE,delta=1
     8                           	psect	text1,global,reloc=2,class=CODE,delta=1
     9                           	psect	text2,global,reloc=2,class=CODE,delta=1
    10                           	psect	text3,global,reloc=2,class=CODE,delta=1,group=1
    11                           	psect	text4,global,reloc=2,class=CODE,delta=1,group=1
    12                           	psect	text5,global,reloc=2,class=CODE,delta=1,group=1
    13                           	psect	text6,global,reloc=2,class=CODE,delta=1,group=1
    14                           	psect	text7,global,reloc=2,class=CODE,delta=1
    15                           	psect	text8,global,reloc=2,class=CODE,delta=1
    16                           	psect	intsave_regs,global,class=BIGRAM,space=1,delta=1,noexec
    17                           	psect	rparam,global,class=COMRAM,space=1,delta=1,noexec
    18                           	psect	idloc,global,abs,ovrld,class=IDLOC,space=5,delta=1,noexec
    19                           	psect	config,global,abs,ovrld,class=CONFIG,space=4,delta=1,noexec
    20  0000                     
    21                           ; Version 2.40
    22                           ; Generated 17/11/2021 GMT
    23                           ; 
    24                           ; Copyright © 2021, Microchip Technology Inc. and its subsidiaries ("Microchip")
    25                           ; All rights reserved.
    26                           ; 
    27                           ; This software is developed by Microchip Technology Inc. and its subsidiaries ("Microch
      +                          ip").
    28                           ; 
    29                           ; Redistribution and use in source and binary forms, with or without modification, are
    30                           ; permitted provided that the following conditions are met:
    31                           ; 
    32                           ;     1. Redistributions of source code must retain the above copyright notice, this lis
      +                          t of
    33                           ;        conditions and the following disclaimer.
    34                           ; 
    35                           ;     2. Redistributions in binary form must reproduce the above copyright notice, this 
      +                          list
    36                           ;        of conditions and the following disclaimer in the documentation and/or other
    37                           ;        materials provided with the distribution. Publication is not required when
    38                           ;        this file is used in an embedded application.
    39                           ; 
    40                           ;     3. Microchip's name may not be used to endorse or promote products derived from th
      +                          is
    41                           ;        software without specific prior written permission.
    42                           ; 
    43                           ; THIS SOFTWARE IS PROVIDED BY MICROCHIP "AS IS" AND ANY EXPRESS OR IMPLIED WARRANTIES,
    44                           ; INCLUDING, BUT NOT LIMITED TO, THE IMPLIED WARRANTIES OF MERCHANTABILITY AND FITNESS F
      +                          OR
    45                           ; PURPOSE ARE DISCLAIMED.  IN NO EVENT SHALL MICROCHIP BE LIABLE FOR ANY DIRECT, INDIREC
      +                          T,
    46                           ; INCIDENTAL, SPECIAL, EXEMPLARY, OR CONSEQUENTIAL DAMAGES (INCLUDING BUT NOT LIMITED TO
    47                           ; PROCUREMENT OF SUBSTITUTE GOODS OR SERVICES; LOSS OF USE, DATA OR PROFITS; OR BUSINESS
    48                           ; INTERRUPTION) HOWSOEVER CAUSED AND ON ANY THEORY OF LIABILITY, WHETHER IN CONTRACT, ST
      +                          RICT
    49                           ; LIABILITY, OR TORT (INCLUDING NEGLIGENCE OR OTHERWISE) ARISING IN ANY WAY OUT OF THE U
      +                          SE OF
    50                           ; THIS SOFTWARE, EVEN IF ADVISED OF THE POSSIBILITY OF SUCH DAMAGE.
    51                           ; 
    52                           ; 
    53                           ; Code-generator required, PIC18F4550 Definitions
    54                           ; 
    55                           ; SFR Addresses
    56  0000                     _RCREG	set	4014
    57  0000                     _TXREG	set	4013
    58  0000                     _TRISC6	set	31910
    59  0000                     _PORTDbits	set	3971
    60  0000                     _RCIF	set	31989
    61  0000                     _TRISC7	set	31911
    62  0000                     _PORTBbits	set	3969
    63  0000                     _PORTD	set	3971
    64  0000                     _TRISD	set	3989
    65  0000                     _RCSTA	set	4011
    66  0000                     _TXSTA	set	4012
    67  0000                     _SPBRG	set	4015
    68  0000                     _ADCON1	set	4033
    69  0000                     _TXIF	set	31988
    70  0000                     _TRISB	set	3987
    71                           
    72                           ; #config settings
    73                           
    74                           	psect	cinit
    75  0072AA                     __pcinit:
    76                           	callstack 0
    77  0072AA                     start_initialization:
    78                           	callstack 0
    79  0072AA                     __initialization:
    80                           	callstack 0
    81  0072AA                     end_of_initialization:
    82                           	callstack 0
    83  0072AA                     __end_of__initialization:
    84                           	callstack 0
    85  0072AA  0100               	movlb	0
    86  0072AC  EFAD  F039         	goto	_main	;jump to C main() function
    87                           
    88                           	psect	cstackCOMRAM
    89  000001                     __pcstackCOMRAM:
    90                           	callstack 0
    91  000001                     ?___fltol:
    92                           	callstack 0
    93  000001                     ?___xxtofl:
    94                           	callstack 0
    95  000001                     Key_Press@Key:
    96                           	callstack 0
    97  000001                     USART_TxChar@out:
    98                           	callstack 0
    99  000001                     ___fltol@f1:
   100                           	callstack 0
   101  000001                     ___xxtofl@val:
   102                           	callstack 0
   103                           
   104                           ; 4 bytes @ 0x0
   105  000001                     	ds	4
   106  000005                     ??___fltol:
   107  000005                     ??___xxtofl:
   108                           
   109                           ; 1 bytes @ 0x4
   110  000005                     	ds	4
   111  000009                     ___fltol@sign1:
   112                           	callstack 0
   113  000009                     ___xxtofl@sign:
   114                           	callstack 0
   115                           
   116                           ; 1 bytes @ 0x8
   117  000009                     	ds	1
   118  00000A                     ___fltol@exp1:
   119                           	callstack 0
   120  00000A                     ___xxtofl@exp:
   121                           	callstack 0
   122                           
   123                           ; 1 bytes @ 0x9
   124  00000A                     	ds	1
   125  00000B                     ___xxtofl@arg:
   126                           	callstack 0
   127                           
   128                           ; 4 bytes @ 0xA
   129  00000B                     	ds	4
   130  00000F                     ?___fldiv:
   131                           	callstack 0
   132  00000F                     ___fldiv@b:
   133                           	callstack 0
   134                           
   135                           ; 4 bytes @ 0xE
   136  00000F                     	ds	4
   137  000013                     ___fldiv@a:
   138                           	callstack 0
   139                           
   140                           ; 4 bytes @ 0x12
   141  000013                     	ds	4
   142  000017                     ??___fldiv:
   143                           
   144                           ; 1 bytes @ 0x16
   145  000017                     	ds	4
   146  00001B                     ___fldiv@rem:
   147                           	callstack 0
   148                           
   149                           ; 4 bytes @ 0x1A
   150  00001B                     	ds	4
   151  00001F                     ___fldiv@sign:
   152                           	callstack 0
   153                           
   154                           ; 1 bytes @ 0x1E
   155  00001F                     	ds	1
   156  000020                     ___fldiv@new_exp:
   157                           	callstack 0
   158                           
   159                           ; 2 bytes @ 0x1F
   160  000020                     	ds	2
   161  000022                     ___fldiv@grs:
   162                           	callstack 0
   163                           
   164                           ; 4 bytes @ 0x21
   165  000022                     	ds	4
   166  000026                     ___fldiv@bexp:
   167                           	callstack 0
   168                           
   169                           ; 1 bytes @ 0x25
   170  000026                     	ds	1
   171  000027                     ___fldiv@aexp:
   172                           	callstack 0
   173                           
   174                           ; 1 bytes @ 0x26
   175  000027                     	ds	1
   176  000028                     ?___fladd:
   177                           	callstack 0
   178  000028                     ___fladd@b:
   179                           	callstack 0
   180                           
   181                           ; 4 bytes @ 0x27
   182  000028                     	ds	4
   183  00002C                     ___fladd@a:
   184                           	callstack 0
   185                           
   186                           ; 4 bytes @ 0x2B
   187  00002C                     	ds	4
   188  000030                     ??___fladd:
   189                           
   190                           ; 1 bytes @ 0x2F
   191  000030                     	ds	4
   192  000034                     ___fladd@signs:
   193                           	callstack 0
   194                           
   195                           ; 1 bytes @ 0x33
   196  000034                     	ds	1
   197  000035                     ___fladd@aexp:
   198                           	callstack 0
   199                           
   200                           ; 1 bytes @ 0x34
   201  000035                     	ds	1
   202  000036                     ___fladd@bexp:
   203                           	callstack 0
   204                           
   205                           ; 1 bytes @ 0x35
   206  000036                     	ds	1
   207  000037                     ___fladd@grs:
   208                           	callstack 0
   209                           
   210                           ; 1 bytes @ 0x36
   211  000037                     	ds	1
   212  000038                     USART_Init@baud_rate:
   213                           	callstack 0
   214                           
   215                           ; 4 bytes @ 0x37
   216  000038                     	ds	4
   217  00003C                     USART_Init@temp:
   218                           	callstack 0
   219                           
   220                           ; 4 bytes @ 0x3B
   221  00003C                     	ds	4
   222  000040                     main@auxvalor:
   223                           	callstack 0
   224                           
   225                           ; 1 bytes @ 0x3F
   226  000040                     	ds	1
   227                           
   228 ;;
   229 ;;Main: autosize = 0, tempsize = 0, incstack = 0, save=0
   230 ;;
   231 ;; *************** function _main *****************
   232 ;; Defined at:
   233 ;;		line 20 in file "LED.c"
   234 ;; Parameters:    Size  Location     Type
   235 ;;		None
   236 ;; Auto vars:     Size  Location     Type
   237 ;;  auxvalor        1   63[COMRAM] unsigned char 
   238 ;; Return value:  Size  Location     Type
   239 ;;                  1    wreg      void 
   240 ;; Registers used:
   241 ;;		wreg, status,2, status,0, cstack
   242 ;; Tracked objects:
   243 ;;		On entry : 0/0
   244 ;;		On exit  : 0/0
   245 ;;		Unchanged: 0/0
   246 ;; Data sizes:     COMRAM   BANK0   BANK1   BANK2   BANK3   BANK4   BANK5   BANK6   BANK7
   247 ;;      Params:         0       0       0       0       0       0       0       0       0
   248 ;;      Locals:         1       0       0       0       0       0       0       0       0
   249 ;;      Temps:          0       0       0       0       0       0       0       0       0
   250 ;;      Totals:         1       0       0       0       0       0       0       0       0
   251 ;;Total ram usage:        1 bytes
   252 ;; Hardware stack levels required when called: 2
   253 ;; This function calls:
   254 ;;		_Key_Press
   255 ;;		_Keypad_Init
   256 ;;		_USART_Init
   257 ;;		_USART_TxChar
   258 ;; This function is called by:
   259 ;;		Startup code after reset
   260 ;; This function uses a non-reentrant model
   261 ;;
   262                           
   263                           	psect	text0
   264  00735A                     __ptext0:
   265                           	callstack 0
   266  00735A                     _main:
   267                           	callstack 29
   268  00735A                     
   269                           ;LED.c: 22:     char auxvalor=0;
   270  00735A  0E00               	movlw	0
   271  00735C  6E40               	movwf	main@auxvalor^0,c
   272                           
   273                           ;LED.c: 23:     ADCON1 = 0x0F;
   274  00735E  0E0F               	movlw	15
   275  007360  6EC1               	movwf	193,c	;volatile
   276                           
   277                           ;LED.c: 24:     TRISB = 0x00;
   278  007362  0E00               	movlw	0
   279  007364  6E93               	movwf	147,c	;volatile
   280  007366                     
   281                           ;LED.c: 25:     USART_Init(9600);
   282  007366  0E80               	movlw	128
   283  007368  6E38               	movwf	USART_Init@baud_rate^0,c
   284  00736A  0E25               	movlw	37
   285  00736C  6E39               	movwf	(USART_Init@baud_rate+1)^0,c
   286  00736E  0E00               	movlw	0
   287  007370  6E3A               	movwf	(USART_Init@baud_rate+2)^0,c
   288  007372  0E00               	movlw	0
   289  007374  6E3B               	movwf	(USART_Init@baud_rate+3)^0,c
   290  007376  EC63  F039         	call	_USART_Init	;wreg free
   291  00737A                     
   292                           ;LED.c: 26:     Keypad_Init();
   293  00737A  EC52  F039         	call	_Keypad_Init	;wreg free
   294  00737E                     l1746:
   295                           
   296                           ;LED.c: 28:     if(Key_Press()==1){
   297  00737E  EC00  F03A         	call	_Key_Press	;wreg free
   298  007382  06E8               	decf	wreg,f,c
   299  007384  A4D8               	btfss	status,2,c
   300  007386  EFC7  F039         	goto	u1781
   301  00738A  EFC9  F039         	goto	u1780
   302  00738E                     u1781:
   303  00738E  EFD0  F039         	goto	l1752
   304  007392                     u1780:
   305  007392                     
   306                           ;LED.c: 29:         auxvalor=1;
   307  007392  0E01               	movlw	1
   308  007394  6E40               	movwf	main@auxvalor^0,c
   309  007396                     
   310                           ;LED.c: 30:         USART_TxChar('1');
   311  007396  0E31               	movlw	49
   312  007398  EC58  F039         	call	_USART_TxChar
   313                           
   314                           ;LED.c: 31:     }else if (Key_Press()==2){
   315  00739C  EFF0  F039         	goto	l1764
   316  0073A0                     l1752:
   317  0073A0  EC00  F03A         	call	_Key_Press	;wreg free
   318  0073A4  0A02               	xorlw	2
   319  0073A6  A4D8               	btfss	status,2,c
   320  0073A8  EFD8  F039         	goto	u1791
   321  0073AC  EFDA  F039         	goto	u1790
   322  0073B0                     u1791:
   323  0073B0  EFE1  F039         	goto	l1758
   324  0073B4                     u1790:
   325  0073B4                     
   326                           ;LED.c: 32:         auxvalor=2;
   327  0073B4  0E02               	movlw	2
   328  0073B6  6E40               	movwf	main@auxvalor^0,c
   329  0073B8                     
   330                           ;LED.c: 33:         USART_TxChar('2');
   331  0073B8  0E32               	movlw	50
   332  0073BA  EC58  F039         	call	_USART_TxChar
   333                           
   334                           ;LED.c: 34:     }else if (Key_Press()==3){
   335  0073BE  EFF0  F039         	goto	l1764
   336  0073C2                     l1758:
   337  0073C2  EC00  F03A         	call	_Key_Press	;wreg free
   338  0073C6  0A03               	xorlw	3
   339  0073C8  A4D8               	btfss	status,2,c
   340  0073CA  EFE9  F039         	goto	u1801
   341  0073CE  EFEB  F039         	goto	u1800
   342  0073D2                     u1801:
   343  0073D2  EFF0  F039         	goto	l1764
   344  0073D6                     u1800:
   345  0073D6                     
   346                           ;LED.c: 35:         auxvalor=3;
   347  0073D6  0E03               	movlw	3
   348  0073D8  6E40               	movwf	main@auxvalor^0,c
   349  0073DA                     
   350                           ;LED.c: 36:         USART_TxChar('3');
   351  0073DA  0E33               	movlw	51
   352  0073DC  EC58  F039         	call	_USART_TxChar
   353  0073E0                     l1764:
   354                           
   355                           ;LED.c: 38:     if(auxvalor==1){
   356  0073E0  0440               	decf	main@auxvalor^0,w,c
   357  0073E2  A4D8               	btfss	status,2,c
   358  0073E4  EFF6  F039         	goto	u1811
   359  0073E8  EFF8  F039         	goto	u1810
   360  0073EC                     u1811:
   361  0073EC  EFFB  F039         	goto	l45
   362  0073F0                     u1810:
   363  0073F0                     
   364                           ;LED.c: 39:         PORTBbits.RB0 = 1;
   365  0073F0  8081               	bsf	129,0,c	;volatile
   366                           
   367                           ;LED.c: 40:     }else{
   368  0073F2  EFBF  F039         	goto	l1746
   369  0073F6                     l45:
   370                           
   371                           ;LED.c: 41:         PORTBbits.RB0 = 0;
   372  0073F6  9081               	bcf	129,0,c	;volatile
   373  0073F8  EFBF  F039         	goto	l1746
   374  0073FC  EF00  F000         	goto	start
   375  007400                     __end_of_main:
   376                           	callstack 0
   377                           
   378 ;; *************** function _USART_TxChar *****************
   379 ;; Defined at:
   380 ;;		line 19 in file "USART_Source_File.c"
   381 ;; Parameters:    Size  Location     Type
   382 ;;  out             1    wreg     unsigned char 
   383 ;; Auto vars:     Size  Location     Type
   384 ;;  out             1    0[COMRAM] unsigned char 
   385 ;; Return value:  Size  Location     Type
   386 ;;                  1    wreg      void 
   387 ;; Registers used:
   388 ;;		wreg
   389 ;; Tracked objects:
   390 ;;		On entry : 0/0
   391 ;;		On exit  : 0/0
   392 ;;		Unchanged: 0/0
   393 ;; Data sizes:     COMRAM   BANK0   BANK1   BANK2   BANK3   BANK4   BANK5   BANK6   BANK7
   394 ;;      Params:         0       0       0       0       0       0       0       0       0
   395 ;;      Locals:         1       0       0       0       0       0       0       0       0
   396 ;;      Temps:          0       0       0       0       0       0       0       0       0
   397 ;;      Totals:         1       0       0       0       0       0       0       0       0
   398 ;;Total ram usage:        1 bytes
   399 ;; Hardware stack levels used: 1
   400 ;; This function calls:
   401 ;;		Nothing
   402 ;; This function is called by:
   403 ;;		_main
   404 ;;		_USART_SendString
   405 ;; This function uses a non-reentrant model
   406 ;;
   407                           
   408                           	psect	text1
   409  0072B0                     __ptext1:
   410                           	callstack 0
   411  0072B0                     _USART_TxChar:
   412                           	callstack 30
   413                           
   414                           ;incstack = 0
   415                           ;USART_TxChar@out stored from wreg
   416  0072B0  6E01               	movwf	USART_TxChar@out^0,c
   417  0072B2                     l73:
   418  0072B2  A89E               	btfss	3998,4,c	;volatile
   419  0072B4  EF5E  F039         	goto	u921
   420  0072B8  EF60  F039         	goto	u920
   421  0072BC                     u921:
   422  0072BC  EF59  F039         	goto	l73
   423  0072C0                     u920:
   424  0072C0                     
   425                           ;USART_Source_File.c: 22:         TXREG=out;
   426  0072C0  C001  FFAD         	movff	USART_TxChar@out,4013	;volatile
   427  0072C4  0012               	return		;funcret
   428  0072C6                     __end_of_USART_TxChar:
   429                           	callstack 0
   430                           
   431 ;; *************** function _USART_Init *****************
   432 ;; Defined at:
   433 ;;		line 8 in file "USART_Source_File.c"
   434 ;; Parameters:    Size  Location     Type
   435 ;;  baud_rate       4   55[COMRAM] long 
   436 ;; Auto vars:     Size  Location     Type
   437 ;;  temp            4   59[COMRAM] float 
   438 ;; Return value:  Size  Location     Type
   439 ;;                  1    wreg      void 
   440 ;; Registers used:
   441 ;;		wreg, status,2, status,0, cstack
   442 ;; Tracked objects:
   443 ;;		On entry : 0/0
   444 ;;		On exit  : 0/0
   445 ;;		Unchanged: 0/0
   446 ;; Data sizes:     COMRAM   BANK0   BANK1   BANK2   BANK3   BANK4   BANK5   BANK6   BANK7
   447 ;;      Params:         4       0       0       0       0       0       0       0       0
   448 ;;      Locals:         4       0       0       0       0       0       0       0       0
   449 ;;      Temps:          0       0       0       0       0       0       0       0       0
   450 ;;      Totals:         8       0       0       0       0       0       0       0       0
   451 ;;Total ram usage:        8 bytes
   452 ;; Hardware stack levels used: 1
   453 ;; Hardware stack levels required when called: 1
   454 ;; This function calls:
   455 ;;		___fladd
   456 ;;		___fldiv
   457 ;;		___fltol
   458 ;;		___xxtofl
   459 ;; This function is called by:
   460 ;;		_main
   461 ;; This function uses a non-reentrant model
   462 ;;
   463                           
   464                           	psect	text2
   465  0072C6                     __ptext2:
   466                           	callstack 0
   467  0072C6                     _USART_Init:
   468                           	callstack 29
   469  0072C6                     
   470                           ;USART_Source_File.c: 8: void USART_Init(long baud_rate);USART_Source_File.c: 9: {;USART
      +                          _Source_File.c: 10:     float temp;;USART_Source_File.c: 11:     TRISC6=0;
   471  0072C6  9C94               	bcf	3988,6,c	;volatile
   472                           
   473                           ;USART_Source_File.c: 12:     TRISC7=1;
   474  0072C8  8E94               	bsf	3988,7,c	;volatile
   475  0072CA                     
   476                           ;USART_Source_File.c: 13:     temp=(((float)(8000000/64)/(float)baud_rate)-1);
   477  0072CA  C038  F001         	movff	USART_Init@baud_rate,___xxtofl@val
   478  0072CE  C039  F002         	movff	USART_Init@baud_rate+1,___xxtofl@val+1
   479  0072D2  C03A  F003         	movff	USART_Init@baud_rate+2,___xxtofl@val+2
   480  0072D6  C03B  F004         	movff	USART_Init@baud_rate+3,___xxtofl@val+3
   481  0072DA  0E01               	movlw	1
   482  0072DC  ECF9  F03A         	call	___xxtofl
   483  0072E0  C001  F013         	movff	?___xxtofl,___fldiv@a
   484  0072E4  C002  F014         	movff	?___xxtofl+1,___fldiv@a+1
   485  0072E8  C003  F015         	movff	?___xxtofl+2,___fldiv@a+2
   486  0072EC  C004  F016         	movff	?___xxtofl+3,___fldiv@a+3
   487  0072F0  0E00               	movlw	0
   488  0072F2  6E0F               	movwf	___fldiv@b^0,c
   489  0072F4  0E24               	movlw	36
   490  0072F6  6E10               	movwf	(___fldiv@b+1)^0,c
   491  0072F8  0EF4               	movlw	244
   492  0072FA  6E11               	movwf	(___fldiv@b+2)^0,c
   493  0072FC  0E47               	movlw	71
   494  0072FE  6E12               	movwf	(___fldiv@b+3)^0,c
   495  007300  ECD3  F03B         	call	___fldiv	;wreg free
   496  007304  C00F  F028         	movff	?___fldiv,___fladd@b
   497  007308  C010  F029         	movff	?___fldiv+1,___fladd@b+1
   498  00730C  C011  F02A         	movff	?___fldiv+2,___fladd@b+2
   499  007310  C012  F02B         	movff	?___fldiv+3,___fladd@b+3
   500  007314  0E00               	movlw	0
   501  007316  6E2C               	movwf	___fladd@a^0,c
   502  007318  0E00               	movlw	0
   503  00731A  6E2D               	movwf	(___fladd@a+1)^0,c
   504  00731C  0E80               	movlw	128
   505  00731E  6E2E               	movwf	(___fladd@a+2)^0,c
   506  007320  0EBF               	movlw	191
   507  007322  6E2F               	movwf	(___fladd@a+3)^0,c
   508  007324  ECA0  F03D         	call	___fladd	;wreg free
   509  007328  C028  F03C         	movff	?___fladd,USART_Init@temp
   510  00732C  C029  F03D         	movff	?___fladd+1,USART_Init@temp+1
   511  007330  C02A  F03E         	movff	?___fladd+2,USART_Init@temp+2
   512  007334  C02B  F03F         	movff	?___fladd+3,USART_Init@temp+3
   513                           
   514                           ;USART_Source_File.c: 14:     SPBRG=(int)temp;
   515  007338  C03C  F001         	movff	USART_Init@temp,___fltol@f1
   516  00733C  C03D  F002         	movff	USART_Init@temp+1,___fltol@f1+1
   517  007340  C03E  F003         	movff	USART_Init@temp+2,___fltol@f1+2
   518  007344  C03F  F004         	movff	USART_Init@temp+3,___fltol@f1+3
   519  007348  EC76  F03A         	call	___fltol	;wreg free
   520  00734C  5001               	movf	?___fltol^0,w,c
   521  00734E  6EAF               	movwf	175,c	;volatile
   522  007350                     
   523                           ;USART_Source_File.c: 15:     TXSTA=0x20;
   524  007350  0E20               	movlw	32
   525  007352  6EAC               	movwf	172,c	;volatile
   526  007354                     
   527                           ;USART_Source_File.c: 16:     RCSTA=0x90;
   528  007354  0E90               	movlw	144
   529  007356  6EAB               	movwf	171,c	;volatile
   530  007358  0012               	return		;funcret
   531  00735A                     __end_of_USART_Init:
   532                           	callstack 0
   533                           
   534 ;; *************** function ___xxtofl *****************
   535 ;; Defined at:
   536 ;;		line 10 in file "D:\mplab\pic\sources\c99\common\xxtofl.c"
   537 ;; Parameters:    Size  Location     Type
   538 ;;  sign            1    wreg     unsigned char 
   539 ;;  val             4    0[COMRAM] long 
   540 ;; Auto vars:     Size  Location     Type
   541 ;;  sign            1    8[COMRAM] unsigned char 
   542 ;;  arg             4   10[COMRAM] unsigned long 
   543 ;;  exp             1    9[COMRAM] unsigned char 
   544 ;; Return value:  Size  Location     Type
   545 ;;                  4    0[COMRAM] unsigned char 
   546 ;; Registers used:
   547 ;;		wreg, status,2, status,0
   548 ;; Tracked objects:
   549 ;;		On entry : 0/0
   550 ;;		On exit  : 0/0
   551 ;;		Unchanged: 0/0
   552 ;; Data sizes:     COMRAM   BANK0   BANK1   BANK2   BANK3   BANK4   BANK5   BANK6   BANK7
   553 ;;      Params:         4       0       0       0       0       0       0       0       0
   554 ;;      Locals:         6       0       0       0       0       0       0       0       0
   555 ;;      Temps:          4       0       0       0       0       0       0       0       0
   556 ;;      Totals:        14       0       0       0       0       0       0       0       0
   557 ;;Total ram usage:       14 bytes
   558 ;; Hardware stack levels used: 1
   559 ;; This function calls:
   560 ;;		Nothing
   561 ;; This function is called by:
   562 ;;		_USART_Init
   563 ;; This function uses a non-reentrant model
   564 ;;
   565                           
   566                           	psect	text3
   567  0075F2                     __ptext3:
   568                           	callstack 0
   569  0075F2                     ___xxtofl:
   570                           	callstack 29
   571                           
   572                           ;incstack = 0
   573                           ;___xxtofl@sign stored from wreg
   574  0075F2  6E09               	movwf	___xxtofl@sign^0,c
   575  0075F4  5009               	movf	___xxtofl@sign^0,w,c
   576  0075F6  B4D8               	btfsc	status,2,c
   577  0075F8  EF00  F03B         	goto	u1681
   578  0075FC  EF02  F03B         	goto	u1680
   579  007600                     u1681:
   580  007600  EF24  F03B         	goto	l746
   581  007604                     u1680:
   582  007604  BE04               	btfsc	(___xxtofl@val+3)^0,7,c
   583  007606  EF09  F03B         	goto	u1690
   584  00760A  EF07  F03B         	goto	u1691
   585  00760E                     u1691:
   586  00760E  EF24  F03B         	goto	l746
   587  007612                     u1690:
   588  007612  C001  F005         	movff	___xxtofl@val,??___xxtofl
   589  007616  C002  F006         	movff	___xxtofl@val+1,??___xxtofl+1
   590  00761A  C003  F007         	movff	___xxtofl@val+2,??___xxtofl+2
   591  00761E  C004  F008         	movff	___xxtofl@val+3,??___xxtofl+3
   592  007622  1E05               	comf	??___xxtofl^0,f,c
   593  007624  1E06               	comf	(??___xxtofl+1)^0,f,c
   594  007626  1E07               	comf	(??___xxtofl+2)^0,f,c
   595  007628  1E08               	comf	(??___xxtofl+3)^0,f,c
   596  00762A  2A05               	incf	??___xxtofl^0,f,c
   597  00762C  0E00               	movlw	0
   598  00762E  2206               	addwfc	(??___xxtofl+1)^0,f,c
   599  007630  2207               	addwfc	(??___xxtofl+2)^0,f,c
   600  007632  2208               	addwfc	(??___xxtofl+3)^0,f,c
   601  007634  C005  F00B         	movff	??___xxtofl,___xxtofl@arg
   602  007638  C006  F00C         	movff	??___xxtofl+1,___xxtofl@arg+1
   603  00763C  C007  F00D         	movff	??___xxtofl+2,___xxtofl@arg+2
   604  007640  C008  F00E         	movff	??___xxtofl+3,___xxtofl@arg+3
   605  007644  EF2C  F03B         	goto	l1692
   606  007648                     l746:
   607  007648  C001  F00B         	movff	___xxtofl@val,___xxtofl@arg
   608  00764C  C002  F00C         	movff	___xxtofl@val+1,___xxtofl@arg+1
   609  007650  C003  F00D         	movff	___xxtofl@val+2,___xxtofl@arg+2
   610  007654  C004  F00E         	movff	___xxtofl@val+3,___xxtofl@arg+3
   611  007658                     l1692:
   612  007658  5001               	movf	___xxtofl@val^0,w,c
   613  00765A  1002               	iorwf	(___xxtofl@val+1)^0,w,c
   614  00765C  1003               	iorwf	(___xxtofl@val+2)^0,w,c
   615  00765E  1004               	iorwf	(___xxtofl@val+3)^0,w,c
   616  007660  A4D8               	btfss	status,2,c
   617  007662  EF35  F03B         	goto	u1701
   618  007666  EF37  F03B         	goto	u1700
   619  00766A                     u1701:
   620  00766A  EF41  F03B         	goto	l1698
   621  00766E                     u1700:
   622  00766E  0E00               	movlw	0
   623  007670  6E01               	movwf	?___xxtofl^0,c
   624  007672  0E00               	movlw	0
   625  007674  6E02               	movwf	(?___xxtofl+1)^0,c
   626  007676  0E00               	movlw	0
   627  007678  6E03               	movwf	(?___xxtofl+2)^0,c
   628  00767A  0E00               	movlw	0
   629  00767C  6E04               	movwf	(?___xxtofl+3)^0,c
   630  00767E  EFD2  F03B         	goto	l749
   631  007682                     l1698:
   632  007682  0E96               	movlw	150
   633  007684  6E0A               	movwf	___xxtofl@exp^0,c
   634  007686  EF4B  F03B         	goto	l1702
   635  00768A                     l1700:
   636  00768A  2A0A               	incf	___xxtofl@exp^0,f,c
   637  00768C  90D8               	bcf	status,0,c
   638  00768E  320E               	rrcf	(___xxtofl@arg+3)^0,f,c
   639  007690  320D               	rrcf	(___xxtofl@arg+2)^0,f,c
   640  007692  320C               	rrcf	(___xxtofl@arg+1)^0,f,c
   641  007694  320B               	rrcf	___xxtofl@arg^0,f,c
   642  007696                     l1702:
   643  007696  0E00               	movlw	0
   644  007698  140B               	andwf	___xxtofl@arg^0,w,c
   645  00769A  6E05               	movwf	??___xxtofl^0,c
   646  00769C  0E00               	movlw	0
   647  00769E  140C               	andwf	(___xxtofl@arg+1)^0,w,c
   648  0076A0  6E06               	movwf	(??___xxtofl+1)^0,c
   649  0076A2  0E00               	movlw	0
   650  0076A4  140D               	andwf	(___xxtofl@arg+2)^0,w,c
   651  0076A6  6E07               	movwf	(??___xxtofl+2)^0,c
   652  0076A8  0EFE               	movlw	254
   653  0076AA  140E               	andwf	(___xxtofl@arg+3)^0,w,c
   654  0076AC  6E08               	movwf	(??___xxtofl+3)^0,c
   655  0076AE  5005               	movf	??___xxtofl^0,w,c
   656  0076B0  1006               	iorwf	(??___xxtofl+1)^0,w,c
   657  0076B2  1007               	iorwf	(??___xxtofl+2)^0,w,c
   658  0076B4  1008               	iorwf	(??___xxtofl+3)^0,w,c
   659  0076B6  A4D8               	btfss	status,2,c
   660  0076B8  EF60  F03B         	goto	u1711
   661  0076BC  EF62  F03B         	goto	u1710
   662  0076C0                     u1711:
   663  0076C0  EF45  F03B         	goto	l1700
   664  0076C4                     u1710:
   665  0076C4  EF70  F03B         	goto	l753
   666  0076C8                     l1704:
   667  0076C8  2A0A               	incf	___xxtofl@exp^0,f,c
   668  0076CA  0E01               	movlw	1
   669  0076CC  260B               	addwf	___xxtofl@arg^0,f,c
   670  0076CE  0E00               	movlw	0
   671  0076D0  220C               	addwfc	(___xxtofl@arg+1)^0,f,c
   672  0076D2  220D               	addwfc	(___xxtofl@arg+2)^0,f,c
   673  0076D4  220E               	addwfc	(___xxtofl@arg+3)^0,f,c
   674  0076D6  90D8               	bcf	status,0,c
   675  0076D8  320E               	rrcf	(___xxtofl@arg+3)^0,f,c
   676  0076DA  320D               	rrcf	(___xxtofl@arg+2)^0,f,c
   677  0076DC  320C               	rrcf	(___xxtofl@arg+1)^0,f,c
   678  0076DE  320B               	rrcf	___xxtofl@arg^0,f,c
   679  0076E0                     l753:
   680  0076E0  0E00               	movlw	0
   681  0076E2  140B               	andwf	___xxtofl@arg^0,w,c
   682  0076E4  6E05               	movwf	??___xxtofl^0,c
   683  0076E6  0E00               	movlw	0
   684  0076E8  140C               	andwf	(___xxtofl@arg+1)^0,w,c
   685  0076EA  6E06               	movwf	(??___xxtofl+1)^0,c
   686  0076EC  0E00               	movlw	0
   687  0076EE  140D               	andwf	(___xxtofl@arg+2)^0,w,c
   688  0076F0  6E07               	movwf	(??___xxtofl+2)^0,c
   689  0076F2  0EFF               	movlw	255
   690  0076F4  140E               	andwf	(___xxtofl@arg+3)^0,w,c
   691  0076F6  6E08               	movwf	(??___xxtofl+3)^0,c
   692  0076F8  5005               	movf	??___xxtofl^0,w,c
   693  0076FA  1006               	iorwf	(??___xxtofl+1)^0,w,c
   694  0076FC  1007               	iorwf	(??___xxtofl+2)^0,w,c
   695  0076FE  1008               	iorwf	(??___xxtofl+3)^0,w,c
   696  007700  A4D8               	btfss	status,2,c
   697  007702  EF85  F03B         	goto	u1721
   698  007706  EF87  F03B         	goto	u1720
   699  00770A                     u1721:
   700  00770A  EF64  F03B         	goto	l1704
   701  00770E                     u1720:
   702  00770E  EF8F  F03B         	goto	l1712
   703  007712                     l1710:
   704  007712  060A               	decf	___xxtofl@exp^0,f,c
   705  007714  90D8               	bcf	status,0,c
   706  007716  360B               	rlcf	___xxtofl@arg^0,f,c
   707  007718  360C               	rlcf	(___xxtofl@arg+1)^0,f,c
   708  00771A  360D               	rlcf	(___xxtofl@arg+2)^0,f,c
   709  00771C  360E               	rlcf	(___xxtofl@arg+3)^0,f,c
   710  00771E                     l1712:
   711  00771E  BE0D               	btfsc	(___xxtofl@arg+2)^0,7,c
   712  007720  EF94  F03B         	goto	u1731
   713  007724  EF96  F03B         	goto	u1730
   714  007728                     u1731:
   715  007728  EF9E  F03B         	goto	l760
   716  00772C                     u1730:
   717  00772C  0E02               	movlw	2
   718  00772E  600A               	cpfslt	___xxtofl@exp^0,c
   719  007730  EF9C  F03B         	goto	u1741
   720  007734  EF9E  F03B         	goto	u1740
   721  007738                     u1741:
   722  007738  EF89  F03B         	goto	l1710
   723  00773C                     u1740:
   724  00773C                     l760:
   725  00773C  B00A               	btfsc	___xxtofl@exp^0,0,c
   726  00773E  EFA3  F03B         	goto	u1751
   727  007742  EFA5  F03B         	goto	u1750
   728  007746                     u1751:
   729  007746  EFA6  F03B         	goto	l1718
   730  00774A                     u1750:
   731  00774A  9E0D               	bcf	(___xxtofl@arg+2)^0,7,c
   732  00774C                     l1718:
   733  00774C  90D8               	bcf	status,0,c
   734  00774E  320A               	rrcf	___xxtofl@exp^0,f,c
   735  007750  C00A  F005         	movff	___xxtofl@exp,??___xxtofl
   736  007754  6A06               	clrf	(??___xxtofl+1)^0,c
   737  007756  6A07               	clrf	(??___xxtofl+2)^0,c
   738  007758  6A08               	clrf	(??___xxtofl+3)^0,c
   739  00775A  C005  F008         	movff	??___xxtofl,??___xxtofl+3
   740  00775E  6A07               	clrf	(??___xxtofl+2)^0,c
   741  007760  6A06               	clrf	(??___xxtofl+1)^0,c
   742  007762  6A05               	clrf	??___xxtofl^0,c
   743  007764  5005               	movf	??___xxtofl^0,w,c
   744  007766  120B               	iorwf	___xxtofl@arg^0,f,c
   745  007768  5006               	movf	(??___xxtofl+1)^0,w,c
   746  00776A  120C               	iorwf	(___xxtofl@arg+1)^0,f,c
   747  00776C  5007               	movf	(??___xxtofl+2)^0,w,c
   748  00776E  120D               	iorwf	(___xxtofl@arg+2)^0,f,c
   749  007770  5008               	movf	(??___xxtofl+3)^0,w,c
   750  007772  120E               	iorwf	(___xxtofl@arg+3)^0,f,c
   751  007774  5009               	movf	___xxtofl@sign^0,w,c
   752  007776  B4D8               	btfsc	status,2,c
   753  007778  EFC0  F03B         	goto	u1761
   754  00777C  EFC2  F03B         	goto	u1760
   755  007780                     u1761:
   756  007780  EFCA  F03B         	goto	l1728
   757  007784                     u1760:
   758  007784  BE04               	btfsc	(___xxtofl@val+3)^0,7,c
   759  007786  EFC9  F03B         	goto	u1770
   760  00778A  EFC7  F03B         	goto	u1771
   761  00778E                     u1771:
   762  00778E  EFCA  F03B         	goto	l1728
   763  007792                     u1770:
   764  007792  8E0E               	bsf	(___xxtofl@arg+3)^0,7,c
   765  007794                     l1728:
   766  007794  C00B  F001         	movff	___xxtofl@arg,?___xxtofl
   767  007798  C00C  F002         	movff	___xxtofl@arg+1,?___xxtofl+1
   768  00779C  C00D  F003         	movff	___xxtofl@arg+2,?___xxtofl+2
   769  0077A0  C00E  F004         	movff	___xxtofl@arg+3,?___xxtofl+3
   770  0077A4                     l749:
   771  0077A4  0012               	return		;funcret
   772  0077A6                     __end_of___xxtofl:
   773                           	callstack 0
   774                           
   775 ;; *************** function ___fltol *****************
   776 ;; Defined at:
   777 ;;		line 43 in file "D:\mplab\pic\sources\c99\common\fltol.c"
   778 ;; Parameters:    Size  Location     Type
   779 ;;  f1              4    0[COMRAM] unsigned char 
   780 ;; Auto vars:     Size  Location     Type
   781 ;;  exp1            1    9[COMRAM] unsigned char 
   782 ;;  sign1           1    8[COMRAM] unsigned char 
   783 ;; Return value:  Size  Location     Type
   784 ;;                  4    0[COMRAM] long 
   785 ;; Registers used:
   786 ;;		wreg, status,2, status,0
   787 ;; Tracked objects:
   788 ;;		On entry : 0/0
   789 ;;		On exit  : 0/0
   790 ;;		Unchanged: 0/0
   791 ;; Data sizes:     COMRAM   BANK0   BANK1   BANK2   BANK3   BANK4   BANK5   BANK6   BANK7
   792 ;;      Params:         4       0       0       0       0       0       0       0       0
   793 ;;      Locals:         2       0       0       0       0       0       0       0       0
   794 ;;      Temps:          4       0       0       0       0       0       0       0       0
   795 ;;      Totals:        10       0       0       0       0       0       0       0       0
   796 ;;Total ram usage:       10 bytes
   797 ;; Hardware stack levels used: 1
   798 ;; This function calls:
   799 ;;		Nothing
   800 ;; This function is called by:
   801 ;;		_USART_Init
   802 ;; This function uses a non-reentrant model
   803 ;;
   804                           
   805                           	psect	text4
   806  0074EC                     __ptext4:
   807                           	callstack 0
   808  0074EC                     ___fltol:
   809                           	callstack 29
   810  0074EC  3403               	rlcf	(___fltol@f1+2)^0,w,c
   811  0074EE  3404               	rlcf	(___fltol@f1+3)^0,w,c
   812  0074F0  6E0A               	movwf	___fltol@exp1^0,c
   813  0074F2  500A               	movf	___fltol@exp1^0,w,c
   814  0074F4  A4D8               	btfss	status,2,c
   815  0074F6  EF7F  F03A         	goto	u1611
   816  0074FA  EF81  F03A         	goto	u1610
   817  0074FE                     u1611:
   818  0074FE  EF8B  F03A         	goto	l1648
   819  007502                     u1610:
   820  007502                     l1644:
   821  007502  0E00               	movlw	0
   822  007504  6E01               	movwf	?___fltol^0,c
   823  007506  0E00               	movlw	0
   824  007508  6E02               	movwf	(?___fltol+1)^0,c
   825  00750A  0E00               	movlw	0
   826  00750C  6E03               	movwf	(?___fltol+2)^0,c
   827  00750E  0E00               	movlw	0
   828  007510  6E04               	movwf	(?___fltol+3)^0,c
   829  007512  EFF8  F03A         	goto	l388
   830  007516                     l1648:
   831  007516  C001  F005         	movff	___fltol@f1,??___fltol
   832  00751A  C002  F006         	movff	___fltol@f1+1,??___fltol+1
   833  00751E  C003  F007         	movff	___fltol@f1+2,??___fltol+2
   834  007522  C004  F008         	movff	___fltol@f1+3,??___fltol+3
   835  007526  0E20               	movlw	32
   836  007528  EF9B  F03A         	goto	u1620
   837  00752C                     u1625:
   838  00752C  90D8               	bcf	status,0,c
   839  00752E  3208               	rrcf	(??___fltol+3)^0,f,c
   840  007530  3207               	rrcf	(??___fltol+2)^0,f,c
   841  007532  3206               	rrcf	(??___fltol+1)^0,f,c
   842  007534  3205               	rrcf	??___fltol^0,f,c
   843  007536                     u1620:
   844  007536  2EE8               	decfsz	wreg,f,c
   845  007538  EF96  F03A         	goto	u1625
   846  00753C  5005               	movf	??___fltol^0,w,c
   847  00753E  6E09               	movwf	___fltol@sign1^0,c
   848  007540  8E03               	bsf	(___fltol@f1+2)^0,7,c
   849  007542  0EFF               	movlw	255
   850  007544  1601               	andwf	___fltol@f1^0,f,c
   851  007546  0EFF               	movlw	255
   852  007548  1602               	andwf	(___fltol@f1+1)^0,f,c
   853  00754A  0EFF               	movlw	255
   854  00754C  1603               	andwf	(___fltol@f1+2)^0,f,c
   855  00754E  0E00               	movlw	0
   856  007550  1604               	andwf	(___fltol@f1+3)^0,f,c
   857  007552  0E96               	movlw	150
   858  007554  5E0A               	subwf	___fltol@exp1^0,f,c
   859  007556  BE0A               	btfsc	___fltol@exp1^0,7,c
   860  007558  EFB2  F03A         	goto	u1630
   861  00755C  EFB0  F03A         	goto	u1631
   862  007560                     u1631:
   863  007560  EFC8  F03A         	goto	l1668
   864  007564                     u1630:
   865  007564  500A               	movf	___fltol@exp1^0,w,c
   866  007566  0A80               	xorlw	128
   867  007568  0F97               	addlw	151
   868  00756A  B0D8               	btfsc	status,0,c
   869  00756C  EFBA  F03A         	goto	u1641
   870  007570  EFBC  F03A         	goto	u1640
   871  007574                     u1641:
   872  007574  EFBE  F03A         	goto	l1664
   873  007578                     u1640:
   874  007578  EF81  F03A         	goto	l1644
   875  00757C                     l1664:
   876  00757C  90D8               	bcf	status,0,c
   877  00757E  3204               	rrcf	(___fltol@f1+3)^0,f,c
   878  007580  3203               	rrcf	(___fltol@f1+2)^0,f,c
   879  007582  3202               	rrcf	(___fltol@f1+1)^0,f,c
   880  007584  3201               	rrcf	___fltol@f1^0,f,c
   881  007586  3E0A               	incfsz	___fltol@exp1^0,f,c
   882  007588  EFBE  F03A         	goto	l1664
   883  00758C  EFE0  F03A         	goto	l1678
   884  007590                     l1668:
   885  007590  0E1F               	movlw	31
   886  007592  640A               	cpfsgt	___fltol@exp1^0,c
   887  007594  EFCE  F03A         	goto	u1651
   888  007598  EFD0  F03A         	goto	u1650
   889  00759C                     u1651:
   890  00759C  EFD8  F03A         	goto	l1676
   891  0075A0                     u1650:
   892  0075A0  EF81  F03A         	goto	l1644
   893  0075A4                     l1674:
   894  0075A4  90D8               	bcf	status,0,c
   895  0075A6  3601               	rlcf	___fltol@f1^0,f,c
   896  0075A8  3602               	rlcf	(___fltol@f1+1)^0,f,c
   897  0075AA  3603               	rlcf	(___fltol@f1+2)^0,f,c
   898  0075AC  3604               	rlcf	(___fltol@f1+3)^0,f,c
   899  0075AE  060A               	decf	___fltol@exp1^0,f,c
   900  0075B0                     l1676:
   901  0075B0  500A               	movf	___fltol@exp1^0,w,c
   902  0075B2  A4D8               	btfss	status,2,c
   903  0075B4  EFDE  F03A         	goto	u1661
   904  0075B8  EFE0  F03A         	goto	u1660
   905  0075BC                     u1661:
   906  0075BC  EFD2  F03A         	goto	l1674
   907  0075C0                     u1660:
   908  0075C0                     l1678:
   909  0075C0  5009               	movf	___fltol@sign1^0,w,c
   910  0075C2  B4D8               	btfsc	status,2,c
   911  0075C4  EFE6  F03A         	goto	u1671
   912  0075C8  EFE8  F03A         	goto	u1670
   913  0075CC                     u1671:
   914  0075CC  EFF0  F03A         	goto	l1682
   915  0075D0                     u1670:
   916  0075D0  1E04               	comf	(___fltol@f1+3)^0,f,c
   917  0075D2  1E03               	comf	(___fltol@f1+2)^0,f,c
   918  0075D4  1E02               	comf	(___fltol@f1+1)^0,f,c
   919  0075D6  6C01               	negf	___fltol@f1^0,c
   920  0075D8  0E00               	movlw	0
   921  0075DA  2202               	addwfc	(___fltol@f1+1)^0,f,c
   922  0075DC  2203               	addwfc	(___fltol@f1+2)^0,f,c
   923  0075DE  2204               	addwfc	(___fltol@f1+3)^0,f,c
   924  0075E0                     l1682:
   925  0075E0  C001  F001         	movff	___fltol@f1,?___fltol
   926  0075E4  C002  F002         	movff	___fltol@f1+1,?___fltol+1
   927  0075E8  C003  F003         	movff	___fltol@f1+2,?___fltol+2
   928  0075EC  C004  F004         	movff	___fltol@f1+3,?___fltol+3
   929  0075F0                     l388:
   930  0075F0  0012               	return		;funcret
   931  0075F2                     __end_of___fltol:
   932                           	callstack 0
   933                           
   934 ;; *************** function ___fldiv *****************
   935 ;; Defined at:
   936 ;;		line 11 in file "D:\mplab\pic\sources\c99\common\sprcdiv.c"
   937 ;; Parameters:    Size  Location     Type
   938 ;;  b               4   14[COMRAM] long 
   939 ;;  a               4   18[COMRAM] long 
   940 ;; Auto vars:     Size  Location     Type
   941 ;;  grs             4   33[COMRAM] unsigned long 
   942 ;;  rem             4   26[COMRAM] unsigned long 
   943 ;;  new_exp         2   31[COMRAM] short 
   944 ;;  aexp            1   38[COMRAM] unsigned char 
   945 ;;  bexp            1   37[COMRAM] unsigned char 
   946 ;;  sign            1   30[COMRAM] unsigned char 
   947 ;; Return value:  Size  Location     Type
   948 ;;                  4   14[COMRAM] unsigned char 
   949 ;; Registers used:
   950 ;;		wreg, status,2, status,0
   951 ;; Tracked objects:
   952 ;;		On entry : 0/0
   953 ;;		On exit  : 0/0
   954 ;;		Unchanged: 0/0
   955 ;; Data sizes:     COMRAM   BANK0   BANK1   BANK2   BANK3   BANK4   BANK5   BANK6   BANK7
   956 ;;      Params:         8       0       0       0       0       0       0       0       0
   957 ;;      Locals:        13       0       0       0       0       0       0       0       0
   958 ;;      Temps:          4       0       0       0       0       0       0       0       0
   959 ;;      Totals:        25       0       0       0       0       0       0       0       0
   960 ;;Total ram usage:       25 bytes
   961 ;; Hardware stack levels used: 1
   962 ;; This function calls:
   963 ;;		Nothing
   964 ;; This function is called by:
   965 ;;		_USART_Init
   966 ;; This function uses a non-reentrant model
   967 ;;
   968                           
   969                           	psect	text5
   970  0077A6                     __ptext5:
   971                           	callstack 0
   972  0077A6                     ___fldiv:
   973                           	callstack 29
   974  0077A6  5012               	movf	(___fldiv@b+3)^0,w,c
   975  0077A8  0B80               	andlw	128
   976  0077AA  6E1F               	movwf	___fldiv@sign^0,c
   977  0077AC  5012               	movf	(___fldiv@b+3)^0,w,c
   978  0077AE  2412               	addwf	(___fldiv@b+3)^0,w,c
   979  0077B0  6E26               	movwf	___fldiv@bexp^0,c
   980  0077B2  AE11               	btfss	(___fldiv@b+2)^0,7,c
   981  0077B4  EFDE  F03B         	goto	u1381
   982  0077B8  EFE0  F03B         	goto	u1380
   983  0077BC                     u1381:
   984  0077BC  EFE1  F03B         	goto	l1510
   985  0077C0                     u1380:
   986  0077C0  8026               	bsf	___fldiv@bexp^0,0,c
   987  0077C2                     l1510:
   988  0077C2  5026               	movf	___fldiv@bexp^0,w,c
   989  0077C4  B4D8               	btfsc	status,2,c
   990  0077C6  EFE7  F03B         	goto	u1391
   991  0077CA  EFE9  F03B         	goto	u1390
   992  0077CE                     u1391:
   993  0077CE  EFFE  F03B         	goto	l1520
   994  0077D2                     u1390:
   995  0077D2  2826               	incf	___fldiv@bexp^0,w,c
   996  0077D4  A4D8               	btfss	status,2,c
   997  0077D6  EFEF  F03B         	goto	u1401
   998  0077DA  EFF1  F03B         	goto	u1400
   999  0077DE                     u1401:
  1000  0077DE  EFF9  F03B         	goto	l1516
  1001  0077E2                     u1400:
  1002  0077E2  0E00               	movlw	0
  1003  0077E4  6E0F               	movwf	___fldiv@b^0,c
  1004  0077E6  0E00               	movlw	0
  1005  0077E8  6E10               	movwf	(___fldiv@b+1)^0,c
  1006  0077EA  0E00               	movlw	0
  1007  0077EC  6E11               	movwf	(___fldiv@b+2)^0,c
  1008  0077EE  0E00               	movlw	0
  1009  0077F0  6E12               	movwf	(___fldiv@b+3)^0,c
  1010  0077F2                     l1516:
  1011  0077F2  8E11               	bsf	(___fldiv@b+2)^0,7,c
  1012  0077F4  0E00               	movlw	0
  1013  0077F6  6E12               	movwf	(___fldiv@b+3)^0,c
  1014  0077F8  EF06  F03C         	goto	l1522
  1015  0077FC                     l1520:
  1016  0077FC  0E00               	movlw	0
  1017  0077FE  6E0F               	movwf	___fldiv@b^0,c
  1018  007800  0E00               	movlw	0
  1019  007802  6E10               	movwf	(___fldiv@b+1)^0,c
  1020  007804  0E00               	movlw	0
  1021  007806  6E11               	movwf	(___fldiv@b+2)^0,c
  1022  007808  0E00               	movlw	0
  1023  00780A  6E12               	movwf	(___fldiv@b+3)^0,c
  1024  00780C                     l1522:
  1025  00780C  5016               	movf	(___fldiv@a+3)^0,w,c
  1026  00780E  0B80               	andlw	128
  1027  007810  1A1F               	xorwf	___fldiv@sign^0,f,c
  1028  007812  5016               	movf	(___fldiv@a+3)^0,w,c
  1029  007814  2416               	addwf	(___fldiv@a+3)^0,w,c
  1030  007816  6E27               	movwf	___fldiv@aexp^0,c
  1031  007818  AE15               	btfss	(___fldiv@a+2)^0,7,c
  1032  00781A  EF11  F03C         	goto	u1411
  1033  00781E  EF13  F03C         	goto	u1410
  1034  007822                     u1411:
  1035  007822  EF14  F03C         	goto	l1530
  1036  007826                     u1410:
  1037  007826  8027               	bsf	___fldiv@aexp^0,0,c
  1038  007828                     l1530:
  1039  007828  5027               	movf	___fldiv@aexp^0,w,c
  1040  00782A  B4D8               	btfsc	status,2,c
  1041  00782C  EF1A  F03C         	goto	u1421
  1042  007830  EF1C  F03C         	goto	u1420
  1043  007834                     u1421:
  1044  007834  EF31  F03C         	goto	l1540
  1045  007838                     u1420:
  1046  007838  2827               	incf	___fldiv@aexp^0,w,c
  1047  00783A  A4D8               	btfss	status,2,c
  1048  00783C  EF22  F03C         	goto	u1431
  1049  007840  EF24  F03C         	goto	u1430
  1050  007844                     u1431:
  1051  007844  EF2C  F03C         	goto	l1536
  1052  007848                     u1430:
  1053  007848  0E00               	movlw	0
  1054  00784A  6E13               	movwf	___fldiv@a^0,c
  1055  00784C  0E00               	movlw	0
  1056  00784E  6E14               	movwf	(___fldiv@a+1)^0,c
  1057  007850  0E00               	movlw	0
  1058  007852  6E15               	movwf	(___fldiv@a+2)^0,c
  1059  007854  0E00               	movlw	0
  1060  007856  6E16               	movwf	(___fldiv@a+3)^0,c
  1061  007858                     l1536:
  1062  007858  8E15               	bsf	(___fldiv@a+2)^0,7,c
  1063  00785A  0E00               	movlw	0
  1064  00785C  6E16               	movwf	(___fldiv@a+3)^0,c
  1065  00785E  EF39  F03C         	goto	l1542
  1066  007862                     l1540:
  1067  007862  0E00               	movlw	0
  1068  007864  6E13               	movwf	___fldiv@a^0,c
  1069  007866  0E00               	movlw	0
  1070  007868  6E14               	movwf	(___fldiv@a+1)^0,c
  1071  00786A  0E00               	movlw	0
  1072  00786C  6E15               	movwf	(___fldiv@a+2)^0,c
  1073  00786E  0E00               	movlw	0
  1074  007870  6E16               	movwf	(___fldiv@a+3)^0,c
  1075  007872                     l1542:
  1076  007872  5013               	movf	___fldiv@a^0,w,c
  1077  007874  1014               	iorwf	(___fldiv@a+1)^0,w,c
  1078  007876  1015               	iorwf	(___fldiv@a+2)^0,w,c
  1079  007878  1016               	iorwf	(___fldiv@a+3)^0,w,c
  1080  00787A  A4D8               	btfss	status,2,c
  1081  00787C  EF42  F03C         	goto	u1441
  1082  007880  EF44  F03C         	goto	u1440
  1083  007884                     u1441:
  1084  007884  EF5C  F03C         	goto	l1554
  1085  007888                     u1440:
  1086  007888  0E00               	movlw	0
  1087  00788A  6E0F               	movwf	___fldiv@b^0,c
  1088  00788C  0E00               	movlw	0
  1089  00788E  6E10               	movwf	(___fldiv@b+1)^0,c
  1090  007890  0E00               	movlw	0
  1091  007892  6E11               	movwf	(___fldiv@b+2)^0,c
  1092  007894  0E00               	movlw	0
  1093  007896  6E12               	movwf	(___fldiv@b+3)^0,c
  1094  007898  0E80               	movlw	128
  1095  00789A  1211               	iorwf	(___fldiv@b+2)^0,f,c
  1096  00789C  0E7F               	movlw	127
  1097  00789E  1212               	iorwf	(___fldiv@b+3)^0,f,c
  1098  0078A0                     l1548:
  1099  0078A0  501F               	movf	___fldiv@sign^0,w,c
  1100  0078A2  1212               	iorwf	(___fldiv@b+3)^0,f,c
  1101  0078A4  C00F  F00F         	movff	___fldiv@b,?___fldiv
  1102  0078A8  C010  F010         	movff	___fldiv@b+1,?___fldiv+1
  1103  0078AC  C011  F011         	movff	___fldiv@b+2,?___fldiv+2
  1104  0078B0  C012  F012         	movff	___fldiv@b+3,?___fldiv+3
  1105  0078B4  EF9F  F03D         	goto	l673
  1106  0078B8                     l1554:
  1107  0078B8  5026               	movf	___fldiv@bexp^0,w,c
  1108  0078BA  A4D8               	btfss	status,2,c
  1109  0078BC  EF62  F03C         	goto	u1451
  1110  0078C0  EF64  F03C         	goto	u1450
  1111  0078C4                     u1451:
  1112  0078C4  EF6E  F03C         	goto	l1562
  1113  0078C8                     u1450:
  1114  0078C8  0E00               	movlw	0
  1115  0078CA  6E0F               	movwf	?___fldiv^0,c
  1116  0078CC  0E00               	movlw	0
  1117  0078CE  6E10               	movwf	(?___fldiv+1)^0,c
  1118  0078D0  0E00               	movlw	0
  1119  0078D2  6E11               	movwf	(?___fldiv+2)^0,c
  1120  0078D4  0E00               	movlw	0
  1121  0078D6  6E12               	movwf	(?___fldiv+3)^0,c
  1122  0078D8  EF9F  F03D         	goto	l673
  1123  0078DC                     l1562:
  1124  0078DC  5027               	movf	___fldiv@aexp^0,w,c
  1125  0078DE  C026  F017         	movff	___fldiv@bexp,??___fldiv
  1126  0078E2  6A18               	clrf	(??___fldiv+1)^0,c
  1127  0078E4  5E17               	subwf	??___fldiv^0,f,c
  1128  0078E6  0E00               	movlw	0
  1129  0078E8  5A18               	subwfb	(??___fldiv+1)^0,f,c
  1130  0078EA  0E7F               	movlw	127
  1131  0078EC  2417               	addwf	??___fldiv^0,w,c
  1132  0078EE  6E20               	movwf	___fldiv@new_exp^0,c
  1133  0078F0  0E00               	movlw	0
  1134  0078F2  2018               	addwfc	(??___fldiv+1)^0,w,c
  1135  0078F4  6E21               	movwf	(___fldiv@new_exp+1)^0,c
  1136  0078F6  C00F  F01B         	movff	___fldiv@b,___fldiv@rem
  1137  0078FA  C010  F01C         	movff	___fldiv@b+1,___fldiv@rem+1
  1138  0078FE  C011  F01D         	movff	___fldiv@b+2,___fldiv@rem+2
  1139  007902  C012  F01E         	movff	___fldiv@b+3,___fldiv@rem+3
  1140  007906  0E00               	movlw	0
  1141  007908  6E0F               	movwf	___fldiv@b^0,c
  1142  00790A  0E00               	movlw	0
  1143  00790C  6E10               	movwf	(___fldiv@b+1)^0,c
  1144  00790E  0E00               	movlw	0
  1145  007910  6E11               	movwf	(___fldiv@b+2)^0,c
  1146  007912  0E00               	movlw	0
  1147  007914  6E12               	movwf	(___fldiv@b+3)^0,c
  1148  007916  0E00               	movlw	0
  1149  007918  6E22               	movwf	___fldiv@grs^0,c
  1150  00791A  0E00               	movlw	0
  1151  00791C  6E23               	movwf	(___fldiv@grs+1)^0,c
  1152  00791E  0E00               	movlw	0
  1153  007920  6E24               	movwf	(___fldiv@grs+2)^0,c
  1154  007922  0E00               	movlw	0
  1155  007924  6E25               	movwf	(___fldiv@grs+3)^0,c
  1156  007926  0E00               	movlw	0
  1157  007928  6E27               	movwf	___fldiv@aexp^0,c
  1158  00792A  EFCF  F03C         	goto	l675
  1159  00792E                     l1572:
  1160  00792E  5027               	movf	___fldiv@aexp^0,w,c
  1161  007930  B4D8               	btfsc	status,2,c
  1162  007932  EF9D  F03C         	goto	u1461
  1163  007936  EF9F  F03C         	goto	u1460
  1164  00793A                     u1461:
  1165  00793A  EFB6  F03C         	goto	l1580
  1166  00793E                     u1460:
  1167  00793E  90D8               	bcf	status,0,c
  1168  007940  361B               	rlcf	___fldiv@rem^0,f,c
  1169  007942  361C               	rlcf	(___fldiv@rem+1)^0,f,c
  1170  007944  361D               	rlcf	(___fldiv@rem+2)^0,f,c
  1171  007946  361E               	rlcf	(___fldiv@rem+3)^0,f,c
  1172  007948  90D8               	bcf	status,0,c
  1173  00794A  360F               	rlcf	___fldiv@b^0,f,c
  1174  00794C  3610               	rlcf	(___fldiv@b+1)^0,f,c
  1175  00794E  3611               	rlcf	(___fldiv@b+2)^0,f,c
  1176  007950  3612               	rlcf	(___fldiv@b+3)^0,f,c
  1177  007952  AE25               	btfss	(___fldiv@grs+3)^0,7,c
  1178  007954  EFAE  F03C         	goto	u1471
  1179  007958  EFB0  F03C         	goto	u1470
  1180  00795C                     u1471:
  1181  00795C  EFB1  F03C         	goto	l678
  1182  007960                     u1470:
  1183  007960  800F               	bsf	___fldiv@b^0,0,c
  1184  007962                     l678:
  1185  007962  90D8               	bcf	status,0,c
  1186  007964  3622               	rlcf	___fldiv@grs^0,f,c
  1187  007966  3623               	rlcf	(___fldiv@grs+1)^0,f,c
  1188  007968  3624               	rlcf	(___fldiv@grs+2)^0,f,c
  1189  00796A  3625               	rlcf	(___fldiv@grs+3)^0,f,c
  1190  00796C                     l1580:
  1191  00796C  5013               	movf	___fldiv@a^0,w,c
  1192  00796E  5C1B               	subwf	___fldiv@rem^0,w,c
  1193  007970  5014               	movf	(___fldiv@a+1)^0,w,c
  1194  007972  581C               	subwfb	(___fldiv@rem+1)^0,w,c
  1195  007974  5015               	movf	(___fldiv@a+2)^0,w,c
  1196  007976  581D               	subwfb	(___fldiv@rem+2)^0,w,c
  1197  007978  5016               	movf	(___fldiv@a+3)^0,w,c
  1198  00797A  581E               	subwfb	(___fldiv@rem+3)^0,w,c
  1199  00797C  A0D8               	btfss	status,0,c
  1200  00797E  EFC3  F03C         	goto	u1481
  1201  007982  EFC5  F03C         	goto	u1480
  1202  007986                     u1481:
  1203  007986  EFCE  F03C         	goto	l1586
  1204  00798A                     u1480:
  1205  00798A  8C25               	bsf	(___fldiv@grs+3)^0,6,c
  1206  00798C  5013               	movf	___fldiv@a^0,w,c
  1207  00798E  5E1B               	subwf	___fldiv@rem^0,f,c
  1208  007990  5014               	movf	(___fldiv@a+1)^0,w,c
  1209  007992  5A1C               	subwfb	(___fldiv@rem+1)^0,f,c
  1210  007994  5015               	movf	(___fldiv@a+2)^0,w,c
  1211  007996  5A1D               	subwfb	(___fldiv@rem+2)^0,f,c
  1212  007998  5016               	movf	(___fldiv@a+3)^0,w,c
  1213  00799A  5A1E               	subwfb	(___fldiv@rem+3)^0,f,c
  1214  00799C                     l1586:
  1215  00799C  2A27               	incf	___fldiv@aexp^0,f,c
  1216  00799E                     l675:
  1217  00799E  0E19               	movlw	25
  1218  0079A0  6427               	cpfsgt	___fldiv@aexp^0,c
  1219  0079A2  EFD5  F03C         	goto	u1491
  1220  0079A6  EFD7  F03C         	goto	u1490
  1221  0079AA                     u1491:
  1222  0079AA  EF97  F03C         	goto	l1572
  1223  0079AE                     u1490:
  1224  0079AE  501B               	movf	___fldiv@rem^0,w,c
  1225  0079B0  101C               	iorwf	(___fldiv@rem+1)^0,w,c
  1226  0079B2  101D               	iorwf	(___fldiv@rem+2)^0,w,c
  1227  0079B4  101E               	iorwf	(___fldiv@rem+3)^0,w,c
  1228  0079B6  B4D8               	btfsc	status,2,c
  1229  0079B8  EFE0  F03C         	goto	u1501
  1230  0079BC  EFE2  F03C         	goto	u1500
  1231  0079C0                     u1501:
  1232  0079C0  EFFA  F03C         	goto	l1598
  1233  0079C4                     u1500:
  1234  0079C4  8022               	bsf	___fldiv@grs^0,0,c
  1235  0079C6  EFFA  F03C         	goto	l1598
  1236  0079CA                     l1592:
  1237  0079CA  90D8               	bcf	status,0,c
  1238  0079CC  360F               	rlcf	___fldiv@b^0,f,c
  1239  0079CE  3610               	rlcf	(___fldiv@b+1)^0,f,c
  1240  0079D0  3611               	rlcf	(___fldiv@b+2)^0,f,c
  1241  0079D2  3612               	rlcf	(___fldiv@b+3)^0,f,c
  1242  0079D4  AE25               	btfss	(___fldiv@grs+3)^0,7,c
  1243  0079D6  EFEF  F03C         	goto	u1511
  1244  0079DA  EFF1  F03C         	goto	u1510
  1245  0079DE                     u1511:
  1246  0079DE  EFF2  F03C         	goto	l684
  1247  0079E2                     u1510:
  1248  0079E2  800F               	bsf	___fldiv@b^0,0,c
  1249  0079E4                     l684:
  1250  0079E4  90D8               	bcf	status,0,c
  1251  0079E6  3622               	rlcf	___fldiv@grs^0,f,c
  1252  0079E8  3623               	rlcf	(___fldiv@grs+1)^0,f,c
  1253  0079EA  3624               	rlcf	(___fldiv@grs+2)^0,f,c
  1254  0079EC  3625               	rlcf	(___fldiv@grs+3)^0,f,c
  1255  0079EE  0620               	decf	___fldiv@new_exp^0,f,c
  1256  0079F0  A0D8               	btfss	status,0,c
  1257  0079F2  0621               	decf	(___fldiv@new_exp+1)^0,f,c
  1258  0079F4                     l1598:
  1259  0079F4  AE11               	btfss	(___fldiv@b+2)^0,7,c
  1260  0079F6  EFFF  F03C         	goto	u1521
  1261  0079FA  EF01  F03D         	goto	u1520
  1262  0079FE                     u1521:
  1263  0079FE  EFE5  F03C         	goto	l1592
  1264  007A02                     u1520:
  1265  007A02  0E00               	movlw	0
  1266  007A04  6E27               	movwf	___fldiv@aexp^0,c
  1267  007A06  AE25               	btfss	(___fldiv@grs+3)^0,7,c
  1268  007A08  EF08  F03D         	goto	u1531
  1269  007A0C  EF0A  F03D         	goto	u1530
  1270  007A10                     u1531:
  1271  007A10  EF2E  F03D         	goto	l686
  1272  007A14                     u1530:
  1273  007A14  0EFF               	movlw	255
  1274  007A16  1422               	andwf	___fldiv@grs^0,w,c
  1275  007A18  6E17               	movwf	??___fldiv^0,c
  1276  007A1A  0EFF               	movlw	255
  1277  007A1C  1423               	andwf	(___fldiv@grs+1)^0,w,c
  1278  007A1E  6E18               	movwf	(??___fldiv+1)^0,c
  1279  007A20  0EFF               	movlw	255
  1280  007A22  1424               	andwf	(___fldiv@grs+2)^0,w,c
  1281  007A24  6E19               	movwf	(??___fldiv+2)^0,c
  1282  007A26  0E7F               	movlw	127
  1283  007A28  1425               	andwf	(___fldiv@grs+3)^0,w,c
  1284  007A2A  6E1A               	movwf	(??___fldiv+3)^0,c
  1285  007A2C  5017               	movf	??___fldiv^0,w,c
  1286  007A2E  1018               	iorwf	(??___fldiv+1)^0,w,c
  1287  007A30  1019               	iorwf	(??___fldiv+2)^0,w,c
  1288  007A32  101A               	iorwf	(??___fldiv+3)^0,w,c
  1289  007A34  B4D8               	btfsc	status,2,c
  1290  007A36  EF1F  F03D         	goto	u1541
  1291  007A3A  EF21  F03D         	goto	u1540
  1292  007A3E                     u1541:
  1293  007A3E  EF25  F03D         	goto	l687
  1294  007A42                     u1540:
  1295  007A42                     l1606:
  1296  007A42  0E01               	movlw	1
  1297  007A44  6E27               	movwf	___fldiv@aexp^0,c
  1298  007A46  EF2E  F03D         	goto	l686
  1299  007A4A                     l687:
  1300  007A4A  A00F               	btfss	___fldiv@b^0,0,c
  1301  007A4C  EF2A  F03D         	goto	u1551
  1302  007A50  EF2C  F03D         	goto	u1550
  1303  007A54                     u1551:
  1304  007A54  EF2E  F03D         	goto	l686
  1305  007A58                     u1550:
  1306  007A58  EF21  F03D         	goto	l1606
  1307  007A5C                     l686:
  1308  007A5C  5027               	movf	___fldiv@aexp^0,w,c
  1309  007A5E  B4D8               	btfsc	status,2,c
  1310  007A60  EF34  F03D         	goto	u1561
  1311  007A64  EF36  F03D         	goto	u1560
  1312  007A68                     u1561:
  1313  007A68  EF5A  F03D         	goto	l1618
  1314  007A6C                     u1560:
  1315  007A6C  0E01               	movlw	1
  1316  007A6E  260F               	addwf	___fldiv@b^0,f,c
  1317  007A70  0E00               	movlw	0
  1318  007A72  2210               	addwfc	(___fldiv@b+1)^0,f,c
  1319  007A74  2211               	addwfc	(___fldiv@b+2)^0,f,c
  1320  007A76  2212               	addwfc	(___fldiv@b+3)^0,f,c
  1321  007A78  A012               	btfss	(___fldiv@b+3)^0,0,c
  1322  007A7A  EF41  F03D         	goto	u1571
  1323  007A7E  EF43  F03D         	goto	u1570
  1324  007A82                     u1571:
  1325  007A82  EF5A  F03D         	goto	l1618
  1326  007A86                     u1570:
  1327  007A86  C00F  F017         	movff	___fldiv@b,??___fldiv
  1328  007A8A  C010  F018         	movff	___fldiv@b+1,??___fldiv+1
  1329  007A8E  C011  F019         	movff	___fldiv@b+2,??___fldiv+2
  1330  007A92  C012  F01A         	movff	___fldiv@b+3,??___fldiv+3
  1331  007A96  341A               	rlcf	(??___fldiv+3)^0,w,c
  1332  007A98  321A               	rrcf	(??___fldiv+3)^0,f,c
  1333  007A9A  3219               	rrcf	(??___fldiv+2)^0,f,c
  1334  007A9C  3218               	rrcf	(??___fldiv+1)^0,f,c
  1335  007A9E  3217               	rrcf	??___fldiv^0,f,c
  1336  007AA0  C017  F00F         	movff	??___fldiv,___fldiv@b
  1337  007AA4  C018  F010         	movff	??___fldiv+1,___fldiv@b+1
  1338  007AA8  C019  F011         	movff	??___fldiv+2,___fldiv@b+2
  1339  007AAC  C01A  F012         	movff	??___fldiv+3,___fldiv@b+3
  1340  007AB0  4A20               	infsnz	___fldiv@new_exp^0,f,c
  1341  007AB2  2A21               	incf	(___fldiv@new_exp+1)^0,f,c
  1342  007AB4                     l1618:
  1343  007AB4  BE21               	btfsc	(___fldiv@new_exp+1)^0,7,c
  1344  007AB6  EF65  F03D         	goto	u1581
  1345  007ABA  5021               	movf	(___fldiv@new_exp+1)^0,w,c
  1346  007ABC  E108               	bnz	u1580
  1347  007ABE  2820               	incf	___fldiv@new_exp^0,w,c
  1348  007AC0  A0D8               	btfss	status,0,c
  1349  007AC2  EF65  F03D         	goto	u1581
  1350  007AC6  EF67  F03D         	goto	u1580
  1351  007ACA                     u1581:
  1352  007ACA  EF72  F03D         	goto	l1622
  1353  007ACE                     u1580:
  1354  007ACE  0E00               	movlw	0
  1355  007AD0  6E21               	movwf	(___fldiv@new_exp+1)^0,c
  1356  007AD2  6820               	setf	___fldiv@new_exp^0,c
  1357  007AD4  0E00               	movlw	0
  1358  007AD6  6E0F               	movwf	___fldiv@b^0,c
  1359  007AD8  0E00               	movlw	0
  1360  007ADA  6E10               	movwf	(___fldiv@b+1)^0,c
  1361  007ADC  0E00               	movlw	0
  1362  007ADE  6E11               	movwf	(___fldiv@b+2)^0,c
  1363  007AE0  0E00               	movlw	0
  1364  007AE2  6E12               	movwf	(___fldiv@b+3)^0,c
  1365  007AE4                     l1622:
  1366  007AE4  BE21               	btfsc	(___fldiv@new_exp+1)^0,7,c
  1367  007AE6  EF7F  F03D         	goto	u1590
  1368  007AEA  5021               	movf	(___fldiv@new_exp+1)^0,w,c
  1369  007AEC  E106               	bnz	u1591
  1370  007AEE  0420               	decf	___fldiv@new_exp^0,w,c
  1371  007AF0  B0D8               	btfsc	status,0,c
  1372  007AF2  EF7D  F03D         	goto	u1591
  1373  007AF6  EF7F  F03D         	goto	u1590
  1374  007AFA                     u1591:
  1375  007AFA  EF8D  F03D         	goto	l1626
  1376  007AFE                     u1590:
  1377  007AFE  0E00               	movlw	0
  1378  007B00  6E21               	movwf	(___fldiv@new_exp+1)^0,c
  1379  007B02  0E00               	movlw	0
  1380  007B04  6E20               	movwf	___fldiv@new_exp^0,c
  1381  007B06  0E00               	movlw	0
  1382  007B08  6E0F               	movwf	___fldiv@b^0,c
  1383  007B0A  0E00               	movlw	0
  1384  007B0C  6E10               	movwf	(___fldiv@b+1)^0,c
  1385  007B0E  0E00               	movlw	0
  1386  007B10  6E11               	movwf	(___fldiv@b+2)^0,c
  1387  007B12  0E00               	movlw	0
  1388  007B14  6E12               	movwf	(___fldiv@b+3)^0,c
  1389  007B16  0E00               	movlw	0
  1390  007B18  6E1F               	movwf	___fldiv@sign^0,c
  1391  007B1A                     l1626:
  1392  007B1A  C020  F026         	movff	___fldiv@new_exp,___fldiv@bexp
  1393  007B1E  A026               	btfss	___fldiv@bexp^0,0,c
  1394  007B20  EF94  F03D         	goto	u1601
  1395  007B24  EF96  F03D         	goto	u1600
  1396  007B28                     u1601:
  1397  007B28  EF99  F03D         	goto	l1632
  1398  007B2C                     u1600:
  1399  007B2C  8E11               	bsf	(___fldiv@b+2)^0,7,c
  1400  007B2E  EF9A  F03D         	goto	l1634
  1401  007B32                     l1632:
  1402  007B32  9E11               	bcf	(___fldiv@b+2)^0,7,c
  1403  007B34                     l1634:
  1404  007B34  90D8               	bcf	status,0,c
  1405  007B36  3026               	rrcf	___fldiv@bexp^0,w,c
  1406  007B38  6E12               	movwf	(___fldiv@b+3)^0,c
  1407  007B3A  EF50  F03C         	goto	l1548
  1408  007B3E                     l673:
  1409  007B3E  0012               	return		;funcret
  1410  007B40                     __end_of___fldiv:
  1411                           	callstack 0
  1412                           
  1413 ;; *************** function ___fladd *****************
  1414 ;; Defined at:
  1415 ;;		line 10 in file "D:\mplab\pic\sources\c99\common\sprcadd.c"
  1416 ;; Parameters:    Size  Location     Type
  1417 ;;  b               4   39[COMRAM] unsigned char 
  1418 ;;  a               4   43[COMRAM] unsigned char 
  1419 ;; Auto vars:     Size  Location     Type
  1420 ;;  grs             1   54[COMRAM] unsigned char 
  1421 ;;  bexp            1   53[COMRAM] unsigned char 
  1422 ;;  aexp            1   52[COMRAM] unsigned char 
  1423 ;;  signs           1   51[COMRAM] unsigned char 
  1424 ;; Return value:  Size  Location     Type
  1425 ;;                  4   39[COMRAM] unsigned char 
  1426 ;; Registers used:
  1427 ;;		wreg, status,2, status,0
  1428 ;; Tracked objects:
  1429 ;;		On entry : 0/0
  1430 ;;		On exit  : 0/0
  1431 ;;		Unchanged: 0/0
  1432 ;; Data sizes:     COMRAM   BANK0   BANK1   BANK2   BANK3   BANK4   BANK5   BANK6   BANK7
  1433 ;;      Params:         8       0       0       0       0       0       0       0       0
  1434 ;;      Locals:         4       0       0       0       0       0       0       0       0
  1435 ;;      Temps:          4       0       0       0       0       0       0       0       0
  1436 ;;      Totals:        16       0       0       0       0       0       0       0       0
  1437 ;;Total ram usage:       16 bytes
  1438 ;; Hardware stack levels used: 1
  1439 ;; This function calls:
  1440 ;;		Nothing
  1441 ;; This function is called by:
  1442 ;;		_USART_Init
  1443 ;; This function uses a non-reentrant model
  1444 ;;
  1445                           
  1446                           	psect	text6
  1447  007B40                     __ptext6:
  1448                           	callstack 0
  1449  007B40                     ___fladd:
  1450                           	callstack 29
  1451  007B40  502B               	movf	(___fladd@b+3)^0,w,c
  1452  007B42  0B80               	andlw	128
  1453  007B44  6E34               	movwf	___fladd@signs^0,c
  1454  007B46  502B               	movf	(___fladd@b+3)^0,w,c
  1455  007B48  242B               	addwf	(___fladd@b+3)^0,w,c
  1456  007B4A  6E36               	movwf	___fladd@bexp^0,c
  1457  007B4C  AE2A               	btfss	(___fladd@b+2)^0,7,c
  1458  007B4E  EFAB  F03D         	goto	u991
  1459  007B52  EFAD  F03D         	goto	u990
  1460  007B56                     u991:
  1461  007B56  EFAE  F03D         	goto	l1308
  1462  007B5A                     u990:
  1463  007B5A  8036               	bsf	___fladd@bexp^0,0,c
  1464  007B5C                     l1308:
  1465  007B5C  5036               	movf	___fladd@bexp^0,w,c
  1466  007B5E  B4D8               	btfsc	status,2,c
  1467  007B60  EFB4  F03D         	goto	u1001
  1468  007B64  EFB6  F03D         	goto	u1000
  1469  007B68                     u1001:
  1470  007B68  EFCB  F03D         	goto	l1318
  1471  007B6C                     u1000:
  1472  007B6C  2836               	incf	___fladd@bexp^0,w,c
  1473  007B6E  A4D8               	btfss	status,2,c
  1474  007B70  EFBC  F03D         	goto	u1011
  1475  007B74  EFBE  F03D         	goto	u1010
  1476  007B78                     u1011:
  1477  007B78  EFC6  F03D         	goto	l1314
  1478  007B7C                     u1010:
  1479  007B7C  0E00               	movlw	0
  1480  007B7E  6E28               	movwf	___fladd@b^0,c
  1481  007B80  0E00               	movlw	0
  1482  007B82  6E29               	movwf	(___fladd@b+1)^0,c
  1483  007B84  0E00               	movlw	0
  1484  007B86  6E2A               	movwf	(___fladd@b+2)^0,c
  1485  007B88  0E00               	movlw	0
  1486  007B8A  6E2B               	movwf	(___fladd@b+3)^0,c
  1487  007B8C                     l1314:
  1488  007B8C  8E2A               	bsf	(___fladd@b+2)^0,7,c
  1489  007B8E  0E00               	movlw	0
  1490  007B90  6E2B               	movwf	(___fladd@b+3)^0,c
  1491  007B92  EFD3  F03D         	goto	l1320
  1492  007B96                     l1318:
  1493  007B96  0E00               	movlw	0
  1494  007B98  6E28               	movwf	___fladd@b^0,c
  1495  007B9A  0E00               	movlw	0
  1496  007B9C  6E29               	movwf	(___fladd@b+1)^0,c
  1497  007B9E  0E00               	movlw	0
  1498  007BA0  6E2A               	movwf	(___fladd@b+2)^0,c
  1499  007BA2  0E00               	movlw	0
  1500  007BA4  6E2B               	movwf	(___fladd@b+3)^0,c
  1501  007BA6                     l1320:
  1502  007BA6  502F               	movf	(___fladd@a+3)^0,w,c
  1503  007BA8  0B80               	andlw	128
  1504  007BAA  6E35               	movwf	___fladd@aexp^0,c
  1505  007BAC  5034               	movf	___fladd@signs^0,w,c
  1506  007BAE  1835               	xorwf	___fladd@aexp^0,w,c
  1507  007BB0  B4D8               	btfsc	status,2,c
  1508  007BB2  EFDD  F03D         	goto	u1021
  1509  007BB6  EFDF  F03D         	goto	u1020
  1510  007BBA                     u1021:
  1511  007BBA  EFE0  F03D         	goto	l1326
  1512  007BBE                     u1020:
  1513  007BBE  8C34               	bsf	___fladd@signs^0,6,c
  1514  007BC0                     l1326:
  1515  007BC0  502F               	movf	(___fladd@a+3)^0,w,c
  1516  007BC2  242F               	addwf	(___fladd@a+3)^0,w,c
  1517  007BC4  6E35               	movwf	___fladd@aexp^0,c
  1518  007BC6  AE2E               	btfss	(___fladd@a+2)^0,7,c
  1519  007BC8  EFE8  F03D         	goto	u1031
  1520  007BCC  EFEA  F03D         	goto	u1030
  1521  007BD0                     u1031:
  1522  007BD0  EFEB  F03D         	goto	l1332
  1523  007BD4                     u1030:
  1524  007BD4  8035               	bsf	___fladd@aexp^0,0,c
  1525  007BD6                     l1332:
  1526  007BD6  5035               	movf	___fladd@aexp^0,w,c
  1527  007BD8  B4D8               	btfsc	status,2,c
  1528  007BDA  EFF1  F03D         	goto	u1041
  1529  007BDE  EFF3  F03D         	goto	u1040
  1530  007BE2                     u1041:
  1531  007BE2  EF08  F03E         	goto	l1342
  1532  007BE6                     u1040:
  1533  007BE6  2835               	incf	___fladd@aexp^0,w,c
  1534  007BE8  A4D8               	btfss	status,2,c
  1535  007BEA  EFF9  F03D         	goto	u1051
  1536  007BEE  EFFB  F03D         	goto	u1050
  1537  007BF2                     u1051:
  1538  007BF2  EF03  F03E         	goto	l1338
  1539  007BF6                     u1050:
  1540  007BF6  0E00               	movlw	0
  1541  007BF8  6E2C               	movwf	___fladd@a^0,c
  1542  007BFA  0E00               	movlw	0
  1543  007BFC  6E2D               	movwf	(___fladd@a+1)^0,c
  1544  007BFE  0E00               	movlw	0
  1545  007C00  6E2E               	movwf	(___fladd@a+2)^0,c
  1546  007C02  0E00               	movlw	0
  1547  007C04  6E2F               	movwf	(___fladd@a+3)^0,c
  1548  007C06                     l1338:
  1549  007C06  8E2E               	bsf	(___fladd@a+2)^0,7,c
  1550  007C08  0E00               	movlw	0
  1551  007C0A  6E2F               	movwf	(___fladd@a+3)^0,c
  1552  007C0C  EF10  F03E         	goto	l1344
  1553  007C10                     l1342:
  1554  007C10  0E00               	movlw	0
  1555  007C12  6E2C               	movwf	___fladd@a^0,c
  1556  007C14  0E00               	movlw	0
  1557  007C16  6E2D               	movwf	(___fladd@a+1)^0,c
  1558  007C18  0E00               	movlw	0
  1559  007C1A  6E2E               	movwf	(___fladd@a+2)^0,c
  1560  007C1C  0E00               	movlw	0
  1561  007C1E  6E2F               	movwf	(___fladd@a+3)^0,c
  1562  007C20                     l1344:
  1563  007C20  5036               	movf	___fladd@bexp^0,w,c
  1564  007C22  5C35               	subwf	___fladd@aexp^0,w,c
  1565  007C24  B0D8               	btfsc	status,0,c
  1566  007C26  EF17  F03E         	goto	u1061
  1567  007C2A  EF19  F03E         	goto	u1060
  1568  007C2E                     u1061:
  1569  007C2E  EF40  F03E         	goto	l1380
  1570  007C32                     u1060:
  1571  007C32  AC34               	btfss	___fladd@signs^0,6,c
  1572  007C34  EF1E  F03E         	goto	u1071
  1573  007C38  EF20  F03E         	goto	u1070
  1574  007C3C                     u1071:
  1575  007C3C  EF22  F03E         	goto	l1350
  1576  007C40                     u1070:
  1577  007C40  0E80               	movlw	128
  1578  007C42  1A34               	xorwf	___fladd@signs^0,f,c
  1579  007C44                     l1350:
  1580  007C44  C036  F037         	movff	___fladd@bexp,___fladd@grs
  1581  007C48  C035  F036         	movff	___fladd@aexp,___fladd@bexp
  1582  007C4C  C037  F035         	movff	___fladd@grs,___fladd@aexp
  1583  007C50  C028  F037         	movff	___fladd@b,___fladd@grs
  1584  007C54  C02C  F028         	movff	___fladd@a,___fladd@b
  1585  007C58  C037  F02C         	movff	___fladd@grs,___fladd@a
  1586  007C5C  C029  F037         	movff	___fladd@b+1,___fladd@grs
  1587  007C60  C02D  F029         	movff	___fladd@a+1,___fladd@b+1
  1588  007C64  C037  F02D         	movff	___fladd@grs,___fladd@a+1
  1589  007C68  C02A  F037         	movff	___fladd@b+2,___fladd@grs
  1590  007C6C  C02E  F02A         	movff	___fladd@a+2,___fladd@b+2
  1591  007C70  C037  F02E         	movff	___fladd@grs,___fladd@a+2
  1592  007C74  C02B  F037         	movff	___fladd@b+3,___fladd@grs
  1593  007C78  C02F  F02B         	movff	___fladd@a+3,___fladd@b+3
  1594  007C7C  C037  F02F         	movff	___fladd@grs,___fladd@a+3
  1595  007C80                     l1380:
  1596  007C80  0E00               	movlw	0
  1597  007C82  6E37               	movwf	___fladd@grs^0,c
  1598  007C84  5036               	movf	___fladd@bexp^0,w,c
  1599  007C86  C035  F030         	movff	___fladd@aexp,??___fladd
  1600  007C8A  6A31               	clrf	(??___fladd+1)^0,c
  1601  007C8C  5E30               	subwf	??___fladd^0,f,c
  1602  007C8E  0E00               	movlw	0
  1603  007C90  5A31               	subwfb	(??___fladd+1)^0,f,c
  1604  007C92  BE31               	btfsc	(??___fladd+1)^0,7,c
  1605  007C94  EF55  F03E         	goto	u1081
  1606  007C98  5031               	movf	(??___fladd+1)^0,w,c
  1607  007C9A  E109               	bnz	u1080
  1608  007C9C  0E1A               	movlw	26
  1609  007C9E  5C30               	subwf	??___fladd^0,w,c
  1610  007CA0  A0D8               	btfss	status,0,c
  1611  007CA2  EF55  F03E         	goto	u1081
  1612  007CA6  EF57  F03E         	goto	u1080
  1613  007CAA                     u1081:
  1614  007CAA  EF8E  F03E         	goto	l620
  1615  007CAE                     u1080:
  1616  007CAE  5028               	movf	___fladd@b^0,w,c
  1617  007CB0  1029               	iorwf	(___fladd@b+1)^0,w,c
  1618  007CB2  102A               	iorwf	(___fladd@b+2)^0,w,c
  1619  007CB4  102B               	iorwf	(___fladd@b+3)^0,w,c
  1620  007CB6  A4D8               	btfss	status,2,c
  1621  007CB8  EF60  F03E         	goto	u1091
  1622  007CBC  EF63  F03E         	goto	u1090
  1623  007CC0                     u1091:
  1624  007CC0  0E01               	movlw	1
  1625  007CC2  EF64  F03E         	goto	u1100
  1626  007CC6                     u1090:
  1627  007CC6  0E00               	movlw	0
  1628  007CC8                     u1100:
  1629  007CC8  6E37               	movwf	___fladd@grs^0,c
  1630  007CCA  0E00               	movlw	0
  1631  007CCC  6E28               	movwf	___fladd@b^0,c
  1632  007CCE  0E00               	movlw	0
  1633  007CD0  6E29               	movwf	(___fladd@b+1)^0,c
  1634  007CD2  0E00               	movlw	0
  1635  007CD4  6E2A               	movwf	(___fladd@b+2)^0,c
  1636  007CD6  0E00               	movlw	0
  1637  007CD8  6E2B               	movwf	(___fladd@b+3)^0,c
  1638  007CDA  C035  F036         	movff	___fladd@aexp,___fladd@bexp
  1639  007CDE  EF97  F03E         	goto	l619
  1640  007CE2                     l621:
  1641  007CE2  A037               	btfss	___fladd@grs^0,0,c
  1642  007CE4  EF76  F03E         	goto	u1111
  1643  007CE8  EF78  F03E         	goto	u1110
  1644  007CEC                     u1111:
  1645  007CEC  EF7E  F03E         	goto	l1392
  1646  007CF0                     u1110:
  1647  007CF0  90D8               	bcf	status,0,c
  1648  007CF2  3037               	rrcf	___fladd@grs^0,w,c
  1649  007CF4  0901               	iorlw	1
  1650  007CF6  6E37               	movwf	___fladd@grs^0,c
  1651  007CF8  EF80  F03E         	goto	l1394
  1652  007CFC                     l1392:
  1653  007CFC  90D8               	bcf	status,0,c
  1654  007CFE  3237               	rrcf	___fladd@grs^0,f,c
  1655  007D00                     l1394:
  1656  007D00  A028               	btfss	___fladd@b^0,0,c
  1657  007D02  EF85  F03E         	goto	u1121
  1658  007D06  EF87  F03E         	goto	u1120
  1659  007D0A                     u1121:
  1660  007D0A  EF88  F03E         	goto	l1398
  1661  007D0E                     u1120:
  1662  007D0E  8E37               	bsf	___fladd@grs^0,7,c
  1663  007D10                     l1398:
  1664  007D10  342B               	rlcf	(___fladd@b+3)^0,w,c
  1665  007D12  322B               	rrcf	(___fladd@b+3)^0,f,c
  1666  007D14  322A               	rrcf	(___fladd@b+2)^0,f,c
  1667  007D16  3229               	rrcf	(___fladd@b+1)^0,f,c
  1668  007D18  3228               	rrcf	___fladd@b^0,f,c
  1669  007D1A  2A36               	incf	___fladd@bexp^0,f,c
  1670  007D1C                     l620:
  1671  007D1C  5035               	movf	___fladd@aexp^0,w,c
  1672  007D1E  5C36               	subwf	___fladd@bexp^0,w,c
  1673  007D20  A0D8               	btfss	status,0,c
  1674  007D22  EF95  F03E         	goto	u1131
  1675  007D26  EF97  F03E         	goto	u1130
  1676  007D2A                     u1131:
  1677  007D2A  EF71  F03E         	goto	l621
  1678  007D2E                     u1130:
  1679  007D2E                     l619:
  1680  007D2E  BC34               	btfsc	___fladd@signs^0,6,c
  1681  007D30  EF9C  F03E         	goto	u1141
  1682  007D34  EF9E  F03E         	goto	u1140
  1683  007D38                     u1141:
  1684  007D38  EFDE  F03E         	goto	l1426
  1685  007D3C                     u1140:
  1686  007D3C  5036               	movf	___fladd@bexp^0,w,c
  1687  007D3E  A4D8               	btfss	status,2,c
  1688  007D40  EFA4  F03E         	goto	u1151
  1689  007D44  EFA6  F03E         	goto	u1150
  1690  007D48                     u1151:
  1691  007D48  EFB0  F03E         	goto	l1408
  1692  007D4C                     u1150:
  1693  007D4C  0E00               	movlw	0
  1694  007D4E  6E28               	movwf	?___fladd^0,c
  1695  007D50  0E00               	movlw	0
  1696  007D52  6E29               	movwf	(?___fladd+1)^0,c
  1697  007D54  0E00               	movlw	0
  1698  007D56  6E2A               	movwf	(?___fladd+2)^0,c
  1699  007D58  0E00               	movlw	0
  1700  007D5A  6E2B               	movwf	(?___fladd+3)^0,c
  1701  007D5C  EFFF  F03F         	goto	l628
  1702  007D60                     l1408:
  1703  007D60  502C               	movf	___fladd@a^0,w,c
  1704  007D62  2628               	addwf	___fladd@b^0,f,c
  1705  007D64  502D               	movf	(___fladd@a+1)^0,w,c
  1706  007D66  2229               	addwfc	(___fladd@b+1)^0,f,c
  1707  007D68  502E               	movf	(___fladd@a+2)^0,w,c
  1708  007D6A  222A               	addwfc	(___fladd@b+2)^0,f,c
  1709  007D6C  502F               	movf	(___fladd@a+3)^0,w,c
  1710  007D6E  222B               	addwfc	(___fladd@b+3)^0,f,c
  1711  007D70  A02B               	btfss	(___fladd@b+3)^0,0,c
  1712  007D72  EFBD  F03E         	goto	u1161
  1713  007D76  EFBF  F03E         	goto	u1160
  1714  007D7A                     u1161:
  1715  007D7A  EF6B  F03F         	goto	l1462
  1716  007D7E                     u1160:
  1717  007D7E  A037               	btfss	___fladd@grs^0,0,c
  1718  007D80  EFC4  F03E         	goto	u1171
  1719  007D84  EFC6  F03E         	goto	u1170
  1720  007D88                     u1171:
  1721  007D88  EFCC  F03E         	goto	l1416
  1722  007D8C                     u1170:
  1723  007D8C  90D8               	bcf	status,0,c
  1724  007D8E  3037               	rrcf	___fladd@grs^0,w,c
  1725  007D90  0901               	iorlw	1
  1726  007D92  6E37               	movwf	___fladd@grs^0,c
  1727  007D94  EFCE  F03E         	goto	l1418
  1728  007D98                     l1416:
  1729  007D98  90D8               	bcf	status,0,c
  1730  007D9A  3237               	rrcf	___fladd@grs^0,f,c
  1731  007D9C                     l1418:
  1732  007D9C  A028               	btfss	___fladd@b^0,0,c
  1733  007D9E  EFD3  F03E         	goto	u1181
  1734  007DA2  EFD5  F03E         	goto	u1180
  1735  007DA6                     u1181:
  1736  007DA6  EFD6  F03E         	goto	l1422
  1737  007DAA                     u1180:
  1738  007DAA  8E37               	bsf	___fladd@grs^0,7,c
  1739  007DAC                     l1422:
  1740  007DAC  342B               	rlcf	(___fladd@b+3)^0,w,c
  1741  007DAE  322B               	rrcf	(___fladd@b+3)^0,f,c
  1742  007DB0  322A               	rrcf	(___fladd@b+2)^0,f,c
  1743  007DB2  3229               	rrcf	(___fladd@b+1)^0,f,c
  1744  007DB4  3228               	rrcf	___fladd@b^0,f,c
  1745  007DB6  2A36               	incf	___fladd@bexp^0,f,c
  1746  007DB8  EF6B  F03F         	goto	l1462
  1747  007DBC                     l1426:
  1748  007DBC  502C               	movf	___fladd@a^0,w,c
  1749  007DBE  5C28               	subwf	___fladd@b^0,w,c
  1750  007DC0  502D               	movf	(___fladd@a+1)^0,w,c
  1751  007DC2  5829               	subwfb	(___fladd@b+1)^0,w,c
  1752  007DC4  502E               	movf	(___fladd@a+2)^0,w,c
  1753  007DC6  582A               	subwfb	(___fladd@b+2)^0,w,c
  1754  007DC8  502B               	movf	(___fladd@b+3)^0,w,c
  1755  007DCA  0A80               	xorlw	128
  1756  007DCC  6E30               	movwf	??___fladd^0,c
  1757  007DCE  502F               	movf	(___fladd@a+3)^0,w,c
  1758  007DD0  0A80               	xorlw	128
  1759  007DD2  5830               	subwfb	??___fladd^0,w,c
  1760  007DD4  B0D8               	btfsc	status,0,c
  1761  007DD6  EFEF  F03E         	goto	u1191
  1762  007DDA  EFF1  F03E         	goto	u1190
  1763  007DDE                     u1191:
  1764  007DDE  EF1C  F03F         	goto	l1436
  1765  007DE2                     u1190:
  1766  007DE2  5028               	movf	___fladd@b^0,w,c
  1767  007DE4  5C2C               	subwf	___fladd@a^0,w,c
  1768  007DE6  6E30               	movwf	??___fladd^0,c
  1769  007DE8  5029               	movf	(___fladd@b+1)^0,w,c
  1770  007DEA  582D               	subwfb	(___fladd@a+1)^0,w,c
  1771  007DEC  6E31               	movwf	(??___fladd+1)^0,c
  1772  007DEE  502A               	movf	(___fladd@b+2)^0,w,c
  1773  007DF0  582E               	subwfb	(___fladd@a+2)^0,w,c
  1774  007DF2  6E32               	movwf	(??___fladd+2)^0,c
  1775  007DF4  502B               	movf	(___fladd@b+3)^0,w,c
  1776  007DF6  582F               	subwfb	(___fladd@a+3)^0,w,c
  1777  007DF8  6E33               	movwf	(??___fladd+3)^0,c
  1778  007DFA  0EFF               	movlw	255
  1779  007DFC  2430               	addwf	??___fladd^0,w,c
  1780  007DFE  6E28               	movwf	___fladd@b^0,c
  1781  007E00  0EFF               	movlw	255
  1782  007E02  2031               	addwfc	(??___fladd+1)^0,w,c
  1783  007E04  6E29               	movwf	(___fladd@b+1)^0,c
  1784  007E06  0EFF               	movlw	255
  1785  007E08  2032               	addwfc	(??___fladd+2)^0,w,c
  1786  007E0A  6E2A               	movwf	(___fladd@b+2)^0,c
  1787  007E0C  0EFF               	movlw	255
  1788  007E0E  2033               	addwfc	(??___fladd+3)^0,w,c
  1789  007E10  6E2B               	movwf	(___fladd@b+3)^0,c
  1790  007E12  0E80               	movlw	128
  1791  007E14  1A34               	xorwf	___fladd@signs^0,f,c
  1792  007E16  6C37               	negf	___fladd@grs^0,c
  1793  007E18  5037               	movf	___fladd@grs^0,w,c
  1794  007E1A  A4D8               	btfss	status,2,c
  1795  007E1C  EF12  F03F         	goto	u1201
  1796  007E20  EF14  F03F         	goto	u1200
  1797  007E24                     u1201:
  1798  007E24  EF24  F03F         	goto	l636
  1799  007E28                     u1200:
  1800  007E28  0E01               	movlw	1
  1801  007E2A  2628               	addwf	___fladd@b^0,f,c
  1802  007E2C  0E00               	movlw	0
  1803  007E2E  2229               	addwfc	(___fladd@b+1)^0,f,c
  1804  007E30  222A               	addwfc	(___fladd@b+2)^0,f,c
  1805  007E32  222B               	addwfc	(___fladd@b+3)^0,f,c
  1806  007E34  EF24  F03F         	goto	l636
  1807  007E38                     l1436:
  1808  007E38  502C               	movf	___fladd@a^0,w,c
  1809  007E3A  5E28               	subwf	___fladd@b^0,f,c
  1810  007E3C  502D               	movf	(___fladd@a+1)^0,w,c
  1811  007E3E  5A29               	subwfb	(___fladd@b+1)^0,f,c
  1812  007E40  502E               	movf	(___fladd@a+2)^0,w,c
  1813  007E42  5A2A               	subwfb	(___fladd@b+2)^0,f,c
  1814  007E44  502F               	movf	(___fladd@a+3)^0,w,c
  1815  007E46  5A2B               	subwfb	(___fladd@b+3)^0,f,c
  1816  007E48                     l636:
  1817  007E48  5028               	movf	___fladd@b^0,w,c
  1818  007E4A  1029               	iorwf	(___fladd@b+1)^0,w,c
  1819  007E4C  102A               	iorwf	(___fladd@b+2)^0,w,c
  1820  007E4E  102B               	iorwf	(___fladd@b+3)^0,w,c
  1821  007E50  A4D8               	btfss	status,2,c
  1822  007E52  EF2D  F03F         	goto	u1211
  1823  007E56  EF2F  F03F         	goto	u1210
  1824  007E5A                     u1211:
  1825  007E5A  EF64  F03F         	goto	l1460
  1826  007E5E                     u1210:
  1827  007E5E  5037               	movf	___fladd@grs^0,w,c
  1828  007E60  A4D8               	btfss	status,2,c
  1829  007E62  EF35  F03F         	goto	u1221
  1830  007E66  EF37  F03F         	goto	u1220
  1831  007E6A                     u1221:
  1832  007E6A  EF64  F03F         	goto	l1460
  1833  007E6E                     u1220:
  1834  007E6E  0E00               	movlw	0
  1835  007E70  6E28               	movwf	?___fladd^0,c
  1836  007E72  0E00               	movlw	0
  1837  007E74  6E29               	movwf	(?___fladd+1)^0,c
  1838  007E76  0E00               	movlw	0
  1839  007E78  6E2A               	movwf	(?___fladd+2)^0,c
  1840  007E7A  0E00               	movlw	0
  1841  007E7C  6E2B               	movwf	(?___fladd+3)^0,c
  1842  007E7E  EFFF  F03F         	goto	l628
  1843  007E82                     l1444:
  1844  007E82  90D8               	bcf	status,0,c
  1845  007E84  3628               	rlcf	___fladd@b^0,f,c
  1846  007E86  3629               	rlcf	(___fladd@b+1)^0,f,c
  1847  007E88  362A               	rlcf	(___fladd@b+2)^0,f,c
  1848  007E8A  362B               	rlcf	(___fladd@b+3)^0,f,c
  1849  007E8C  AE37               	btfss	___fladd@grs^0,7,c
  1850  007E8E  EF4B  F03F         	goto	u1231
  1851  007E92  EF4D  F03F         	goto	u1230
  1852  007E96                     u1231:
  1853  007E96  EF4E  F03F         	goto	l1450
  1854  007E9A                     u1230:
  1855  007E9A  8028               	bsf	___fladd@b^0,0,c
  1856  007E9C                     l1450:
  1857  007E9C  A037               	btfss	___fladd@grs^0,0,c
  1858  007E9E  EF53  F03F         	goto	u1241
  1859  007EA2  EF55  F03F         	goto	u1240
  1860  007EA6                     u1241:
  1861  007EA6  EF59  F03F         	goto	l1454
  1862  007EAA                     u1240:
  1863  007EAA  80D8               	bsf	status,0,c
  1864  007EAC  3637               	rlcf	___fladd@grs^0,f,c
  1865  007EAE  EF5B  F03F         	goto	l1456
  1866  007EB2                     l1454:
  1867  007EB2  90D8               	bcf	status,0,c
  1868  007EB4  3637               	rlcf	___fladd@grs^0,f,c
  1869  007EB6                     l1456:
  1870  007EB6  5036               	movf	___fladd@bexp^0,w,c
  1871  007EB8  B4D8               	btfsc	status,2,c
  1872  007EBA  EF61  F03F         	goto	u1251
  1873  007EBE  EF63  F03F         	goto	u1250
  1874  007EC2                     u1251:
  1875  007EC2  EF64  F03F         	goto	l1460
  1876  007EC6                     u1250:
  1877  007EC6  0636               	decf	___fladd@bexp^0,f,c
  1878  007EC8                     l1460:
  1879  007EC8  AE2A               	btfss	(___fladd@b+2)^0,7,c
  1880  007ECA  EF69  F03F         	goto	u1261
  1881  007ECE  EF6B  F03F         	goto	u1260
  1882  007ED2                     u1261:
  1883  007ED2  EF41  F03F         	goto	l1444
  1884  007ED6                     u1260:
  1885  007ED6                     l1462:
  1886  007ED6  0E00               	movlw	0
  1887  007ED8  6E35               	movwf	___fladd@aexp^0,c
  1888  007EDA  AE37               	btfss	___fladd@grs^0,7,c
  1889  007EDC  EF72  F03F         	goto	u1271
  1890  007EE0  EF74  F03F         	goto	u1270
  1891  007EE4                     u1271:
  1892  007EE4  EF8C  F03F         	goto	l645
  1893  007EE8                     u1270:
  1894  007EE8  C037  F030         	movff	___fladd@grs,??___fladd
  1895  007EEC  0E7F               	movlw	127
  1896  007EEE  1630               	andwf	??___fladd^0,f,c
  1897  007EF0  B4D8               	btfsc	status,2,c
  1898  007EF2  EF7D  F03F         	goto	u1281
  1899  007EF6  EF7F  F03F         	goto	u1280
  1900  007EFA                     u1281:
  1901  007EFA  EF83  F03F         	goto	l646
  1902  007EFE                     u1280:
  1903  007EFE                     l1468:
  1904  007EFE  0E01               	movlw	1
  1905  007F00  6E35               	movwf	___fladd@aexp^0,c
  1906  007F02  EF8C  F03F         	goto	l645
  1907  007F06                     l646:
  1908  007F06  A028               	btfss	___fladd@b^0,0,c
  1909  007F08  EF88  F03F         	goto	u1291
  1910  007F0C  EF8A  F03F         	goto	u1290
  1911  007F10                     u1291:
  1912  007F10  EF8C  F03F         	goto	l645
  1913  007F14                     u1290:
  1914  007F14  EF7F  F03F         	goto	l1468
  1915  007F18                     l645:
  1916  007F18  5035               	movf	___fladd@aexp^0,w,c
  1917  007F1A  B4D8               	btfsc	status,2,c
  1918  007F1C  EF92  F03F         	goto	u1301
  1919  007F20  EF94  F03F         	goto	u1300
  1920  007F24                     u1301:
  1921  007F24  EFBF  F03F         	goto	l1480
  1922  007F28                     u1300:
  1923  007F28  0E01               	movlw	1
  1924  007F2A  2628               	addwf	___fladd@b^0,f,c
  1925  007F2C  0E00               	movlw	0
  1926  007F2E  2229               	addwfc	(___fladd@b+1)^0,f,c
  1927  007F30  222A               	addwfc	(___fladd@b+2)^0,f,c
  1928  007F32  222B               	addwfc	(___fladd@b+3)^0,f,c
  1929  007F34  A02B               	btfss	(___fladd@b+3)^0,0,c
  1930  007F36  EF9F  F03F         	goto	u1311
  1931  007F3A  EFA1  F03F         	goto	u1310
  1932  007F3E                     u1311:
  1933  007F3E  EFBF  F03F         	goto	l1480
  1934  007F42                     u1310:
  1935  007F42  C028  F030         	movff	___fladd@b,??___fladd
  1936  007F46  C029  F031         	movff	___fladd@b+1,??___fladd+1
  1937  007F4A  C02A  F032         	movff	___fladd@b+2,??___fladd+2
  1938  007F4E  C02B  F033         	movff	___fladd@b+3,??___fladd+3
  1939  007F52  3433               	rlcf	(??___fladd+3)^0,w,c
  1940  007F54  3233               	rrcf	(??___fladd+3)^0,f,c
  1941  007F56  3232               	rrcf	(??___fladd+2)^0,f,c
  1942  007F58  3231               	rrcf	(??___fladd+1)^0,f,c
  1943  007F5A  3230               	rrcf	??___fladd^0,f,c
  1944  007F5C  C030  F028         	movff	??___fladd,___fladd@b
  1945  007F60  C031  F029         	movff	??___fladd+1,___fladd@b+1
  1946  007F64  C032  F02A         	movff	??___fladd+2,___fladd@b+2
  1947  007F68  C033  F02B         	movff	??___fladd+3,___fladd@b+3
  1948  007F6C  2836               	incf	___fladd@bexp^0,w,c
  1949  007F6E  B4D8               	btfsc	status,2,c
  1950  007F70  EFBC  F03F         	goto	u1321
  1951  007F74  EFBE  F03F         	goto	u1320
  1952  007F78                     u1321:
  1953  007F78  EFBF  F03F         	goto	l1480
  1954  007F7C                     u1320:
  1955  007F7C  2A36               	incf	___fladd@bexp^0,f,c
  1956  007F7E                     l1480:
  1957  007F7E  2836               	incf	___fladd@bexp^0,w,c
  1958  007F80  B4D8               	btfsc	status,2,c
  1959  007F82  EFC5  F03F         	goto	u1331
  1960  007F86  EFC7  F03F         	goto	u1330
  1961  007F8A                     u1331:
  1962  007F8A  EFCF  F03F         	goto	l1484
  1963  007F8E                     u1330:
  1964  007F8E  5036               	movf	___fladd@bexp^0,w,c
  1965  007F90  A4D8               	btfss	status,2,c
  1966  007F92  EFCD  F03F         	goto	u1341
  1967  007F96  EFCF  F03F         	goto	u1340
  1968  007F9A                     u1341:
  1969  007F9A  EFE1  F03F         	goto	l1488
  1970  007F9E                     u1340:
  1971  007F9E                     l1484:
  1972  007F9E  0E00               	movlw	0
  1973  007FA0  6E28               	movwf	___fladd@b^0,c
  1974  007FA2  0E00               	movlw	0
  1975  007FA4  6E29               	movwf	(___fladd@b+1)^0,c
  1976  007FA6  0E00               	movlw	0
  1977  007FA8  6E2A               	movwf	(___fladd@b+2)^0,c
  1978  007FAA  0E00               	movlw	0
  1979  007FAC  6E2B               	movwf	(___fladd@b+3)^0,c
  1980  007FAE  5036               	movf	___fladd@bexp^0,w,c
  1981  007FB0  A4D8               	btfss	status,2,c
  1982  007FB2  EFDD  F03F         	goto	u1351
  1983  007FB6  EFDF  F03F         	goto	u1350
  1984  007FBA                     u1351:
  1985  007FBA  EFE1  F03F         	goto	l1488
  1986  007FBE                     u1350:
  1987  007FBE  0E00               	movlw	0
  1988  007FC0  6E34               	movwf	___fladd@signs^0,c
  1989  007FC2                     l1488:
  1990  007FC2  A036               	btfss	___fladd@bexp^0,0,c
  1991  007FC4  EFE6  F03F         	goto	u1361
  1992  007FC8  EFE8  F03F         	goto	u1360
  1993  007FCC                     u1361:
  1994  007FCC  EFEB  F03F         	goto	l1492
  1995  007FD0                     u1360:
  1996  007FD0  8E2A               	bsf	(___fladd@b+2)^0,7,c
  1997  007FD2  EFEC  F03F         	goto	l1494
  1998  007FD6                     l1492:
  1999  007FD6  9E2A               	bcf	(___fladd@b+2)^0,7,c
  2000  007FD8                     l1494:
  2001  007FD8  90D8               	bcf	status,0,c
  2002  007FDA  3036               	rrcf	___fladd@bexp^0,w,c
  2003  007FDC  6E2B               	movwf	(___fladd@b+3)^0,c
  2004  007FDE  AE34               	btfss	___fladd@signs^0,7,c
  2005  007FE0  EFF4  F03F         	goto	u1371
  2006  007FE4  EFF6  F03F         	goto	u1370
  2007  007FE8                     u1371:
  2008  007FE8  EFF7  F03F         	goto	l1500
  2009  007FEC                     u1370:
  2010  007FEC  8E2B               	bsf	(___fladd@b+3)^0,7,c
  2011  007FEE                     l1500:
  2012  007FEE  C028  F028         	movff	___fladd@b,?___fladd
  2013  007FF2  C029  F029         	movff	___fladd@b+1,?___fladd+1
  2014  007FF6  C02A  F02A         	movff	___fladd@b+2,?___fladd+2
  2015  007FFA  C02B  F02B         	movff	___fladd@b+3,?___fladd+3
  2016  007FFE                     l628:
  2017  007FFE  0012               	return		;funcret
  2018  008000                     __end_of___fladd:
  2019                           	callstack 0
  2020                           
  2021 ;; *************** function _Keypad_Init *****************
  2022 ;; Defined at:
  2023 ;;		line 23 in file "./keypad.h"
  2024 ;; Parameters:    Size  Location     Type
  2025 ;;		None
  2026 ;; Auto vars:     Size  Location     Type
  2027 ;;		None
  2028 ;; Return value:  Size  Location     Type
  2029 ;;                  1    wreg      void 
  2030 ;; Registers used:
  2031 ;;		wreg, status,2
  2032 ;; Tracked objects:
  2033 ;;		On entry : 0/0
  2034 ;;		On exit  : 0/0
  2035 ;;		Unchanged: 0/0
  2036 ;; Data sizes:     COMRAM   BANK0   BANK1   BANK2   BANK3   BANK4   BANK5   BANK6   BANK7
  2037 ;;      Params:         0       0       0       0       0       0       0       0       0
  2038 ;;      Locals:         0       0       0       0       0       0       0       0       0
  2039 ;;      Temps:          0       0       0       0       0       0       0       0       0
  2040 ;;      Totals:         0       0       0       0       0       0       0       0       0
  2041 ;;Total ram usage:        0 bytes
  2042 ;; Hardware stack levels used: 1
  2043 ;; This function calls:
  2044 ;;		Nothing
  2045 ;; This function is called by:
  2046 ;;		_main
  2047 ;; This function uses a non-reentrant model
  2048 ;;
  2049                           
  2050                           	psect	text7
  2051  0072A4                     __ptext7:
  2052                           	callstack 0
  2053  0072A4                     _Keypad_Init:
  2054                           	callstack 30
  2055  0072A4                     
  2056                           ;./keypad.h: 24:     TRISD = 0x0F;
  2057  0072A4  0E0F               	movlw	15
  2058  0072A6  6E95               	movwf	149,c	;volatile
  2059  0072A8  0012               	return		;funcret
  2060  0072AA                     __end_of_Keypad_Init:
  2061                           	callstack 0
  2062                           
  2063 ;; *************** function _Key_Press *****************
  2064 ;; Defined at:
  2065 ;;		line 27 in file "./keypad.h"
  2066 ;; Parameters:    Size  Location     Type
  2067 ;;		None
  2068 ;; Auto vars:     Size  Location     Type
  2069 ;;  Key             1    0[COMRAM] unsigned char 
  2070 ;; Return value:  Size  Location     Type
  2071 ;;                  1    wreg      unsigned char 
  2072 ;; Registers used:
  2073 ;;		wreg, status,2
  2074 ;; Tracked objects:
  2075 ;;		On entry : 0/0
  2076 ;;		On exit  : 0/0
  2077 ;;		Unchanged: 0/0
  2078 ;; Data sizes:     COMRAM   BANK0   BANK1   BANK2   BANK3   BANK4   BANK5   BANK6   BANK7
  2079 ;;      Params:         0       0       0       0       0       0       0       0       0
  2080 ;;      Locals:         1       0       0       0       0       0       0       0       0
  2081 ;;      Temps:          0       0       0       0       0       0       0       0       0
  2082 ;;      Totals:         1       0       0       0       0       0       0       0       0
  2083 ;;Total ram usage:        1 bytes
  2084 ;; Hardware stack levels used: 1
  2085 ;; This function calls:
  2086 ;;		Nothing
  2087 ;; This function is called by:
  2088 ;;		_main
  2089 ;; This function uses a non-reentrant model
  2090 ;;
  2091                           
  2092                           	psect	text8
  2093  007400                     __ptext8:
  2094                           	callstack 0
  2095  007400                     _Key_Press:
  2096                           	callstack 30
  2097  007400                     
  2098                           ;./keypad.h: 28:     char Key=0;
  2099  007400  0E00               	movlw	0
  2100  007402  6E01               	movwf	Key_Press@Key^0,c
  2101                           
  2102                           ;./keypad.h: 29:     PORTD = 0b00010000;
  2103  007404  0E10               	movlw	16
  2104  007406  6E83               	movwf	131,c	;volatile
  2105  007408                     
  2106                           ;./keypad.h: 30:     if(PORTDbits.RD0){
  2107  007408  A083               	btfss	131,0,c	;volatile
  2108  00740A  EF09  F03A         	goto	u801
  2109  00740E  EF0B  F03A         	goto	u800
  2110  007412                     u801:
  2111  007412  EF0D  F03A         	goto	l1202
  2112  007416                     u800:
  2113  007416                     
  2114                           ;./keypad.h: 31:         Key=1;
  2115  007416  0E01               	movlw	1
  2116  007418  6E01               	movwf	Key_Press@Key^0,c
  2117  00741A                     l1202:
  2118                           
  2119                           ;./keypad.h: 33:     if(PORTDbits.RD1){
  2120  00741A  A283               	btfss	131,1,c	;volatile
  2121  00741C  EF12  F03A         	goto	u811
  2122  007420  EF14  F03A         	goto	u810
  2123  007424                     u811:
  2124  007424  EF16  F03A         	goto	l1206
  2125  007428                     u810:
  2126  007428                     
  2127                           ;./keypad.h: 34:         Key=4;
  2128  007428  0E04               	movlw	4
  2129  00742A  6E01               	movwf	Key_Press@Key^0,c
  2130  00742C                     l1206:
  2131                           
  2132                           ;./keypad.h: 36:     if(PORTDbits.RD2){
  2133  00742C  A483               	btfss	131,2,c	;volatile
  2134  00742E  EF1B  F03A         	goto	u821
  2135  007432  EF1D  F03A         	goto	u820
  2136  007436                     u821:
  2137  007436  EF1F  F03A         	goto	l1210
  2138  00743A                     u820:
  2139  00743A                     
  2140                           ;./keypad.h: 37:         Key=7;
  2141  00743A  0E07               	movlw	7
  2142  00743C  6E01               	movwf	Key_Press@Key^0,c
  2143  00743E                     l1210:
  2144                           
  2145                           ;./keypad.h: 39:     if(PORTDbits.RD3){
  2146  00743E  A683               	btfss	131,3,c	;volatile
  2147  007440  EF24  F03A         	goto	u831
  2148  007444  EF26  F03A         	goto	u830
  2149  007448                     u831:
  2150  007448  EF28  F03A         	goto	l25
  2151  00744C                     u830:
  2152  00744C                     
  2153                           ;./keypad.h: 40:         Key='*';
  2154  00744C  0E2A               	movlw	42
  2155  00744E  6E01               	movwf	Key_Press@Key^0,c
  2156  007450                     l25:
  2157                           
  2158                           ;./keypad.h: 43:     PORTD = 0b00100000;
  2159  007450  0E20               	movlw	32
  2160  007452  6E83               	movwf	131,c	;volatile
  2161  007454                     
  2162                           ;./keypad.h: 44:     if(PORTDbits.RD0){
  2163  007454  A083               	btfss	131,0,c	;volatile
  2164  007456  EF2F  F03A         	goto	u841
  2165  00745A  EF31  F03A         	goto	u840
  2166  00745E                     u841:
  2167  00745E  EF33  F03A         	goto	l1218
  2168  007462                     u840:
  2169  007462                     
  2170                           ;./keypad.h: 45:         Key=2;
  2171  007462  0E02               	movlw	2
  2172  007464  6E01               	movwf	Key_Press@Key^0,c
  2173  007466                     l1218:
  2174                           
  2175                           ;./keypad.h: 47:     if(PORTDbits.RD1){
  2176  007466  A283               	btfss	131,1,c	;volatile
  2177  007468  EF38  F03A         	goto	u851
  2178  00746C  EF3A  F03A         	goto	u850
  2179  007470                     u851:
  2180  007470  EF3C  F03A         	goto	l1222
  2181  007474                     u850:
  2182  007474                     
  2183                           ;./keypad.h: 48:         Key=5;
  2184  007474  0E05               	movlw	5
  2185  007476  6E01               	movwf	Key_Press@Key^0,c
  2186  007478                     l1222:
  2187                           
  2188                           ;./keypad.h: 50:     if(PORTDbits.RD2){
  2189  007478  A483               	btfss	131,2,c	;volatile
  2190  00747A  EF41  F03A         	goto	u861
  2191  00747E  EF43  F03A         	goto	u860
  2192  007482                     u861:
  2193  007482  EF45  F03A         	goto	l1226
  2194  007486                     u860:
  2195  007486                     
  2196                           ;./keypad.h: 51:         Key=8;
  2197  007486  0E08               	movlw	8
  2198  007488  6E01               	movwf	Key_Press@Key^0,c
  2199  00748A                     l1226:
  2200                           
  2201                           ;./keypad.h: 53:     if(PORTDbits.RD3){
  2202  00748A  A683               	btfss	131,3,c	;volatile
  2203  00748C  EF4A  F03A         	goto	u871
  2204  007490  EF4C  F03A         	goto	u870
  2205  007494                     u871:
  2206  007494  EF4E  F03A         	goto	l29
  2207  007498                     u870:
  2208  007498                     
  2209                           ;./keypad.h: 54:         Key=0;
  2210  007498  0E00               	movlw	0
  2211  00749A  6E01               	movwf	Key_Press@Key^0,c
  2212  00749C                     l29:
  2213                           
  2214                           ;./keypad.h: 57:     PORTD = 0b01000000;
  2215  00749C  0E40               	movlw	64
  2216  00749E  6E83               	movwf	131,c	;volatile
  2217  0074A0                     
  2218                           ;./keypad.h: 58:     if(PORTDbits.RD0){
  2219  0074A0  A083               	btfss	131,0,c	;volatile
  2220  0074A2  EF55  F03A         	goto	u881
  2221  0074A6  EF57  F03A         	goto	u880
  2222  0074AA                     u881:
  2223  0074AA  EF59  F03A         	goto	l1234
  2224  0074AE                     u880:
  2225  0074AE                     
  2226                           ;./keypad.h: 59:         Key=3;
  2227  0074AE  0E03               	movlw	3
  2228  0074B0  6E01               	movwf	Key_Press@Key^0,c
  2229  0074B2                     l1234:
  2230                           
  2231                           ;./keypad.h: 61:     if(PORTDbits.RD1){
  2232  0074B2  A283               	btfss	131,1,c	;volatile
  2233  0074B4  EF5E  F03A         	goto	u891
  2234  0074B8  EF60  F03A         	goto	u890
  2235  0074BC                     u891:
  2236  0074BC  EF62  F03A         	goto	l1238
  2237  0074C0                     u890:
  2238  0074C0                     
  2239                           ;./keypad.h: 62:         Key=6;
  2240  0074C0  0E06               	movlw	6
  2241  0074C2  6E01               	movwf	Key_Press@Key^0,c
  2242  0074C4                     l1238:
  2243                           
  2244                           ;./keypad.h: 64:     if(PORTDbits.RD2){
  2245  0074C4  A483               	btfss	131,2,c	;volatile
  2246  0074C6  EF67  F03A         	goto	u901
  2247  0074CA  EF69  F03A         	goto	u900
  2248  0074CE                     u901:
  2249  0074CE  EF6B  F03A         	goto	l1242
  2250  0074D2                     u900:
  2251  0074D2                     
  2252                           ;./keypad.h: 65:         Key=9;
  2253  0074D2  0E09               	movlw	9
  2254  0074D4  6E01               	movwf	Key_Press@Key^0,c
  2255  0074D6                     l1242:
  2256                           
  2257                           ;./keypad.h: 67:     if(PORTDbits.RD3){
  2258  0074D6  A683               	btfss	131,3,c	;volatile
  2259  0074D8  EF70  F03A         	goto	u911
  2260  0074DC  EF72  F03A         	goto	u910
  2261  0074E0                     u911:
  2262  0074E0  EF74  F03A         	goto	l33
  2263  0074E4                     u910:
  2264  0074E4                     
  2265                           ;./keypad.h: 68:         Key='#';
  2266  0074E4  0E23               	movlw	35
  2267  0074E6  6E01               	movwf	Key_Press@Key^0,c
  2268  0074E8                     l33:
  2269                           
  2270                           ;./keypad.h: 71:     return Key;
  2271  0074E8  5001               	movf	Key_Press@Key^0,w,c
  2272  0074EA  0012               	return		;funcret
  2273  0074EC                     __end_of_Key_Press:
  2274                           	callstack 0
  2275  0000                     
  2276                           	psect	rparam
  2277  0000                     
  2278                           	psect	idloc
  2279                           
  2280                           ;Config register IDLOC0 @ 0x200000
  2281                           ;	unspecified, using default values
  2282  200000                     	org	2097152
  2283  200000  FF                 	db	255
  2284                           
  2285                           ;Config register IDLOC1 @ 0x200001
  2286                           ;	unspecified, using default values
  2287  200001                     	org	2097153
  2288  200001  FF                 	db	255
  2289                           
  2290                           ;Config register IDLOC2 @ 0x200002
  2291                           ;	unspecified, using default values
  2292  200002                     	org	2097154
  2293  200002  FF                 	db	255
  2294                           
  2295                           ;Config register IDLOC3 @ 0x200003
  2296                           ;	unspecified, using default values
  2297  200003                     	org	2097155
  2298  200003  FF                 	db	255
  2299                           
  2300                           ;Config register IDLOC4 @ 0x200004
  2301                           ;	unspecified, using default values
  2302  200004                     	org	2097156
  2303  200004  FF                 	db	255
  2304                           
  2305                           ;Config register IDLOC5 @ 0x200005
  2306                           ;	unspecified, using default values
  2307  200005                     	org	2097157
  2308  200005  FF                 	db	255
  2309                           
  2310                           ;Config register IDLOC6 @ 0x200006
  2311                           ;	unspecified, using default values
  2312  200006                     	org	2097158
  2313  200006  FF                 	db	255
  2314                           
  2315                           ;Config register IDLOC7 @ 0x200007
  2316                           ;	unspecified, using default values
  2317  200007                     	org	2097159
  2318  200007  FF                 	db	255
  2319                           
  2320                           	psect	config
  2321                           
  2322                           ;Config register CONFIG1L @ 0x300000
  2323                           ;	PLL Prescaler Selection bits
  2324                           ;	PLLDIV = 1, No prescale (4 MHz oscillator input drives PLL directly)
  2325                           ;	System Clock Postscaler Selection bits
  2326                           ;	CPUDIV = OSC1_PLL2, [Primary Oscillator Src: /1][96 MHz PLL Src: /2]
  2327                           ;	USB Clock Selection bit (used in Full-Speed USB mode only; UCFG:FSEN = 1)
  2328                           ;	USBDIV = 1, USB clock source comes directly from the primary oscillator block with no 
      +                          postscale
  2329  300000                     	org	3145728
  2330  300000  00                 	db	0
  2331                           
  2332                           ;Config register CONFIG1H @ 0x300001
  2333                           ;	Oscillator Selection bits
  2334                           ;	FOSC = INTOSC_EC, Internal oscillator, CLKO function on RA6, EC used by USB (INTCKO)
  2335                           ;	Fail-Safe Clock Monitor Enable bit
  2336                           ;	FCMEN = OFF, Fail-Safe Clock Monitor disabled
  2337                           ;	Internal/External Oscillator Switchover bit
  2338                           ;	IESO = OFF, Oscillator Switchover mode disabled
  2339  300001                     	org	3145729
  2340  300001  09                 	db	9
  2341                           
  2342                           ;Config register CONFIG2L @ 0x300002
  2343                           ;	Power-up Timer Enable bit
  2344                           ;	PWRT = OFF, PWRT disabled
  2345                           ;	Brown-out Reset Enable bits
  2346                           ;	BOR = ON, Brown-out Reset enabled in hardware only (SBOREN is disabled)
  2347                           ;	Brown-out Reset Voltage bits
  2348                           ;	BORV = 3, Minimum setting 2.05V
  2349                           ;	USB Voltage Regulator Enable bit
  2350                           ;	VREGEN = OFF, USB voltage regulator disabled
  2351  300002                     	org	3145730
  2352  300002  1F                 	db	31
  2353                           
  2354                           ;Config register CONFIG2H @ 0x300003
  2355                           ;	Watchdog Timer Enable bit
  2356                           ;	WDT = OFF, WDT disabled (control is placed on the SWDTEN bit)
  2357                           ;	Watchdog Timer Postscale Select bits
  2358                           ;	WDTPS = 32768, 1:32768
  2359  300003                     	org	3145731
  2360  300003  1E                 	db	30
  2361                           
  2362                           ; Padding undefined space
  2363  300004                     	org	3145732
  2364  300004  FF                 	db	255
  2365                           
  2366                           ;Config register CONFIG3H @ 0x300005
  2367                           ;	CCP2 MUX bit
  2368                           ;	CCP2MX = ON, CCP2 input/output is multiplexed with RC1
  2369                           ;	PORTB A/D Enable bit
  2370                           ;	PBADEN = OFF, PORTB<4:0> pins are configured as digital I/O on Reset
  2371                           ;	Low-Power Timer 1 Oscillator Enable bit
  2372                           ;	LPT1OSC = OFF, Timer1 configured for higher power operation
  2373                           ;	MCLR Pin Enable bit
  2374                           ;	MCLRE = ON, MCLR pin enabled; RE3 input pin disabled
  2375  300005                     	org	3145733
  2376  300005  81                 	db	129
  2377                           
  2378                           ;Config register CONFIG4L @ 0x300006
  2379                           ;	Stack Full/Underflow Reset Enable bit
  2380                           ;	STVREN = ON, Stack full/underflow will cause Reset
  2381                           ;	Single-Supply ICSP Enable bit
  2382                           ;	LVP = OFF, Single-Supply ICSP disabled
  2383                           ;	Dedicated In-Circuit Debug/Programming Port (ICPORT) Enable bit
  2384                           ;	ICPRT = OFF, ICPORT disabled
  2385                           ;	Extended Instruction Set Enable bit
  2386                           ;	XINST = OFF, Instruction set extension and Indexed Addressing mode disabled (Legacy mo
      +                          de)
  2387                           ;	Background Debugger Enable bit
  2388                           ;	DEBUG = 0x1, unprogrammed default
  2389  300006                     	org	3145734
  2390  300006  81                 	db	129
  2391                           
  2392                           ; Padding undefined space
  2393  300007                     	org	3145735
  2394  300007  FF                 	db	255
  2395                           
  2396                           ;Config register CONFIG5L @ 0x300008
  2397                           ;	Code Protection bit
  2398                           ;	CP0 = OFF, Block 0 (000800-001FFFh) is not code-protected
  2399                           ;	Code Protection bit
  2400                           ;	CP1 = OFF, Block 1 (002000-003FFFh) is not code-protected
  2401                           ;	Code Protection bit
  2402                           ;	CP2 = OFF, Block 2 (004000-005FFFh) is not code-protected
  2403                           ;	Code Protection bit
  2404                           ;	CP3 = OFF, Block 3 (006000-007FFFh) is not code-protected
  2405  300008                     	org	3145736
  2406  300008  0F                 	db	15
  2407                           
  2408                           ;Config register CONFIG5H @ 0x300009
  2409                           ;	Boot Block Code Protection bit
  2410                           ;	CPB = OFF, Boot block (000000-0007FFh) is not code-protected
  2411                           ;	Data EEPROM Code Protection bit
  2412                           ;	CPD = OFF, Data EEPROM is not code-protected
  2413  300009                     	org	3145737
  2414  300009  C0                 	db	192
  2415                           
  2416                           ;Config register CONFIG6L @ 0x30000A
  2417                           ;	Write Protection bit
  2418                           ;	WRT0 = OFF, Block 0 (000800-001FFFh) is not write-protected
  2419                           ;	Write Protection bit
  2420                           ;	WRT1 = OFF, Block 1 (002000-003FFFh) is not write-protected
  2421                           ;	Write Protection bit
  2422                           ;	WRT2 = OFF, Block 2 (004000-005FFFh) is not write-protected
  2423                           ;	Write Protection bit
  2424                           ;	WRT3 = OFF, Block 3 (006000-007FFFh) is not write-protected
  2425  30000A                     	org	3145738
  2426  30000A  0F                 	db	15
  2427                           
  2428                           ;Config register CONFIG6H @ 0x30000B
  2429                           ;	Configuration Register Write Protection bit
  2430                           ;	WRTC = OFF, Configuration registers (300000-3000FFh) are not write-protected
  2431                           ;	Boot Block Write Protection bit
  2432                           ;	WRTB = OFF, Boot block (000000-0007FFh) is not write-protected
  2433                           ;	Data EEPROM Write Protection bit
  2434                           ;	WRTD = OFF, Data EEPROM is not write-protected
  2435  30000B                     	org	3145739
  2436  30000B  E0                 	db	224
  2437                           
  2438                           ;Config register CONFIG7L @ 0x30000C
  2439                           ;	Table Read Protection bit
  2440                           ;	EBTR0 = OFF, Block 0 (000800-001FFFh) is not protected from table reads executed in ot
      +                          her blocks
  2441                           ;	Table Read Protection bit
  2442                           ;	EBTR1 = OFF, Block 1 (002000-003FFFh) is not protected from table reads executed in ot
      +                          her blocks
  2443                           ;	Table Read Protection bit
  2444                           ;	EBTR2 = OFF, Block 2 (004000-005FFFh) is not protected from table reads executed in ot
      +                          her blocks
  2445                           ;	Table Read Protection bit
  2446                           ;	EBTR3 = OFF, Block 3 (006000-007FFFh) is not protected from table reads executed in ot
      +                          her blocks
  2447  30000C                     	org	3145740
  2448  30000C  0F                 	db	15
  2449                           
  2450                           ;Config register CONFIG7H @ 0x30000D
  2451                           ;	Boot Block Table Read Protection bit
  2452                           ;	EBTRB = OFF, Boot block (000000-0007FFh) is not protected from table reads executed in
      +                           other blocks
  2453  30000D                     	org	3145741
  2454  30000D  40                 	db	64
  2455                           tosu	equ	0xFFF
  2456                           tosh	equ	0xFFE
  2457                           tosl	equ	0xFFD
  2458                           stkptr	equ	0xFFC
  2459                           pclatu	equ	0xFFB
  2460                           pclath	equ	0xFFA
  2461                           pcl	equ	0xFF9
  2462                           tblptru	equ	0xFF8
  2463                           tblptrh	equ	0xFF7
  2464                           tblptrl	equ	0xFF6
  2465                           tablat	equ	0xFF5
  2466                           prodh	equ	0xFF4
  2467                           prodl	equ	0xFF3
  2468                           indf0	equ	0xFEF
  2469                           postinc0	equ	0xFEE
  2470                           postdec0	equ	0xFED
  2471                           preinc0	equ	0xFEC
  2472                           plusw0	equ	0xFEB
  2473                           fsr0h	equ	0xFEA
  2474                           fsr0l	equ	0xFE9
  2475                           wreg	equ	0xFE8
  2476                           indf1	equ	0xFE7
  2477                           postinc1	equ	0xFE6
  2478                           postdec1	equ	0xFE5
  2479                           preinc1	equ	0xFE4
  2480                           plusw1	equ	0xFE3
  2481                           fsr1h	equ	0xFE2
  2482                           fsr1l	equ	0xFE1
  2483                           bsr	equ	0xFE0
  2484                           indf2	equ	0xFDF
  2485                           postinc2	equ	0xFDE
  2486                           postdec2	equ	0xFDD
  2487                           preinc2	equ	0xFDC
  2488                           plusw2	equ	0xFDB
  2489                           fsr2h	equ	0xFDA
  2490                           fsr2l	equ	0xFD9
  2491                           status	equ	0xFD8

Data Sizes:
    Strings     0
    Constant    0
    Data        0
    BSS         0
    Persistent  0
    Stack       0

Auto Spaces:
    Space          Size  Autos    Used
    COMRAM           95     64      64
    BANK0           160      0       0
    BANK1           256      0       0
    BANK2           256      0       0
    BANK3           256      0       0
    BANK4           256      0       0
    BANK5           256      0       0
    BANK6           256      0       0
    BANK7           256      0       0

Pointer List with Targets:

    None.

Critical Paths under _main in COMRAM

    _main->_USART_Init
    _USART_Init->___fladd
    ___fldiv->___xxtofl
    ___fladd->___fldiv

Critical Paths under _main in BANK0

    None.

Critical Paths under _main in BANK1

    None.

Critical Paths under _main in BANK2

    None.

Critical Paths under _main in BANK3

    None.

Critical Paths under _main in BANK4

    None.

Critical Paths under _main in BANK5

    None.

Critical Paths under _main in BANK6

    None.

Critical Paths under _main in BANK7

    None.

Call Graph Tables:

 ---------------------------------------------------------------------------------
 (Depth) Function   	        Calls       Base Space   Used Autos Params    Refs
 ---------------------------------------------------------------------------------
 (0) _main                                                 1     1      0    4667
                                             63 COMRAM     1     1      0
                          _Key_Press
                        _Keypad_Init
                         _USART_Init
                       _USART_TxChar
 ---------------------------------------------------------------------------------
 (1) _USART_TxChar                                         1     1      0      15
                                              0 COMRAM     1     1      0
 ---------------------------------------------------------------------------------
 (1) _USART_Init                                           8     4      4    4611
                                             55 COMRAM     8     4      4
                            ___fladd
                            ___fldiv
                            ___fltol
                           ___xxtofl
 ---------------------------------------------------------------------------------
 (2) ___xxtofl                                            14    10      4     398
                                              0 COMRAM    14    10      4
 ---------------------------------------------------------------------------------
 (2) ___fltol                                             10     6      4     305
                                              0 COMRAM    10     6      4
 ---------------------------------------------------------------------------------
 (2) ___fldiv                                             25    17      8    1399
                                             14 COMRAM    25    17      8
                           ___xxtofl (ARG)
 ---------------------------------------------------------------------------------
 (2) ___fladd                                             16     8      8    2388
                                             39 COMRAM    16     8      8
                            ___fldiv (ARG)
                           ___xxtofl (ARG)
 ---------------------------------------------------------------------------------
 (1) _Keypad_Init                                          0     0      0       0
 ---------------------------------------------------------------------------------
 (1) _Key_Press                                            1     1      0      15
                                              0 COMRAM     1     1      0
 ---------------------------------------------------------------------------------
 Estimated maximum stack depth 2
 ---------------------------------------------------------------------------------

 Call Graph Graphs:

 _main (ROOT)
   _Key_Press
   _Keypad_Init
   _USART_Init
     ___fladd
       ___fldiv (ARG)
         ___xxtofl (ARG)
       ___xxtofl (ARG)
     ___fldiv
     ___fltol
     ___xxtofl
   _USART_TxChar

 Address spaces:
Name               Size   Autos  Total    Cost      Usage
BITCOMRAM           5F      0       0       0        0.0%
EEDATA             100      0       0       0        0.0%
NULL                 0      0       0       0        0.0%
CODE                 0      0       0       0        0.0%
COMRAM              5F     40      40       1       67.4%
STACK                0      0       0       2        0.0%
DATA                 0      0       0       3        0.0%
BITBANK0            A0      0       0       4        0.0%
BANK0               A0      0       0       5        0.0%
BITBANK1           100      0       0       6        0.0%
BANK1              100      0       0       7        0.0%
BITBANK2           100      0       0       8        0.0%
BANK2              100      0       0       9        0.0%
BITBANK3           100      0       0      10        0.0%
BANK3              100      0       0      11        0.0%
BITBANK4           100      0       0      12        0.0%
BANK4              100      0       0      13        0.0%
BITBANK5           100      0       0      14        0.0%
BANK5              100      0       0      15        0.0%
BITBANK6           100      0       0      16        0.0%
BANK6              100      0       0      17        0.0%
BITBANK7           100      0       0      18        0.0%
BANK7              100      0       0      19        0.0%
BITBIGSFRhh         3E      0       0      20        0.0%
BITBIGSFRhlh        11      0       0      21        0.0%
BITBIGSFRhlllh       C      0       0      22        0.0%
BITBIGSFRhllll       8      0       0      23        0.0%
BITBIGSFRlhl         F      0       0      24        0.0%
BITBIGSFRllh         1      0       0      25        0.0%
BITBIGSFRlll        21      0       0      26        0.0%
ABS                  0      0       0      27        0.0%
BIGRAM             7FF      0       0      28        0.0%
BIGSFR               0      0       0     200        0.0%
BITSFR               0      0       0     200        0.0%
SFR                  0      0       0     200        0.0%


Microchip Technology PIC18 Macro Assembler V2.36 build 20220127204148 
Symbol Table                                                                                   Wed Mar 09 16:10:44 2022

           ___fldiv@aexp 0027             ___fldiv@bexp 0026             ___fldiv@sign 001F  
                     l33 74E8                       l25 7450                       l34 74EA  
                     l19 72A8                       l29 749C                       l45 73F6  
                     l70 7358                       l73 72B2                       l76 72C4  
                    l620 7D1C                      l621 7CE2                      l619 7D2E  
                    l636 7E48                      l628 7FFE                      l388 75F0  
                    l645 7F18                      l646 7F06                      l760 773C  
                    l673 7B3E                      l753 76E0                      l746 7648  
                    l675 799E                      l684 79E4                      l749 77A4  
                    l686 7A5C                      l678 7962                      l687 7A4A  
                    u800 7416                      u801 7412                      u810 7428  
                    u811 7424                      u900 74D2                      u820 743A  
                    u901 74CE                      u821 7436                      u910 74E4  
                    u830 744C                      u911 74E0                      u831 7448  
                    u840 7462                      u920 72C0                      u841 745E  
                    u921 72BC                      u850 7474                      u851 7470  
                    u860 7486                      u861 7482                      u870 7498  
                    u871 7494                      u880 74AE                      u881 74AA  
                    u890 74C0                      u891 74BC                      u990 7B5A  
                    u991 7B56                      wreg 000FE8             ___fltol@exp1 000A  
                   l1200 7416                     l1210 743E                     l1202 741A  
                   l1220 7474                     l1212 744C                     l1204 7428  
                   l1230 74A0                     l1222 7478                     l1214 7454  
                   l1206 742C                     l1310 7B6C                     l1302 7B40  
                   l1240 74D2                     l1232 74AE                     l1224 7486  
                   l1216 7462                     l1208 743A                     l1400 7D1A  
                   l1320 7BA6                     l1312 7B7C                     l1304 7B4C  
                   l1242 74D6                     l1234 74B2                     l1226 748A  
                   l1218 7466                     l1410 7D70                     l1402 7D3C  
                   l1330 7BD4                     l1322 7BAC                     l1314 7B8C  
                   l1306 7B5A                     l1244 74E4                     l1236 74C0  
                   l1228 7498                     l1500 7FEE                     l1420 7DAA  
                   l1412 7D7E                     l1404 7D4C                     l1340 7C08  
                   l1332 7BD6                     l1324 7BBE                     l1316 7B8E  
                   l1308 7B5C                     l1238 74C4                     l1430 7E16  
                   l1422 7DAC                     l1414 7D8C                     l1350 7C44  
                   l1334 7BE6                     l1342 7C10                     l1326 7BC0  
                   l1318 7B96                     l1510 77C2                     l1440 7E6E  
                   l1432 7E18                     l1424 7DB6                     l1416 7D98  
                   l1408 7D60                     l1360 7C58                     l1352 7C48  
                   l1344 7C20                     l1336 7BF6                     l1328 7BC6  
                   l1600 7A02                     l1512 77D2                     l1520 77FC  
                   l1504 77A6                     l1256 72B2                     l1194 72A4  
                   l1450 7E9C                     l1434 7E28                     l1418 7D9C  
                   l1426 7DBC                     l1370 7C6C                     l1362 7C5C  
                   l1354 7C4C                     l1346 7C32                     l1338 7C06  
                   l1610 7A6C                     l1602 7A06                     l1530 7828  
                   l1522 780C                     l1514 77E2                     l1506 77B2  
                   l1258 72C0                     l1196 7400                     l1452 7EAA  
                   l1444 7E82                     l1460 7EC8                     l1428 7DE2  
                   l1436 7E38                     l1372 7C70                     l1364 7C60  
                   l1356 7C50                     l1348 7C40                     l1380 7C80  
                   l1620 7ACE                     l1612 7A78                     l1604 7A14  
                   l1532 7838                     l1540 7862                     l1524 7812  
                   l1516 77F2                     l1508 77C0                     l1700 768A  
                   l1198 7408                     l1454 7EB2                     l1446 7E8C  
                   l1438 7E5E                     l1462 7ED6                     l1390 7CF0  
                   l1382 7C84                     l1374 7C74                     l1366 7C64  
                   l1358 7C54                     l1630 7B2C                     l1622 7AE4  
                   l1614 7A86                     l1606 7A42                     l1550 78A4  
                   l1542 7872                     l1534 7848                     l1526 7818  
                   l1518 77F4                     l1710 7712                     l1702 7696  
                   l1472 7F28                     l1480 7F7E                     l1464 7EDA  
                   l1456 7EB6                     l1448 7E9A                     l1392 7CFC  
                   l1384 7CAE                     l1376 7C78                     l1368 7C68  
                   l1632 7B32                     l1624 7AFE                     l1616 7AB0  
                   l1544 7888                     l1536 7858                     l1528 7826  
                   l1720 7750                     l1712 771E                     l1704 76C8  
                   l1490 7FD0                     l1482 7F8E                     l1474 7F34  
                   l1466 7EE8                     l1458 7EC6                     l1394 7D00  
                   l1386 7CCA                     l1378 7C7C                     l1634 7B34  
                   l1626 7B1A                     l1618 7AB4                     l1570 7926  
                   l1562 78DC                     l1546 7898                     l1554 78B8  
                   l1538 785A                     l1650 7540                     l1642 74EC  
                   l1722 7774                     l1714 772C                     l1706 76CA  
                   l1492 7FD6                     l1484 7F9E                     l1476 7F42  
                   l1468 7EFE                     l1396 7D0E                     l1388 7CDA  
                   l1628 7B1E                     l1580 796C                     l1572 792E  
                   l1564 78F6                     l1556 78C8                     l1548 78A0  
                   l1652 7542                     l1644 7502                     l1724 7784  
                   l1716 774A                     l1708 76D6                     l1732 72C6  
                   l1740 735A                     l1494 7FD8                     l1486 7FBE  
                   l1478 7F7C                     l1398 7D10                     l1590 79C4  
                   l1582 798A                     l1574 793E                     l1566 7906  
                   l1558 78C8                     l1654 7552                     l1726 7792  
                   l1718 774C                     l1734 72CA                     l1750 7396  
                   l1742 7366                     l1496 7FDE                     l1488 7FC2  
                   l1592 79CA                     l1584 798C                     l1576 7952  
                   l1568 7916                     l1680 75D0                     l1664 757C  
                   l1656 7556                     l1648 7516                     l1728 7794  
                   l1736 7350                     l1760 73D6                     l1752 73A0  
                   l1744 737A                     l1498 7FEC                     l1594 79D4  
                   l1586 799C                     l1578 7960                     l1682 75E0  
                   l1674 75A4                     l1666 7586                     l1658 7564  
                   l1690 7612                     l1738 7354                     l1762 73DA  
                   l1754 73B4                     l1746 737E                     l1596 79E2  
                   l1588 79AE                     l1676 75B0                     l1668 7590  
                   l1692 7658                     l1756 73B8                     l1764 73E0  
                   l1748 7392                     l1598 79F4                     l1678 75C0  
                   l1694 766E                     l1686 75F4                     l1766 73F0  
                   l1758 73C2                     l1688 7604                     l1698 7682  
                   u1000 7B6C                     u1001 7B68                     u1010 7B7C  
                   u1011 7B78                     u1100 7CC8                     u1020 7BBE  
                   u1021 7BBA                     u1110 7CF0                     u1030 7BD4  
                   u1111 7CEC                     u1031 7BD0                     u1200 7E28  
                   u1120 7D0E                     u1040 7BE6                     u1201 7E24  
                   u1121 7D0A                     u1041 7BE2                     u1210 7E5E  
                   u1130 7D2E                     u1050 7BF6                     u1211 7E5A  
                   u1131 7D2A                     u1051 7BF2                     u1300 7F28  
                   u1220 7E6E                     u1140 7D3C                     u1060 7C32  
                   u1301 7F24                     u1221 7E6A                     u1141 7D38  
                   u1061 7C2E                     u1310 7F42                     u1230 7E9A  
                   u1150 7D4C                     u1070 7C40                     u1311 7F3E  
                   u1231 7E96                     u1151 7D48                     u1071 7C3C  
                   u1320 7F7C                     u1240 7EAA                     u1160 7D7E  
                   u1080 7CAE                     u1400 77E2                     u1321 7F78  
                   u1241 7EA6                     u1161 7D7A                     u1081 7CAA  
                   u1401 77DE                     u1330 7F8E                     u1250 7EC6  
                   u1170 7D8C                     u1090 7CC6                     u1410 7826  
                   u1331 7F8A                     u1251 7EC2                     u1171 7D88  
                   u1091 7CC0                     u1411 7822                     u1340 7F9E  
                   u1260 7ED6                     u1180 7DAA                     u1500 79C4  
                   u1420 7838                     u1341 7F9A                     u1261 7ED2  
                   u1181 7DA6                     u1501 79C0                     u1421 7834  
                   u1350 7FBE                     u1270 7EE8                     u1190 7DE2  
                   u1510 79E2                     u1430 7848                     u1351 7FBA  
                   u1271 7EE4                     u1191 7DDE                     u1511 79DE  
                   u1431 7844                     u1360 7FD0                     u1280 7EFE  
                   u1600 7B2C                     u1520 7A02                     u1440 7888  
                   u1361 7FCC                     u1281 7EFA                     u1601 7B28  
                   u1521 79FE                     u1441 7884                     u1370 7FEC  
                   u1290 7F14                     u1530 7A14                     u1450 78C8  
                   u1610 7502                     u1371 7FE8                     u1291 7F10  
                   u1531 7A10                     u1451 78C4                     u1611 74FE  
                   u1540 7A42                     u1460 793E                     u1380 77C0  
                   u1620 7536                     u1700 766E                     u1541 7A3E  
                   u1461 793A                     u1381 77BC                     u1701 766A  
                   u1550 7A58                     u1470 7960                     u1390 77D2  
                   u1630 7564                     u1710 76C4                     u1551 7A54  
                   u1471 795C                     u1391 77CE                     u1631 7560  
                   u1711 76C0                     u1560 7A6C                     u1480 798A  
                   u1640 7578                     u1720 770E                     u1800 73D6  
                   u1561 7A68                     u1481 7986                     u1641 7574  
                   u1625 752C                     u1721 770A                     u1801 73D2  
                   u1570 7A86                     u1490 79AE                     u1650 75A0  
                   u1730 772C                     u1810 73F0                     u1571 7A82  
                   u1491 79AA                     u1651 759C                     u1731 7728  
                   u1811 73EC                     u1580 7ACE                     u1660 75C0  
                   u1740 773C                     u1581 7ACA                     u1661 75BC  
                   u1741 7738                     u1590 7AFE                     u1670 75D0  
                   u1750 774A                     u1591 7AFA                     u1671 75CC  
                   u1751 7746                     u1760 7784                     u1680 7604  
                   u1761 7780                     u1681 7600                     u1770 7792  
                   u1690 7612                     u1771 778E                     u1691 760E  
                   u1780 7392                     u1781 738E                     u1790 73B4  
                   u1791 73B0                     _RCIF 007CF5                     _TXIF 007CF4  
                   _main 735A                     start 0000          ___fldiv@new_exp 0020  
           ___param_bank 000000            ___fltol@sign1 0009          __end_of___fladd 8000  
                  ?_main 0001          __end_of___fldiv 7B40          __end_of___fltol 75F2  
                  _RCREG 000FAE            ??_Keypad_Init 0001                    _RCSTA 000FAB  
                  _SPBRG 000FAF                    _PORTD 000F83                    _TRISB 000F93  
                  _TRISD 000F95             main@auxvalor 0040                    _TXREG 000FAD  
                  _TXSTA 000FAC                    status 000FD8              ?_USART_Init 0038  
        __initialization 72AA             __end_of_main 7400             Key_Press@Key 0001  
                 ??_main 0040            __activetblptr 000000                   _ADCON1 000FC1  
    __end_of_Keypad_Init 72AA                   _TRISC6 007CA6                   _TRISC7 007CA7  
       __end_of___xxtofl 77A6                ??___fladd 0030                ??___fldiv 0017  
              ??___fltol 0005                   isa$std 000001             ___xxtofl@arg 000B  
           ___xxtofl@exp 000A             ___xxtofl@val 0001               __accesstop 0060  
__end_of__initialization 72AA            ___rparam_used 000001               ___fltol@f1 0001  
         __pcstackCOMRAM 0001        __end_of_Key_Press 74EC              _Keypad_Init 72A4  
              ?___xxtofl 0001             ??_USART_Init 003C                  __Hparam 0000  
                __Lparam 0000                  ___fladd 7B40                  ___fldiv 77A6  
                ___fltol 74EC                  __pcinit 72AA                  __ramtop 0800  
                __ptext0 735A                  __ptext1 72B0                  __ptext2 72C6  
                __ptext3 75F2                  __ptext4 74EC                  __ptext5 77A6  
                __ptext6 7B40                  __ptext7 72A4                  __ptext8 7400  
         USART_Init@temp 003C               ??___xxtofl 0005       __end_of_USART_Init 735A  
   end_of_initialization 72AA                _PORTBbits 000F81                _PORTDbits 000F83  
            ___fladd@grs 0037            ___xxtofl@sign 0009              ___fldiv@grs 0022  
            ___fldiv@rem 001B      USART_Init@baud_rate 0038            ?_USART_TxChar 0001  
           ?_Keypad_Init 0001      start_initialization 72AA                _Key_Press 7400  
         ??_USART_TxChar 0001                ___fladd@a 002C                ___fladd@b 0028  
              ___fldiv@a 0013                ___fldiv@b 000F               ?_Key_Press 0001  
               ?___fladd 0028                 ?___fldiv 000F                 ?___fltol 0001  
   __end_of_USART_TxChar 72C6              ??_Key_Press 0001                 __Hrparam 0000  
               __Lrparam 0000                 ___xxtofl 75F2                 isa$xinst 000000  
        USART_TxChar@out 0001            ___fladd@signs 0034             ___fladd@aexp 0035  
           ___fladd@bexp 0036             _USART_TxChar 72B0               _USART_Init 72C6  
