

Microchip MPLAB XC8 Assembler V2.36 build 20220127204148 
                                                                                               Thu Mar 10 17:00:51 2022

Microchip MPLAB XC8 C Compiler v2.36 (Free license) build 20220127204148 Og1 
     1                           	processor	18F4550
     2                           	fnconf	rparam,??,?,0
     3                           	pagewidth 120
     4                           	opt	flic
     5                           	psect	cinit,global,reloc=2,class=CODE,delta=1
     6                           	psect	cstackCOMRAM,global,class=COMRAM,space=1,delta=1,lowdata,noexec
     7                           	psect	text0,global,reloc=2,class=CODE,delta=1
     8                           	psect	text1,global,reloc=2,class=CODE,delta=1
     9                           	psect	text2,global,reloc=2,class=CODE,delta=1
    10                           	psect	text3,global,reloc=2,class=CODE,delta=1,group=1
    11                           	psect	text4,global,reloc=2,class=CODE,delta=1,group=1
    12                           	psect	text5,global,reloc=2,class=CODE,delta=1,group=1
    13                           	psect	text6,global,reloc=2,class=CODE,delta=1,group=1
    14                           	psect	text7,global,reloc=2,class=CODE,delta=1
    15                           	psect	text8,global,reloc=2,class=CODE,delta=1
    16                           	psect	intsave_regs,global,class=BIGRAM,space=1,delta=1,noexec
    17                           	psect	rparam,global,class=COMRAM,space=1,delta=1,noexec
    18                           	psect	idloc,global,abs,ovrld,class=IDLOC,space=5,delta=1,noexec
    19                           	psect	config,global,abs,ovrld,class=CONFIG,space=4,delta=1,noexec
    20  0000                     
    21                           ; Version 2.40
    22                           ; Generated 17/11/2021 GMT
    23                           ; 
    24                           ; Copyright © 2021, Microchip Technology Inc. and its subsidiaries ("Microchip")
    25                           ; All rights reserved.
    26                           ; 
    27                           ; This software is developed by Microchip Technology Inc. and its subsidiaries ("Microch
      +                          ip").
    28                           ; 
    29                           ; Redistribution and use in source and binary forms, with or without modification, are
    30                           ; permitted provided that the following conditions are met:
    31                           ; 
    32                           ;     1. Redistributions of source code must retain the above copyright notice, this lis
      +                          t of
    33                           ;        conditions and the following disclaimer.
    34                           ; 
    35                           ;     2. Redistributions in binary form must reproduce the above copyright notice, this 
      +                          list
    36                           ;        of conditions and the following disclaimer in the documentation and/or other
    37                           ;        materials provided with the distribution. Publication is not required when
    38                           ;        this file is used in an embedded application.
    39                           ; 
    40                           ;     3. Microchip's name may not be used to endorse or promote products derived from th
      +                          is
    41                           ;        software without specific prior written permission.
    42                           ; 
    43                           ; THIS SOFTWARE IS PROVIDED BY MICROCHIP "AS IS" AND ANY EXPRESS OR IMPLIED WARRANTIES,
    44                           ; INCLUDING, BUT NOT LIMITED TO, THE IMPLIED WARRANTIES OF MERCHANTABILITY AND FITNESS F
      +                          OR
    45                           ; PURPOSE ARE DISCLAIMED.  IN NO EVENT SHALL MICROCHIP BE LIABLE FOR ANY DIRECT, INDIREC
      +                          T,
    46                           ; INCIDENTAL, SPECIAL, EXEMPLARY, OR CONSEQUENTIAL DAMAGES (INCLUDING BUT NOT LIMITED TO
    47                           ; PROCUREMENT OF SUBSTITUTE GOODS OR SERVICES; LOSS OF USE, DATA OR PROFITS; OR BUSINESS
    48                           ; INTERRUPTION) HOWSOEVER CAUSED AND ON ANY THEORY OF LIABILITY, WHETHER IN CONTRACT, ST
      +                          RICT
    49                           ; LIABILITY, OR TORT (INCLUDING NEGLIGENCE OR OTHERWISE) ARISING IN ANY WAY OUT OF THE U
      +                          SE OF
    50                           ; THIS SOFTWARE, EVEN IF ADVISED OF THE POSSIBILITY OF SUCH DAMAGE.
    51                           ; 
    52                           ; 
    53                           ; Code-generator required, PIC18F4550 Definitions
    54                           ; 
    55                           ; SFR Addresses
    56  0000                     _RCREG	set	4014
    57  0000                     _TXREG	set	4013
    58  0000                     _TRISC6	set	31910
    59  0000                     _PORTDbits	set	3971
    60  0000                     _RCIF	set	31989
    61  0000                     _TRISC7	set	31911
    62  0000                     _PORTBbits	set	3969
    63  0000                     _PORTD	set	3971
    64  0000                     _TRISD	set	3989
    65  0000                     _RCSTA	set	4011
    66  0000                     _TXSTA	set	4012
    67  0000                     _SPBRG	set	4015
    68  0000                     _ADCON1	set	4033
    69  0000                     _OSCCON	set	4051
    70  0000                     _TXIF	set	31988
    71  0000                     _TRISB	set	3987
    72                           
    73                           ; #config settings
    74                           
    75                           	psect	cinit
    76  007232                     __pcinit:
    77                           	callstack 0
    78  007232                     start_initialization:
    79                           	callstack 0
    80  007232                     __initialization:
    81                           	callstack 0
    82  007232                     end_of_initialization:
    83                           	callstack 0
    84  007232                     __end_of__initialization:
    85                           	callstack 0
    86  007232  0100               	movlb	0
    87  007234  EF27  F039         	goto	_main	;jump to C main() function
    88                           
    89                           	psect	cstackCOMRAM
    90  000001                     __pcstackCOMRAM:
    91                           	callstack 0
    92  000001                     ?___xxtofl:
    93                           	callstack 0
    94  000001                     Key_Press@Key:
    95                           	callstack 0
    96  000001                     USART_TxChar@out:
    97                           	callstack 0
    98  000001                     ___xxtofl@val:
    99                           	callstack 0
   100                           
   101                           ; 4 bytes @ 0x0
   102  000001                     	ds	4
   103  000005                     ??___xxtofl:
   104                           
   105                           ; 1 bytes @ 0x4
   106  000005                     	ds	4
   107  000009                     ___xxtofl@sign:
   108                           	callstack 0
   109                           
   110                           ; 1 bytes @ 0x8
   111  000009                     	ds	1
   112  00000A                     ___xxtofl@exp:
   113                           	callstack 0
   114                           
   115                           ; 1 bytes @ 0x9
   116  00000A                     	ds	1
   117  00000B                     ___xxtofl@arg:
   118                           	callstack 0
   119                           
   120                           ; 4 bytes @ 0xA
   121  00000B                     	ds	4
   122  00000F                     ?___fldiv:
   123                           	callstack 0
   124  00000F                     ___fldiv@b:
   125                           	callstack 0
   126                           
   127                           ; 4 bytes @ 0xE
   128  00000F                     	ds	4
   129  000013                     ___fldiv@a:
   130                           	callstack 0
   131                           
   132                           ; 4 bytes @ 0x12
   133  000013                     	ds	4
   134  000017                     ??___fldiv:
   135                           
   136                           ; 1 bytes @ 0x16
   137  000017                     	ds	4
   138  00001B                     ___fldiv@rem:
   139                           	callstack 0
   140                           
   141                           ; 4 bytes @ 0x1A
   142  00001B                     	ds	4
   143  00001F                     ___fldiv@sign:
   144                           	callstack 0
   145                           
   146                           ; 1 bytes @ 0x1E
   147  00001F                     	ds	1
   148  000020                     ___fldiv@new_exp:
   149                           	callstack 0
   150                           
   151                           ; 2 bytes @ 0x1F
   152  000020                     	ds	2
   153  000022                     ___fldiv@grs:
   154                           	callstack 0
   155                           
   156                           ; 4 bytes @ 0x21
   157  000022                     	ds	4
   158  000026                     ___fldiv@bexp:
   159                           	callstack 0
   160                           
   161                           ; 1 bytes @ 0x25
   162  000026                     	ds	1
   163  000027                     ___fldiv@aexp:
   164                           	callstack 0
   165                           
   166                           ; 1 bytes @ 0x26
   167  000027                     	ds	1
   168  000028                     ?___fladd:
   169                           	callstack 0
   170  000028                     ___fladd@b:
   171                           	callstack 0
   172                           
   173                           ; 4 bytes @ 0x27
   174  000028                     	ds	4
   175  00002C                     ___fladd@a:
   176                           	callstack 0
   177                           
   178                           ; 4 bytes @ 0x2B
   179  00002C                     	ds	4
   180  000030                     ??___fladd:
   181                           
   182                           ; 1 bytes @ 0x2F
   183  000030                     	ds	4
   184  000034                     ___fladd@signs:
   185                           	callstack 0
   186                           
   187                           ; 1 bytes @ 0x33
   188  000034                     	ds	1
   189  000035                     ___fladd@aexp:
   190                           	callstack 0
   191                           
   192                           ; 1 bytes @ 0x34
   193  000035                     	ds	1
   194  000036                     ___fladd@bexp:
   195                           	callstack 0
   196                           
   197                           ; 1 bytes @ 0x35
   198  000036                     	ds	1
   199  000037                     ___fladd@grs:
   200                           	callstack 0
   201                           
   202                           ; 1 bytes @ 0x36
   203  000037                     	ds	1
   204  000038                     ?___fltol:
   205                           	callstack 0
   206  000038                     ___fltol@f1:
   207                           	callstack 0
   208                           
   209                           ; 4 bytes @ 0x37
   210  000038                     	ds	4
   211  00003C                     ??___fltol:
   212                           
   213                           ; 1 bytes @ 0x3B
   214  00003C                     	ds	4
   215  000040                     ___fltol@sign1:
   216                           	callstack 0
   217                           
   218                           ; 1 bytes @ 0x3F
   219  000040                     	ds	1
   220  000041                     ___fltol@exp1:
   221                           	callstack 0
   222                           
   223                           ; 1 bytes @ 0x40
   224  000041                     	ds	1
   225  000042                     USART_Init@baud_rate:
   226                           	callstack 0
   227                           
   228                           ; 4 bytes @ 0x41
   229  000042                     	ds	4
   230  000046                     main@auxvalor:
   231                           	callstack 0
   232                           
   233                           ; 1 bytes @ 0x45
   234  000046                     	ds	1
   235                           
   236 ;;
   237 ;;Main: autosize = 0, tempsize = 0, incstack = 0, save=0
   238 ;;
   239 ;; *************** function _main *****************
   240 ;; Defined at:
   241 ;;		line 20 in file "LED.c"
   242 ;; Parameters:    Size  Location     Type
   243 ;;		None
   244 ;; Auto vars:     Size  Location     Type
   245 ;;  auxvalor        1   69[COMRAM] unsigned char 
   246 ;; Return value:  Size  Location     Type
   247 ;;                  1    wreg      void 
   248 ;; Registers used:
   249 ;;		wreg, status,2, status,0, cstack
   250 ;; Tracked objects:
   251 ;;		On entry : 0/0
   252 ;;		On exit  : 0/0
   253 ;;		Unchanged: 0/0
   254 ;; Data sizes:     COMRAM   BANK0   BANK1   BANK2   BANK3   BANK4   BANK5   BANK6   BANK7
   255 ;;      Params:         0       0       0       0       0       0       0       0       0
   256 ;;      Locals:         1       0       0       0       0       0       0       0       0
   257 ;;      Temps:          0       0       0       0       0       0       0       0       0
   258 ;;      Totals:         1       0       0       0       0       0       0       0       0
   259 ;;Total ram usage:        1 bytes
   260 ;; Hardware stack levels required when called: 2
   261 ;; This function calls:
   262 ;;		_Key_Press
   263 ;;		_Keypad_Init
   264 ;;		_USART_Init
   265 ;;		_USART_TxChar
   266 ;; This function is called by:
   267 ;;		Startup code after reset
   268 ;; This function uses a non-reentrant model
   269 ;;
   270                           
   271                           	psect	text0
   272  00724E                     __ptext0:
   273                           	callstack 0
   274  00724E                     _main:
   275                           	callstack 29
   276  00724E                     
   277                           ;LED.c: 22:     char auxvalor=0;
   278  00724E  0E00               	movlw	0
   279  007250  6E46               	movwf	main@auxvalor^0,c
   280                           
   281                           ;LED.c: 23:     OSCCON = 0x72;
   282  007252  0E72               	movlw	114
   283  007254  6ED3               	movwf	211,c	;volatile
   284                           
   285                           ;LED.c: 24:     ADCON1 = 0x0F;
   286  007256  0E0F               	movlw	15
   287  007258  6EC1               	movwf	193,c	;volatile
   288                           
   289                           ;LED.c: 25:     TRISB = 0x00;
   290  00725A  0E00               	movlw	0
   291  00725C  6E93               	movwf	147,c	;volatile
   292  00725E                     
   293                           ;LED.c: 26:     USART_Init(9600);
   294  00725E  0E80               	movlw	128
   295  007260  6E42               	movwf	USART_Init@baud_rate^0,c
   296  007262  0E25               	movlw	37
   297  007264  6E43               	movwf	(USART_Init@baud_rate+1)^0,c
   298  007266  0E00               	movlw	0
   299  007268  6E44               	movwf	(USART_Init@baud_rate+2)^0,c
   300  00726A  0E00               	movlw	0
   301  00726C  6E45               	movwf	(USART_Init@baud_rate+3)^0,c
   302  00726E  EC8F  F039         	call	_USART_Init	;wreg free
   303  007272                     
   304                           ;LED.c: 27:     Keypad_Init();
   305  007272  EC16  F039         	call	_Keypad_Init	;wreg free
   306  007276                     l1756:
   307                           
   308                           ;LED.c: 29:     if(Key_Press()==1){
   309  007276  EC00  F03A         	call	_Key_Press	;wreg free
   310  00727A  06E8               	decf	wreg,f,c
   311  00727C  A4D8               	btfss	status,2,c
   312  00727E  EF43  F039         	goto	u1791
   313  007282  EF45  F039         	goto	u1790
   314  007286                     u1791:
   315  007286  EF4C  F039         	goto	l1762
   316  00728A                     u1790:
   317  00728A                     
   318                           ;LED.c: 30:         auxvalor=1;
   319  00728A  0E01               	movlw	1
   320  00728C  6E46               	movwf	main@auxvalor^0,c
   321  00728E                     
   322                           ;LED.c: 31:         USART_TxChar('1');
   323  00728E  0E31               	movlw	49
   324  007290  EC1C  F039         	call	_USART_TxChar
   325                           
   326                           ;LED.c: 32:     }else if (Key_Press()==2){
   327  007294  EF7F  F039         	goto	l1780
   328  007298                     l1762:
   329  007298  EC00  F03A         	call	_Key_Press	;wreg free
   330  00729C  0A02               	xorlw	2
   331  00729E  A4D8               	btfss	status,2,c
   332  0072A0  EF54  F039         	goto	u1801
   333  0072A4  EF56  F039         	goto	u1800
   334  0072A8                     u1801:
   335  0072A8  EF5D  F039         	goto	l1768
   336  0072AC                     u1800:
   337  0072AC                     
   338                           ;LED.c: 33:         auxvalor=2;
   339  0072AC  0E02               	movlw	2
   340  0072AE  6E46               	movwf	main@auxvalor^0,c
   341  0072B0                     
   342                           ;LED.c: 34:         USART_TxChar('2');
   343  0072B0  0E32               	movlw	50
   344  0072B2  EC1C  F039         	call	_USART_TxChar
   345                           
   346                           ;LED.c: 35:     }else if (Key_Press()==3){
   347  0072B6  EF7F  F039         	goto	l1780
   348  0072BA                     l1768:
   349  0072BA  EC00  F03A         	call	_Key_Press	;wreg free
   350  0072BE  0A03               	xorlw	3
   351  0072C0  A4D8               	btfss	status,2,c
   352  0072C2  EF65  F039         	goto	u1811
   353  0072C6  EF67  F039         	goto	u1810
   354  0072CA                     u1811:
   355  0072CA  EF6E  F039         	goto	l1774
   356  0072CE                     u1810:
   357  0072CE                     
   358                           ;LED.c: 36:         auxvalor=3;
   359  0072CE  0E03               	movlw	3
   360  0072D0  6E46               	movwf	main@auxvalor^0,c
   361  0072D2                     
   362                           ;LED.c: 37:         USART_TxChar('3');
   363  0072D2  0E33               	movlw	51
   364  0072D4  EC1C  F039         	call	_USART_TxChar
   365                           
   366                           ;LED.c: 38:     } else if (Key_Press()==4){
   367  0072D8  EF7F  F039         	goto	l1780
   368  0072DC                     l1774:
   369  0072DC  EC00  F03A         	call	_Key_Press	;wreg free
   370  0072E0  0A04               	xorlw	4
   371  0072E2  A4D8               	btfss	status,2,c
   372  0072E4  EF76  F039         	goto	u1821
   373  0072E8  EF78  F039         	goto	u1820
   374  0072EC                     u1821:
   375  0072EC  EF7F  F039         	goto	l45
   376  0072F0                     u1820:
   377  0072F0                     
   378                           ;LED.c: 39:         auxvalor=4;
   379  0072F0  0E04               	movlw	4
   380  0072F2  6E46               	movwf	main@auxvalor^0,c
   381  0072F4                     
   382                           ;LED.c: 40:         USART_TxChar('4');
   383  0072F4  0E34               	movlw	52
   384  0072F6  EC1C  F039         	call	_USART_TxChar
   385  0072FA  EF7F  F039         	goto	l1780
   386  0072FE                     l45:
   387  0072FE                     l1780:
   388                           
   389                           ;LED.c: 42:     if(auxvalor==1){
   390  0072FE  0446               	decf	main@auxvalor^0,w,c
   391  007300  A4D8               	btfss	status,2,c
   392  007302  EF85  F039         	goto	u1831
   393  007306  EF87  F039         	goto	u1830
   394  00730A                     u1831:
   395  00730A  EF8A  F039         	goto	l49
   396  00730E                     u1830:
   397  00730E                     
   398                           ;LED.c: 43:         PORTBbits.RB0 = 1;
   399  00730E  8081               	bsf	129,0,c	;volatile
   400                           
   401                           ;LED.c: 44:     }else{
   402  007310  EF3B  F039         	goto	l1756
   403  007314                     l49:
   404                           
   405                           ;LED.c: 45:         PORTBbits.RB0 = 0;
   406  007314  9081               	bcf	129,0,c	;volatile
   407  007316  EF3B  F039         	goto	l1756
   408  00731A  EF00  F000         	goto	start
   409  00731E                     __end_of_main:
   410                           	callstack 0
   411                           
   412 ;; *************** function _USART_TxChar *****************
   413 ;; Defined at:
   414 ;;		line 19 in file "USART_Source_File.c"
   415 ;; Parameters:    Size  Location     Type
   416 ;;  out             1    wreg     unsigned char 
   417 ;; Auto vars:     Size  Location     Type
   418 ;;  out             1    0[COMRAM] unsigned char 
   419 ;; Return value:  Size  Location     Type
   420 ;;                  1    wreg      void 
   421 ;; Registers used:
   422 ;;		wreg
   423 ;; Tracked objects:
   424 ;;		On entry : 0/0
   425 ;;		On exit  : 0/0
   426 ;;		Unchanged: 0/0
   427 ;; Data sizes:     COMRAM   BANK0   BANK1   BANK2   BANK3   BANK4   BANK5   BANK6   BANK7
   428 ;;      Params:         0       0       0       0       0       0       0       0       0
   429 ;;      Locals:         1       0       0       0       0       0       0       0       0
   430 ;;      Temps:          0       0       0       0       0       0       0       0       0
   431 ;;      Totals:         1       0       0       0       0       0       0       0       0
   432 ;;Total ram usage:        1 bytes
   433 ;; Hardware stack levels used: 1
   434 ;; This function calls:
   435 ;;		Nothing
   436 ;; This function is called by:
   437 ;;		_main
   438 ;;		_USART_SendString
   439 ;; This function uses a non-reentrant model
   440 ;;
   441                           
   442                           	psect	text1
   443  007238                     __ptext1:
   444                           	callstack 0
   445  007238                     _USART_TxChar:
   446                           	callstack 30
   447                           
   448                           ;incstack = 0
   449                           ;USART_TxChar@out stored from wreg
   450  007238  6E01               	movwf	USART_TxChar@out^0,c
   451  00723A                     l77:
   452  00723A  A89E               	btfss	3998,4,c	;volatile
   453  00723C  EF22  F039         	goto	u921
   454  007240  EF24  F039         	goto	u920
   455  007244                     u921:
   456  007244  EF1D  F039         	goto	l77
   457  007248                     u920:
   458  007248                     
   459                           ;USART_Source_File.c: 22:         TXREG=out;
   460  007248  C001  FFAD         	movff	USART_TxChar@out,4013	;volatile
   461  00724C  0012               	return		;funcret
   462  00724E                     __end_of_USART_TxChar:
   463                           	callstack 0
   464                           
   465 ;; *************** function _USART_Init *****************
   466 ;; Defined at:
   467 ;;		line 8 in file "USART_Source_File.c"
   468 ;; Parameters:    Size  Location     Type
   469 ;;  baud_rate       4   65[COMRAM] long 
   470 ;; Auto vars:     Size  Location     Type
   471 ;;  temp            4    0        float 
   472 ;; Return value:  Size  Location     Type
   473 ;;                  1    wreg      void 
   474 ;; Registers used:
   475 ;;		wreg, status,2, status,0, cstack
   476 ;; Tracked objects:
   477 ;;		On entry : 0/0
   478 ;;		On exit  : 0/0
   479 ;;		Unchanged: 0/0
   480 ;; Data sizes:     COMRAM   BANK0   BANK1   BANK2   BANK3   BANK4   BANK5   BANK6   BANK7
   481 ;;      Params:         4       0       0       0       0       0       0       0       0
   482 ;;      Locals:         0       0       0       0       0       0       0       0       0
   483 ;;      Temps:          0       0       0       0       0       0       0       0       0
   484 ;;      Totals:         4       0       0       0       0       0       0       0       0
   485 ;;Total ram usage:        4 bytes
   486 ;; Hardware stack levels used: 1
   487 ;; Hardware stack levels required when called: 1
   488 ;; This function calls:
   489 ;;		___fladd
   490 ;;		___fldiv
   491 ;;		___fltol
   492 ;;		___xxtofl
   493 ;; This function is called by:
   494 ;;		_main
   495 ;; This function uses a non-reentrant model
   496 ;;
   497                           
   498                           	psect	text2
   499  00731E                     __ptext2:
   500                           	callstack 0
   501  00731E                     _USART_Init:
   502                           	callstack 29
   503  00731E                     
   504                           ;USART_Source_File.c: 8: void USART_Init(long baud_rate);USART_Source_File.c: 9: {;USART
      +                          _Source_File.c: 10:     float temp;;USART_Source_File.c: 11:     TRISC6=0;
   505  00731E  9C94               	bcf	3988,6,c	;volatile
   506                           
   507                           ;USART_Source_File.c: 12:     TRISC7=1;
   508  007320  8E94               	bsf	3988,7,c	;volatile
   509  007322  C042  F001         	movff	USART_Init@baud_rate,___xxtofl@val
   510  007326  C043  F002         	movff	USART_Init@baud_rate+1,___xxtofl@val+1
   511  00732A  C044  F003         	movff	USART_Init@baud_rate+2,___xxtofl@val+2
   512  00732E  C045  F004         	movff	USART_Init@baud_rate+3,___xxtofl@val+3
   513  007332  0E01               	movlw	1
   514  007334  ECF9  F03A         	call	___xxtofl
   515  007338  C001  F013         	movff	?___xxtofl,___fldiv@a
   516  00733C  C002  F014         	movff	?___xxtofl+1,___fldiv@a+1
   517  007340  C003  F015         	movff	?___xxtofl+2,___fldiv@a+2
   518  007344  C004  F016         	movff	?___xxtofl+3,___fldiv@a+3
   519  007348  0E00               	movlw	0
   520  00734A  6E0F               	movwf	___fldiv@b^0,c
   521  00734C  0E24               	movlw	36
   522  00734E  6E10               	movwf	(___fldiv@b+1)^0,c
   523  007350  0EF4               	movlw	244
   524  007352  6E11               	movwf	(___fldiv@b+2)^0,c
   525  007354  0E47               	movlw	71
   526  007356  6E12               	movwf	(___fldiv@b+3)^0,c
   527  007358  ECD3  F03B         	call	___fldiv	;wreg free
   528  00735C  C00F  F028         	movff	?___fldiv,___fladd@b
   529  007360  C010  F029         	movff	?___fldiv+1,___fladd@b+1
   530  007364  C011  F02A         	movff	?___fldiv+2,___fladd@b+2
   531  007368  C012  F02B         	movff	?___fldiv+3,___fladd@b+3
   532  00736C  0E00               	movlw	0
   533  00736E  6E2C               	movwf	___fladd@a^0,c
   534  007370  0E00               	movlw	0
   535  007372  6E2D               	movwf	(___fladd@a+1)^0,c
   536  007374  0E80               	movlw	128
   537  007376  6E2E               	movwf	(___fladd@a+2)^0,c
   538  007378  0EBF               	movlw	191
   539  00737A  6E2F               	movwf	(___fladd@a+3)^0,c
   540  00737C  ECA0  F03D         	call	___fladd	;wreg free
   541                           
   542                           ;USART_Source_File.c: 14:     SPBRG = (((float)(8000000/64)/(float)baud_rate)-1);
   543  007380  0E00               	movlw	0
   544  007382  6E2C               	movwf	___fladd@a^0,c
   545  007384  0E00               	movlw	0
   546  007386  6E2D               	movwf	(___fladd@a+1)^0,c
   547  007388  0E80               	movlw	128
   548  00738A  6E2E               	movwf	(___fladd@a+2)^0,c
   549  00738C  0EBF               	movlw	191
   550  00738E  6E2F               	movwf	(___fladd@a+3)^0,c
   551  007390  C042  F001         	movff	USART_Init@baud_rate,___xxtofl@val
   552  007394  C043  F002         	movff	USART_Init@baud_rate+1,___xxtofl@val+1
   553  007398  C044  F003         	movff	USART_Init@baud_rate+2,___xxtofl@val+2
   554  00739C  C045  F004         	movff	USART_Init@baud_rate+3,___xxtofl@val+3
   555  0073A0  0E01               	movlw	1
   556  0073A2  ECF9  F03A         	call	___xxtofl
   557  0073A6  C001  F013         	movff	?___xxtofl,___fldiv@a
   558  0073AA  C002  F014         	movff	?___xxtofl+1,___fldiv@a+1
   559  0073AE  C003  F015         	movff	?___xxtofl+2,___fldiv@a+2
   560  0073B2  C004  F016         	movff	?___xxtofl+3,___fldiv@a+3
   561  0073B6  0E00               	movlw	0
   562  0073B8  6E0F               	movwf	___fldiv@b^0,c
   563  0073BA  0E24               	movlw	36
   564  0073BC  6E10               	movwf	(___fldiv@b+1)^0,c
   565  0073BE  0EF4               	movlw	244
   566  0073C0  6E11               	movwf	(___fldiv@b+2)^0,c
   567  0073C2  0E47               	movlw	71
   568  0073C4  6E12               	movwf	(___fldiv@b+3)^0,c
   569  0073C6  ECD3  F03B         	call	___fldiv	;wreg free
   570  0073CA  C00F  F028         	movff	?___fldiv,___fladd@b
   571  0073CE  C010  F029         	movff	?___fldiv+1,___fladd@b+1
   572  0073D2  C011  F02A         	movff	?___fldiv+2,___fladd@b+2
   573  0073D6  C012  F02B         	movff	?___fldiv+3,___fladd@b+3
   574  0073DA  ECA0  F03D         	call	___fladd	;wreg free
   575  0073DE  C028  F038         	movff	?___fladd,___fltol@f1
   576  0073E2  C029  F039         	movff	?___fladd+1,___fltol@f1+1
   577  0073E6  C02A  F03A         	movff	?___fladd+2,___fltol@f1+2
   578  0073EA  C02B  F03B         	movff	?___fladd+3,___fltol@f1+3
   579  0073EE  EC76  F03A         	call	___fltol	;wreg free
   580  0073F2  5038               	movf	?___fltol^0,w,c
   581  0073F4  6EAF               	movwf	175,c	;volatile
   582  0073F6                     
   583                           ;USART_Source_File.c: 15:     TXSTA=0x20;
   584  0073F6  0E20               	movlw	32
   585  0073F8  6EAC               	movwf	172,c	;volatile
   586  0073FA                     
   587                           ;USART_Source_File.c: 16:     RCSTA=0x90;
   588  0073FA  0E90               	movlw	144
   589  0073FC  6EAB               	movwf	171,c	;volatile
   590  0073FE  0012               	return		;funcret
   591  007400                     __end_of_USART_Init:
   592                           	callstack 0
   593                           
   594 ;; *************** function ___xxtofl *****************
   595 ;; Defined at:
   596 ;;		line 10 in file "D:\mplab\pic\sources\c99\common\xxtofl.c"
   597 ;; Parameters:    Size  Location     Type
   598 ;;  sign            1    wreg     unsigned char 
   599 ;;  val             4    0[COMRAM] long 
   600 ;; Auto vars:     Size  Location     Type
   601 ;;  sign            1    8[COMRAM] unsigned char 
   602 ;;  arg             4   10[COMRAM] unsigned long 
   603 ;;  exp             1    9[COMRAM] unsigned char 
   604 ;; Return value:  Size  Location     Type
   605 ;;                  4    0[COMRAM] unsigned char 
   606 ;; Registers used:
   607 ;;		wreg, status,2, status,0
   608 ;; Tracked objects:
   609 ;;		On entry : 0/0
   610 ;;		On exit  : 0/0
   611 ;;		Unchanged: 0/0
   612 ;; Data sizes:     COMRAM   BANK0   BANK1   BANK2   BANK3   BANK4   BANK5   BANK6   BANK7
   613 ;;      Params:         4       0       0       0       0       0       0       0       0
   614 ;;      Locals:         6       0       0       0       0       0       0       0       0
   615 ;;      Temps:          4       0       0       0       0       0       0       0       0
   616 ;;      Totals:        14       0       0       0       0       0       0       0       0
   617 ;;Total ram usage:       14 bytes
   618 ;; Hardware stack levels used: 1
   619 ;; This function calls:
   620 ;;		Nothing
   621 ;; This function is called by:
   622 ;;		_USART_Init
   623 ;; This function uses a non-reentrant model
   624 ;;
   625                           
   626                           	psect	text3
   627  0075F2                     __ptext3:
   628                           	callstack 0
   629  0075F2                     ___xxtofl:
   630                           	callstack 29
   631                           
   632                           ;incstack = 0
   633                           ;___xxtofl@sign stored from wreg
   634  0075F2  6E09               	movwf	___xxtofl@sign^0,c
   635  0075F4  5009               	movf	___xxtofl@sign^0,w,c
   636  0075F6  B4D8               	btfsc	status,2,c
   637  0075F8  EF00  F03B         	goto	u1691
   638  0075FC  EF02  F03B         	goto	u1690
   639  007600                     u1691:
   640  007600  EF24  F03B         	goto	l750
   641  007604                     u1690:
   642  007604  BE04               	btfsc	(___xxtofl@val+3)^0,7,c
   643  007606  EF09  F03B         	goto	u1700
   644  00760A  EF07  F03B         	goto	u1701
   645  00760E                     u1701:
   646  00760E  EF24  F03B         	goto	l750
   647  007612                     u1700:
   648  007612  C001  F005         	movff	___xxtofl@val,??___xxtofl
   649  007616  C002  F006         	movff	___xxtofl@val+1,??___xxtofl+1
   650  00761A  C003  F007         	movff	___xxtofl@val+2,??___xxtofl+2
   651  00761E  C004  F008         	movff	___xxtofl@val+3,??___xxtofl+3
   652  007622  1E05               	comf	??___xxtofl^0,f,c
   653  007624  1E06               	comf	(??___xxtofl+1)^0,f,c
   654  007626  1E07               	comf	(??___xxtofl+2)^0,f,c
   655  007628  1E08               	comf	(??___xxtofl+3)^0,f,c
   656  00762A  2A05               	incf	??___xxtofl^0,f,c
   657  00762C  0E00               	movlw	0
   658  00762E  2206               	addwfc	(??___xxtofl+1)^0,f,c
   659  007630  2207               	addwfc	(??___xxtofl+2)^0,f,c
   660  007632  2208               	addwfc	(??___xxtofl+3)^0,f,c
   661  007634  C005  F00B         	movff	??___xxtofl,___xxtofl@arg
   662  007638  C006  F00C         	movff	??___xxtofl+1,___xxtofl@arg+1
   663  00763C  C007  F00D         	movff	??___xxtofl+2,___xxtofl@arg+2
   664  007640  C008  F00E         	movff	??___xxtofl+3,___xxtofl@arg+3
   665  007644  EF2C  F03B         	goto	l1702
   666  007648                     l750:
   667  007648  C001  F00B         	movff	___xxtofl@val,___xxtofl@arg
   668  00764C  C002  F00C         	movff	___xxtofl@val+1,___xxtofl@arg+1
   669  007650  C003  F00D         	movff	___xxtofl@val+2,___xxtofl@arg+2
   670  007654  C004  F00E         	movff	___xxtofl@val+3,___xxtofl@arg+3
   671  007658                     l1702:
   672  007658  5001               	movf	___xxtofl@val^0,w,c
   673  00765A  1002               	iorwf	(___xxtofl@val+1)^0,w,c
   674  00765C  1003               	iorwf	(___xxtofl@val+2)^0,w,c
   675  00765E  1004               	iorwf	(___xxtofl@val+3)^0,w,c
   676  007660  A4D8               	btfss	status,2,c
   677  007662  EF35  F03B         	goto	u1711
   678  007666  EF37  F03B         	goto	u1710
   679  00766A                     u1711:
   680  00766A  EF41  F03B         	goto	l1708
   681  00766E                     u1710:
   682  00766E  0E00               	movlw	0
   683  007670  6E01               	movwf	?___xxtofl^0,c
   684  007672  0E00               	movlw	0
   685  007674  6E02               	movwf	(?___xxtofl+1)^0,c
   686  007676  0E00               	movlw	0
   687  007678  6E03               	movwf	(?___xxtofl+2)^0,c
   688  00767A  0E00               	movlw	0
   689  00767C  6E04               	movwf	(?___xxtofl+3)^0,c
   690  00767E  EFD2  F03B         	goto	l753
   691  007682                     l1708:
   692  007682  0E96               	movlw	150
   693  007684  6E0A               	movwf	___xxtofl@exp^0,c
   694  007686  EF4B  F03B         	goto	l1712
   695  00768A                     l1710:
   696  00768A  2A0A               	incf	___xxtofl@exp^0,f,c
   697  00768C  90D8               	bcf	status,0,c
   698  00768E  320E               	rrcf	(___xxtofl@arg+3)^0,f,c
   699  007690  320D               	rrcf	(___xxtofl@arg+2)^0,f,c
   700  007692  320C               	rrcf	(___xxtofl@arg+1)^0,f,c
   701  007694  320B               	rrcf	___xxtofl@arg^0,f,c
   702  007696                     l1712:
   703  007696  0E00               	movlw	0
   704  007698  140B               	andwf	___xxtofl@arg^0,w,c
   705  00769A  6E05               	movwf	??___xxtofl^0,c
   706  00769C  0E00               	movlw	0
   707  00769E  140C               	andwf	(___xxtofl@arg+1)^0,w,c
   708  0076A0  6E06               	movwf	(??___xxtofl+1)^0,c
   709  0076A2  0E00               	movlw	0
   710  0076A4  140D               	andwf	(___xxtofl@arg+2)^0,w,c
   711  0076A6  6E07               	movwf	(??___xxtofl+2)^0,c
   712  0076A8  0EFE               	movlw	254
   713  0076AA  140E               	andwf	(___xxtofl@arg+3)^0,w,c
   714  0076AC  6E08               	movwf	(??___xxtofl+3)^0,c
   715  0076AE  5005               	movf	??___xxtofl^0,w,c
   716  0076B0  1006               	iorwf	(??___xxtofl+1)^0,w,c
   717  0076B2  1007               	iorwf	(??___xxtofl+2)^0,w,c
   718  0076B4  1008               	iorwf	(??___xxtofl+3)^0,w,c
   719  0076B6  A4D8               	btfss	status,2,c
   720  0076B8  EF60  F03B         	goto	u1721
   721  0076BC  EF62  F03B         	goto	u1720
   722  0076C0                     u1721:
   723  0076C0  EF45  F03B         	goto	l1710
   724  0076C4                     u1720:
   725  0076C4  EF70  F03B         	goto	l757
   726  0076C8                     l1714:
   727  0076C8  2A0A               	incf	___xxtofl@exp^0,f,c
   728  0076CA  0E01               	movlw	1
   729  0076CC  260B               	addwf	___xxtofl@arg^0,f,c
   730  0076CE  0E00               	movlw	0
   731  0076D0  220C               	addwfc	(___xxtofl@arg+1)^0,f,c
   732  0076D2  220D               	addwfc	(___xxtofl@arg+2)^0,f,c
   733  0076D4  220E               	addwfc	(___xxtofl@arg+3)^0,f,c
   734  0076D6  90D8               	bcf	status,0,c
   735  0076D8  320E               	rrcf	(___xxtofl@arg+3)^0,f,c
   736  0076DA  320D               	rrcf	(___xxtofl@arg+2)^0,f,c
   737  0076DC  320C               	rrcf	(___xxtofl@arg+1)^0,f,c
   738  0076DE  320B               	rrcf	___xxtofl@arg^0,f,c
   739  0076E0                     l757:
   740  0076E0  0E00               	movlw	0
   741  0076E2  140B               	andwf	___xxtofl@arg^0,w,c
   742  0076E4  6E05               	movwf	??___xxtofl^0,c
   743  0076E6  0E00               	movlw	0
   744  0076E8  140C               	andwf	(___xxtofl@arg+1)^0,w,c
   745  0076EA  6E06               	movwf	(??___xxtofl+1)^0,c
   746  0076EC  0E00               	movlw	0
   747  0076EE  140D               	andwf	(___xxtofl@arg+2)^0,w,c
   748  0076F0  6E07               	movwf	(??___xxtofl+2)^0,c
   749  0076F2  0EFF               	movlw	255
   750  0076F4  140E               	andwf	(___xxtofl@arg+3)^0,w,c
   751  0076F6  6E08               	movwf	(??___xxtofl+3)^0,c
   752  0076F8  5005               	movf	??___xxtofl^0,w,c
   753  0076FA  1006               	iorwf	(??___xxtofl+1)^0,w,c
   754  0076FC  1007               	iorwf	(??___xxtofl+2)^0,w,c
   755  0076FE  1008               	iorwf	(??___xxtofl+3)^0,w,c
   756  007700  A4D8               	btfss	status,2,c
   757  007702  EF85  F03B         	goto	u1731
   758  007706  EF87  F03B         	goto	u1730
   759  00770A                     u1731:
   760  00770A  EF64  F03B         	goto	l1714
   761  00770E                     u1730:
   762  00770E  EF8F  F03B         	goto	l1722
   763  007712                     l1720:
   764  007712  060A               	decf	___xxtofl@exp^0,f,c
   765  007714  90D8               	bcf	status,0,c
   766  007716  360B               	rlcf	___xxtofl@arg^0,f,c
   767  007718  360C               	rlcf	(___xxtofl@arg+1)^0,f,c
   768  00771A  360D               	rlcf	(___xxtofl@arg+2)^0,f,c
   769  00771C  360E               	rlcf	(___xxtofl@arg+3)^0,f,c
   770  00771E                     l1722:
   771  00771E  BE0D               	btfsc	(___xxtofl@arg+2)^0,7,c
   772  007720  EF94  F03B         	goto	u1741
   773  007724  EF96  F03B         	goto	u1740
   774  007728                     u1741:
   775  007728  EF9E  F03B         	goto	l764
   776  00772C                     u1740:
   777  00772C  0E02               	movlw	2
   778  00772E  600A               	cpfslt	___xxtofl@exp^0,c
   779  007730  EF9C  F03B         	goto	u1751
   780  007734  EF9E  F03B         	goto	u1750
   781  007738                     u1751:
   782  007738  EF89  F03B         	goto	l1720
   783  00773C                     u1750:
   784  00773C                     l764:
   785  00773C  B00A               	btfsc	___xxtofl@exp^0,0,c
   786  00773E  EFA3  F03B         	goto	u1761
   787  007742  EFA5  F03B         	goto	u1760
   788  007746                     u1761:
   789  007746  EFA6  F03B         	goto	l1728
   790  00774A                     u1760:
   791  00774A  9E0D               	bcf	(___xxtofl@arg+2)^0,7,c
   792  00774C                     l1728:
   793  00774C  90D8               	bcf	status,0,c
   794  00774E  320A               	rrcf	___xxtofl@exp^0,f,c
   795  007750  C00A  F005         	movff	___xxtofl@exp,??___xxtofl
   796  007754  6A06               	clrf	(??___xxtofl+1)^0,c
   797  007756  6A07               	clrf	(??___xxtofl+2)^0,c
   798  007758  6A08               	clrf	(??___xxtofl+3)^0,c
   799  00775A  C005  F008         	movff	??___xxtofl,??___xxtofl+3
   800  00775E  6A07               	clrf	(??___xxtofl+2)^0,c
   801  007760  6A06               	clrf	(??___xxtofl+1)^0,c
   802  007762  6A05               	clrf	??___xxtofl^0,c
   803  007764  5005               	movf	??___xxtofl^0,w,c
   804  007766  120B               	iorwf	___xxtofl@arg^0,f,c
   805  007768  5006               	movf	(??___xxtofl+1)^0,w,c
   806  00776A  120C               	iorwf	(___xxtofl@arg+1)^0,f,c
   807  00776C  5007               	movf	(??___xxtofl+2)^0,w,c
   808  00776E  120D               	iorwf	(___xxtofl@arg+2)^0,f,c
   809  007770  5008               	movf	(??___xxtofl+3)^0,w,c
   810  007772  120E               	iorwf	(___xxtofl@arg+3)^0,f,c
   811  007774  5009               	movf	___xxtofl@sign^0,w,c
   812  007776  B4D8               	btfsc	status,2,c
   813  007778  EFC0  F03B         	goto	u1771
   814  00777C  EFC2  F03B         	goto	u1770
   815  007780                     u1771:
   816  007780  EFCA  F03B         	goto	l1738
   817  007784                     u1770:
   818  007784  BE04               	btfsc	(___xxtofl@val+3)^0,7,c
   819  007786  EFC9  F03B         	goto	u1780
   820  00778A  EFC7  F03B         	goto	u1781
   821  00778E                     u1781:
   822  00778E  EFCA  F03B         	goto	l1738
   823  007792                     u1780:
   824  007792  8E0E               	bsf	(___xxtofl@arg+3)^0,7,c
   825  007794                     l1738:
   826  007794  C00B  F001         	movff	___xxtofl@arg,?___xxtofl
   827  007798  C00C  F002         	movff	___xxtofl@arg+1,?___xxtofl+1
   828  00779C  C00D  F003         	movff	___xxtofl@arg+2,?___xxtofl+2
   829  0077A0  C00E  F004         	movff	___xxtofl@arg+3,?___xxtofl+3
   830  0077A4                     l753:
   831  0077A4  0012               	return		;funcret
   832  0077A6                     __end_of___xxtofl:
   833                           	callstack 0
   834                           
   835 ;; *************** function ___fltol *****************
   836 ;; Defined at:
   837 ;;		line 43 in file "D:\mplab\pic\sources\c99\common\fltol.c"
   838 ;; Parameters:    Size  Location     Type
   839 ;;  f1              4   55[COMRAM] unsigned char 
   840 ;; Auto vars:     Size  Location     Type
   841 ;;  exp1            1   64[COMRAM] unsigned char 
   842 ;;  sign1           1   63[COMRAM] unsigned char 
   843 ;; Return value:  Size  Location     Type
   844 ;;                  4   55[COMRAM] long 
   845 ;; Registers used:
   846 ;;		wreg, status,2, status,0
   847 ;; Tracked objects:
   848 ;;		On entry : 0/0
   849 ;;		On exit  : 0/0
   850 ;;		Unchanged: 0/0
   851 ;; Data sizes:     COMRAM   BANK0   BANK1   BANK2   BANK3   BANK4   BANK5   BANK6   BANK7
   852 ;;      Params:         4       0       0       0       0       0       0       0       0
   853 ;;      Locals:         2       0       0       0       0       0       0       0       0
   854 ;;      Temps:          4       0       0       0       0       0       0       0       0
   855 ;;      Totals:        10       0       0       0       0       0       0       0       0
   856 ;;Total ram usage:       10 bytes
   857 ;; Hardware stack levels used: 1
   858 ;; This function calls:
   859 ;;		Nothing
   860 ;; This function is called by:
   861 ;;		_USART_Init
   862 ;; This function uses a non-reentrant model
   863 ;;
   864                           
   865                           	psect	text4
   866  0074EC                     __ptext4:
   867                           	callstack 0
   868  0074EC                     ___fltol:
   869                           	callstack 29
   870  0074EC  343A               	rlcf	(___fltol@f1+2)^0,w,c
   871  0074EE  343B               	rlcf	(___fltol@f1+3)^0,w,c
   872  0074F0  6E41               	movwf	___fltol@exp1^0,c
   873  0074F2  5041               	movf	___fltol@exp1^0,w,c
   874  0074F4  A4D8               	btfss	status,2,c
   875  0074F6  EF7F  F03A         	goto	u1621
   876  0074FA  EF81  F03A         	goto	u1620
   877  0074FE                     u1621:
   878  0074FE  EF8B  F03A         	goto	l1658
   879  007502                     u1620:
   880  007502                     l1654:
   881  007502  0E00               	movlw	0
   882  007504  6E38               	movwf	?___fltol^0,c
   883  007506  0E00               	movlw	0
   884  007508  6E39               	movwf	(?___fltol+1)^0,c
   885  00750A  0E00               	movlw	0
   886  00750C  6E3A               	movwf	(?___fltol+2)^0,c
   887  00750E  0E00               	movlw	0
   888  007510  6E3B               	movwf	(?___fltol+3)^0,c
   889  007512  EFF8  F03A         	goto	l392
   890  007516                     l1658:
   891  007516  C038  F03C         	movff	___fltol@f1,??___fltol
   892  00751A  C039  F03D         	movff	___fltol@f1+1,??___fltol+1
   893  00751E  C03A  F03E         	movff	___fltol@f1+2,??___fltol+2
   894  007522  C03B  F03F         	movff	___fltol@f1+3,??___fltol+3
   895  007526  0E20               	movlw	32
   896  007528  EF9B  F03A         	goto	u1630
   897  00752C                     u1635:
   898  00752C  90D8               	bcf	status,0,c
   899  00752E  323F               	rrcf	(??___fltol+3)^0,f,c
   900  007530  323E               	rrcf	(??___fltol+2)^0,f,c
   901  007532  323D               	rrcf	(??___fltol+1)^0,f,c
   902  007534  323C               	rrcf	??___fltol^0,f,c
   903  007536                     u1630:
   904  007536  2EE8               	decfsz	wreg,f,c
   905  007538  EF96  F03A         	goto	u1635
   906  00753C  503C               	movf	??___fltol^0,w,c
   907  00753E  6E40               	movwf	___fltol@sign1^0,c
   908  007540  8E3A               	bsf	(___fltol@f1+2)^0,7,c
   909  007542  0EFF               	movlw	255
   910  007544  1638               	andwf	___fltol@f1^0,f,c
   911  007546  0EFF               	movlw	255
   912  007548  1639               	andwf	(___fltol@f1+1)^0,f,c
   913  00754A  0EFF               	movlw	255
   914  00754C  163A               	andwf	(___fltol@f1+2)^0,f,c
   915  00754E  0E00               	movlw	0
   916  007550  163B               	andwf	(___fltol@f1+3)^0,f,c
   917  007552  0E96               	movlw	150
   918  007554  5E41               	subwf	___fltol@exp1^0,f,c
   919  007556  BE41               	btfsc	___fltol@exp1^0,7,c
   920  007558  EFB2  F03A         	goto	u1640
   921  00755C  EFB0  F03A         	goto	u1641
   922  007560                     u1641:
   923  007560  EFC8  F03A         	goto	l1678
   924  007564                     u1640:
   925  007564  5041               	movf	___fltol@exp1^0,w,c
   926  007566  0A80               	xorlw	128
   927  007568  0F97               	addlw	151
   928  00756A  B0D8               	btfsc	status,0,c
   929  00756C  EFBA  F03A         	goto	u1651
   930  007570  EFBC  F03A         	goto	u1650
   931  007574                     u1651:
   932  007574  EFBE  F03A         	goto	l1674
   933  007578                     u1650:
   934  007578  EF81  F03A         	goto	l1654
   935  00757C                     l1674:
   936  00757C  90D8               	bcf	status,0,c
   937  00757E  323B               	rrcf	(___fltol@f1+3)^0,f,c
   938  007580  323A               	rrcf	(___fltol@f1+2)^0,f,c
   939  007582  3239               	rrcf	(___fltol@f1+1)^0,f,c
   940  007584  3238               	rrcf	___fltol@f1^0,f,c
   941  007586  3E41               	incfsz	___fltol@exp1^0,f,c
   942  007588  EFBE  F03A         	goto	l1674
   943  00758C  EFE0  F03A         	goto	l1688
   944  007590                     l1678:
   945  007590  0E1F               	movlw	31
   946  007592  6441               	cpfsgt	___fltol@exp1^0,c
   947  007594  EFCE  F03A         	goto	u1661
   948  007598  EFD0  F03A         	goto	u1660
   949  00759C                     u1661:
   950  00759C  EFD8  F03A         	goto	l1686
   951  0075A0                     u1660:
   952  0075A0  EF81  F03A         	goto	l1654
   953  0075A4                     l1684:
   954  0075A4  90D8               	bcf	status,0,c
   955  0075A6  3638               	rlcf	___fltol@f1^0,f,c
   956  0075A8  3639               	rlcf	(___fltol@f1+1)^0,f,c
   957  0075AA  363A               	rlcf	(___fltol@f1+2)^0,f,c
   958  0075AC  363B               	rlcf	(___fltol@f1+3)^0,f,c
   959  0075AE  0641               	decf	___fltol@exp1^0,f,c
   960  0075B0                     l1686:
   961  0075B0  5041               	movf	___fltol@exp1^0,w,c
   962  0075B2  A4D8               	btfss	status,2,c
   963  0075B4  EFDE  F03A         	goto	u1671
   964  0075B8  EFE0  F03A         	goto	u1670
   965  0075BC                     u1671:
   966  0075BC  EFD2  F03A         	goto	l1684
   967  0075C0                     u1670:
   968  0075C0                     l1688:
   969  0075C0  5040               	movf	___fltol@sign1^0,w,c
   970  0075C2  B4D8               	btfsc	status,2,c
   971  0075C4  EFE6  F03A         	goto	u1681
   972  0075C8  EFE8  F03A         	goto	u1680
   973  0075CC                     u1681:
   974  0075CC  EFF0  F03A         	goto	l1692
   975  0075D0                     u1680:
   976  0075D0  1E3B               	comf	(___fltol@f1+3)^0,f,c
   977  0075D2  1E3A               	comf	(___fltol@f1+2)^0,f,c
   978  0075D4  1E39               	comf	(___fltol@f1+1)^0,f,c
   979  0075D6  6C38               	negf	___fltol@f1^0,c
   980  0075D8  0E00               	movlw	0
   981  0075DA  2239               	addwfc	(___fltol@f1+1)^0,f,c
   982  0075DC  223A               	addwfc	(___fltol@f1+2)^0,f,c
   983  0075DE  223B               	addwfc	(___fltol@f1+3)^0,f,c
   984  0075E0                     l1692:
   985  0075E0  C038  F038         	movff	___fltol@f1,?___fltol
   986  0075E4  C039  F039         	movff	___fltol@f1+1,?___fltol+1
   987  0075E8  C03A  F03A         	movff	___fltol@f1+2,?___fltol+2
   988  0075EC  C03B  F03B         	movff	___fltol@f1+3,?___fltol+3
   989  0075F0                     l392:
   990  0075F0  0012               	return		;funcret
   991  0075F2                     __end_of___fltol:
   992                           	callstack 0
   993                           
   994 ;; *************** function ___fldiv *****************
   995 ;; Defined at:
   996 ;;		line 11 in file "D:\mplab\pic\sources\c99\common\sprcdiv.c"
   997 ;; Parameters:    Size  Location     Type
   998 ;;  b               4   14[COMRAM] long 
   999 ;;  a               4   18[COMRAM] long 
  1000 ;; Auto vars:     Size  Location     Type
  1001 ;;  grs             4   33[COMRAM] unsigned long 
  1002 ;;  rem             4   26[COMRAM] unsigned long 
  1003 ;;  new_exp         2   31[COMRAM] short 
  1004 ;;  aexp            1   38[COMRAM] unsigned char 
  1005 ;;  bexp            1   37[COMRAM] unsigned char 
  1006 ;;  sign            1   30[COMRAM] unsigned char 
  1007 ;; Return value:  Size  Location     Type
  1008 ;;                  4   14[COMRAM] unsigned char 
  1009 ;; Registers used:
  1010 ;;		wreg, status,2, status,0
  1011 ;; Tracked objects:
  1012 ;;		On entry : 0/0
  1013 ;;		On exit  : 0/0
  1014 ;;		Unchanged: 0/0
  1015 ;; Data sizes:     COMRAM   BANK0   BANK1   BANK2   BANK3   BANK4   BANK5   BANK6   BANK7
  1016 ;;      Params:         8       0       0       0       0       0       0       0       0
  1017 ;;      Locals:        13       0       0       0       0       0       0       0       0
  1018 ;;      Temps:          4       0       0       0       0       0       0       0       0
  1019 ;;      Totals:        25       0       0       0       0       0       0       0       0
  1020 ;;Total ram usage:       25 bytes
  1021 ;; Hardware stack levels used: 1
  1022 ;; This function calls:
  1023 ;;		Nothing
  1024 ;; This function is called by:
  1025 ;;		_USART_Init
  1026 ;; This function uses a non-reentrant model
  1027 ;;
  1028                           
  1029                           	psect	text5
  1030  0077A6                     __ptext5:
  1031                           	callstack 0
  1032  0077A6                     ___fldiv:
  1033                           	callstack 29
  1034  0077A6  5012               	movf	(___fldiv@b+3)^0,w,c
  1035  0077A8  0B80               	andlw	128
  1036  0077AA  6E1F               	movwf	___fldiv@sign^0,c
  1037  0077AC  5012               	movf	(___fldiv@b+3)^0,w,c
  1038  0077AE  2412               	addwf	(___fldiv@b+3)^0,w,c
  1039  0077B0  6E26               	movwf	___fldiv@bexp^0,c
  1040  0077B2  AE11               	btfss	(___fldiv@b+2)^0,7,c
  1041  0077B4  EFDE  F03B         	goto	u1391
  1042  0077B8  EFE0  F03B         	goto	u1390
  1043  0077BC                     u1391:
  1044  0077BC  EFE1  F03B         	goto	l1520
  1045  0077C0                     u1390:
  1046  0077C0  8026               	bsf	___fldiv@bexp^0,0,c
  1047  0077C2                     l1520:
  1048  0077C2  5026               	movf	___fldiv@bexp^0,w,c
  1049  0077C4  B4D8               	btfsc	status,2,c
  1050  0077C6  EFE7  F03B         	goto	u1401
  1051  0077CA  EFE9  F03B         	goto	u1400
  1052  0077CE                     u1401:
  1053  0077CE  EFFE  F03B         	goto	l1530
  1054  0077D2                     u1400:
  1055  0077D2  2826               	incf	___fldiv@bexp^0,w,c
  1056  0077D4  A4D8               	btfss	status,2,c
  1057  0077D6  EFEF  F03B         	goto	u1411
  1058  0077DA  EFF1  F03B         	goto	u1410
  1059  0077DE                     u1411:
  1060  0077DE  EFF9  F03B         	goto	l1526
  1061  0077E2                     u1410:
  1062  0077E2  0E00               	movlw	0
  1063  0077E4  6E0F               	movwf	___fldiv@b^0,c
  1064  0077E6  0E00               	movlw	0
  1065  0077E8  6E10               	movwf	(___fldiv@b+1)^0,c
  1066  0077EA  0E00               	movlw	0
  1067  0077EC  6E11               	movwf	(___fldiv@b+2)^0,c
  1068  0077EE  0E00               	movlw	0
  1069  0077F0  6E12               	movwf	(___fldiv@b+3)^0,c
  1070  0077F2                     l1526:
  1071  0077F2  8E11               	bsf	(___fldiv@b+2)^0,7,c
  1072  0077F4  0E00               	movlw	0
  1073  0077F6  6E12               	movwf	(___fldiv@b+3)^0,c
  1074  0077F8  EF06  F03C         	goto	l1532
  1075  0077FC                     l1530:
  1076  0077FC  0E00               	movlw	0
  1077  0077FE  6E0F               	movwf	___fldiv@b^0,c
  1078  007800  0E00               	movlw	0
  1079  007802  6E10               	movwf	(___fldiv@b+1)^0,c
  1080  007804  0E00               	movlw	0
  1081  007806  6E11               	movwf	(___fldiv@b+2)^0,c
  1082  007808  0E00               	movlw	0
  1083  00780A  6E12               	movwf	(___fldiv@b+3)^0,c
  1084  00780C                     l1532:
  1085  00780C  5016               	movf	(___fldiv@a+3)^0,w,c
  1086  00780E  0B80               	andlw	128
  1087  007810  1A1F               	xorwf	___fldiv@sign^0,f,c
  1088  007812  5016               	movf	(___fldiv@a+3)^0,w,c
  1089  007814  2416               	addwf	(___fldiv@a+3)^0,w,c
  1090  007816  6E27               	movwf	___fldiv@aexp^0,c
  1091  007818  AE15               	btfss	(___fldiv@a+2)^0,7,c
  1092  00781A  EF11  F03C         	goto	u1421
  1093  00781E  EF13  F03C         	goto	u1420
  1094  007822                     u1421:
  1095  007822  EF14  F03C         	goto	l1540
  1096  007826                     u1420:
  1097  007826  8027               	bsf	___fldiv@aexp^0,0,c
  1098  007828                     l1540:
  1099  007828  5027               	movf	___fldiv@aexp^0,w,c
  1100  00782A  B4D8               	btfsc	status,2,c
  1101  00782C  EF1A  F03C         	goto	u1431
  1102  007830  EF1C  F03C         	goto	u1430
  1103  007834                     u1431:
  1104  007834  EF31  F03C         	goto	l1550
  1105  007838                     u1430:
  1106  007838  2827               	incf	___fldiv@aexp^0,w,c
  1107  00783A  A4D8               	btfss	status,2,c
  1108  00783C  EF22  F03C         	goto	u1441
  1109  007840  EF24  F03C         	goto	u1440
  1110  007844                     u1441:
  1111  007844  EF2C  F03C         	goto	l1546
  1112  007848                     u1440:
  1113  007848  0E00               	movlw	0
  1114  00784A  6E13               	movwf	___fldiv@a^0,c
  1115  00784C  0E00               	movlw	0
  1116  00784E  6E14               	movwf	(___fldiv@a+1)^0,c
  1117  007850  0E00               	movlw	0
  1118  007852  6E15               	movwf	(___fldiv@a+2)^0,c
  1119  007854  0E00               	movlw	0
  1120  007856  6E16               	movwf	(___fldiv@a+3)^0,c
  1121  007858                     l1546:
  1122  007858  8E15               	bsf	(___fldiv@a+2)^0,7,c
  1123  00785A  0E00               	movlw	0
  1124  00785C  6E16               	movwf	(___fldiv@a+3)^0,c
  1125  00785E  EF39  F03C         	goto	l1552
  1126  007862                     l1550:
  1127  007862  0E00               	movlw	0
  1128  007864  6E13               	movwf	___fldiv@a^0,c
  1129  007866  0E00               	movlw	0
  1130  007868  6E14               	movwf	(___fldiv@a+1)^0,c
  1131  00786A  0E00               	movlw	0
  1132  00786C  6E15               	movwf	(___fldiv@a+2)^0,c
  1133  00786E  0E00               	movlw	0
  1134  007870  6E16               	movwf	(___fldiv@a+3)^0,c
  1135  007872                     l1552:
  1136  007872  5013               	movf	___fldiv@a^0,w,c
  1137  007874  1014               	iorwf	(___fldiv@a+1)^0,w,c
  1138  007876  1015               	iorwf	(___fldiv@a+2)^0,w,c
  1139  007878  1016               	iorwf	(___fldiv@a+3)^0,w,c
  1140  00787A  A4D8               	btfss	status,2,c
  1141  00787C  EF42  F03C         	goto	u1451
  1142  007880  EF44  F03C         	goto	u1450
  1143  007884                     u1451:
  1144  007884  EF5C  F03C         	goto	l1564
  1145  007888                     u1450:
  1146  007888  0E00               	movlw	0
  1147  00788A  6E0F               	movwf	___fldiv@b^0,c
  1148  00788C  0E00               	movlw	0
  1149  00788E  6E10               	movwf	(___fldiv@b+1)^0,c
  1150  007890  0E00               	movlw	0
  1151  007892  6E11               	movwf	(___fldiv@b+2)^0,c
  1152  007894  0E00               	movlw	0
  1153  007896  6E12               	movwf	(___fldiv@b+3)^0,c
  1154  007898  0E80               	movlw	128
  1155  00789A  1211               	iorwf	(___fldiv@b+2)^0,f,c
  1156  00789C  0E7F               	movlw	127
  1157  00789E  1212               	iorwf	(___fldiv@b+3)^0,f,c
  1158  0078A0                     l1558:
  1159  0078A0  501F               	movf	___fldiv@sign^0,w,c
  1160  0078A2  1212               	iorwf	(___fldiv@b+3)^0,f,c
  1161  0078A4  C00F  F00F         	movff	___fldiv@b,?___fldiv
  1162  0078A8  C010  F010         	movff	___fldiv@b+1,?___fldiv+1
  1163  0078AC  C011  F011         	movff	___fldiv@b+2,?___fldiv+2
  1164  0078B0  C012  F012         	movff	___fldiv@b+3,?___fldiv+3
  1165  0078B4  EF9F  F03D         	goto	l677
  1166  0078B8                     l1564:
  1167  0078B8  5026               	movf	___fldiv@bexp^0,w,c
  1168  0078BA  A4D8               	btfss	status,2,c
  1169  0078BC  EF62  F03C         	goto	u1461
  1170  0078C0  EF64  F03C         	goto	u1460
  1171  0078C4                     u1461:
  1172  0078C4  EF6E  F03C         	goto	l1572
  1173  0078C8                     u1460:
  1174  0078C8  0E00               	movlw	0
  1175  0078CA  6E0F               	movwf	?___fldiv^0,c
  1176  0078CC  0E00               	movlw	0
  1177  0078CE  6E10               	movwf	(?___fldiv+1)^0,c
  1178  0078D0  0E00               	movlw	0
  1179  0078D2  6E11               	movwf	(?___fldiv+2)^0,c
  1180  0078D4  0E00               	movlw	0
  1181  0078D6  6E12               	movwf	(?___fldiv+3)^0,c
  1182  0078D8  EF9F  F03D         	goto	l677
  1183  0078DC                     l1572:
  1184  0078DC  5027               	movf	___fldiv@aexp^0,w,c
  1185  0078DE  C026  F017         	movff	___fldiv@bexp,??___fldiv
  1186  0078E2  6A18               	clrf	(??___fldiv+1)^0,c
  1187  0078E4  5E17               	subwf	??___fldiv^0,f,c
  1188  0078E6  0E00               	movlw	0
  1189  0078E8  5A18               	subwfb	(??___fldiv+1)^0,f,c
  1190  0078EA  0E7F               	movlw	127
  1191  0078EC  2417               	addwf	??___fldiv^0,w,c
  1192  0078EE  6E20               	movwf	___fldiv@new_exp^0,c
  1193  0078F0  0E00               	movlw	0
  1194  0078F2  2018               	addwfc	(??___fldiv+1)^0,w,c
  1195  0078F4  6E21               	movwf	(___fldiv@new_exp+1)^0,c
  1196  0078F6  C00F  F01B         	movff	___fldiv@b,___fldiv@rem
  1197  0078FA  C010  F01C         	movff	___fldiv@b+1,___fldiv@rem+1
  1198  0078FE  C011  F01D         	movff	___fldiv@b+2,___fldiv@rem+2
  1199  007902  C012  F01E         	movff	___fldiv@b+3,___fldiv@rem+3
  1200  007906  0E00               	movlw	0
  1201  007908  6E0F               	movwf	___fldiv@b^0,c
  1202  00790A  0E00               	movlw	0
  1203  00790C  6E10               	movwf	(___fldiv@b+1)^0,c
  1204  00790E  0E00               	movlw	0
  1205  007910  6E11               	movwf	(___fldiv@b+2)^0,c
  1206  007912  0E00               	movlw	0
  1207  007914  6E12               	movwf	(___fldiv@b+3)^0,c
  1208  007916  0E00               	movlw	0
  1209  007918  6E22               	movwf	___fldiv@grs^0,c
  1210  00791A  0E00               	movlw	0
  1211  00791C  6E23               	movwf	(___fldiv@grs+1)^0,c
  1212  00791E  0E00               	movlw	0
  1213  007920  6E24               	movwf	(___fldiv@grs+2)^0,c
  1214  007922  0E00               	movlw	0
  1215  007924  6E25               	movwf	(___fldiv@grs+3)^0,c
  1216  007926  0E00               	movlw	0
  1217  007928  6E27               	movwf	___fldiv@aexp^0,c
  1218  00792A  EFCF  F03C         	goto	l679
  1219  00792E                     l1582:
  1220  00792E  5027               	movf	___fldiv@aexp^0,w,c
  1221  007930  B4D8               	btfsc	status,2,c
  1222  007932  EF9D  F03C         	goto	u1471
  1223  007936  EF9F  F03C         	goto	u1470
  1224  00793A                     u1471:
  1225  00793A  EFB6  F03C         	goto	l1590
  1226  00793E                     u1470:
  1227  00793E  90D8               	bcf	status,0,c
  1228  007940  361B               	rlcf	___fldiv@rem^0,f,c
  1229  007942  361C               	rlcf	(___fldiv@rem+1)^0,f,c
  1230  007944  361D               	rlcf	(___fldiv@rem+2)^0,f,c
  1231  007946  361E               	rlcf	(___fldiv@rem+3)^0,f,c
  1232  007948  90D8               	bcf	status,0,c
  1233  00794A  360F               	rlcf	___fldiv@b^0,f,c
  1234  00794C  3610               	rlcf	(___fldiv@b+1)^0,f,c
  1235  00794E  3611               	rlcf	(___fldiv@b+2)^0,f,c
  1236  007950  3612               	rlcf	(___fldiv@b+3)^0,f,c
  1237  007952  AE25               	btfss	(___fldiv@grs+3)^0,7,c
  1238  007954  EFAE  F03C         	goto	u1481
  1239  007958  EFB0  F03C         	goto	u1480
  1240  00795C                     u1481:
  1241  00795C  EFB1  F03C         	goto	l682
  1242  007960                     u1480:
  1243  007960  800F               	bsf	___fldiv@b^0,0,c
  1244  007962                     l682:
  1245  007962  90D8               	bcf	status,0,c
  1246  007964  3622               	rlcf	___fldiv@grs^0,f,c
  1247  007966  3623               	rlcf	(___fldiv@grs+1)^0,f,c
  1248  007968  3624               	rlcf	(___fldiv@grs+2)^0,f,c
  1249  00796A  3625               	rlcf	(___fldiv@grs+3)^0,f,c
  1250  00796C                     l1590:
  1251  00796C  5013               	movf	___fldiv@a^0,w,c
  1252  00796E  5C1B               	subwf	___fldiv@rem^0,w,c
  1253  007970  5014               	movf	(___fldiv@a+1)^0,w,c
  1254  007972  581C               	subwfb	(___fldiv@rem+1)^0,w,c
  1255  007974  5015               	movf	(___fldiv@a+2)^0,w,c
  1256  007976  581D               	subwfb	(___fldiv@rem+2)^0,w,c
  1257  007978  5016               	movf	(___fldiv@a+3)^0,w,c
  1258  00797A  581E               	subwfb	(___fldiv@rem+3)^0,w,c
  1259  00797C  A0D8               	btfss	status,0,c
  1260  00797E  EFC3  F03C         	goto	u1491
  1261  007982  EFC5  F03C         	goto	u1490
  1262  007986                     u1491:
  1263  007986  EFCE  F03C         	goto	l1596
  1264  00798A                     u1490:
  1265  00798A  8C25               	bsf	(___fldiv@grs+3)^0,6,c
  1266  00798C  5013               	movf	___fldiv@a^0,w,c
  1267  00798E  5E1B               	subwf	___fldiv@rem^0,f,c
  1268  007990  5014               	movf	(___fldiv@a+1)^0,w,c
  1269  007992  5A1C               	subwfb	(___fldiv@rem+1)^0,f,c
  1270  007994  5015               	movf	(___fldiv@a+2)^0,w,c
  1271  007996  5A1D               	subwfb	(___fldiv@rem+2)^0,f,c
  1272  007998  5016               	movf	(___fldiv@a+3)^0,w,c
  1273  00799A  5A1E               	subwfb	(___fldiv@rem+3)^0,f,c
  1274  00799C                     l1596:
  1275  00799C  2A27               	incf	___fldiv@aexp^0,f,c
  1276  00799E                     l679:
  1277  00799E  0E19               	movlw	25
  1278  0079A0  6427               	cpfsgt	___fldiv@aexp^0,c
  1279  0079A2  EFD5  F03C         	goto	u1501
  1280  0079A6  EFD7  F03C         	goto	u1500
  1281  0079AA                     u1501:
  1282  0079AA  EF97  F03C         	goto	l1582
  1283  0079AE                     u1500:
  1284  0079AE  501B               	movf	___fldiv@rem^0,w,c
  1285  0079B0  101C               	iorwf	(___fldiv@rem+1)^0,w,c
  1286  0079B2  101D               	iorwf	(___fldiv@rem+2)^0,w,c
  1287  0079B4  101E               	iorwf	(___fldiv@rem+3)^0,w,c
  1288  0079B6  B4D8               	btfsc	status,2,c
  1289  0079B8  EFE0  F03C         	goto	u1511
  1290  0079BC  EFE2  F03C         	goto	u1510
  1291  0079C0                     u1511:
  1292  0079C0  EFFA  F03C         	goto	l1608
  1293  0079C4                     u1510:
  1294  0079C4  8022               	bsf	___fldiv@grs^0,0,c
  1295  0079C6  EFFA  F03C         	goto	l1608
  1296  0079CA                     l1602:
  1297  0079CA  90D8               	bcf	status,0,c
  1298  0079CC  360F               	rlcf	___fldiv@b^0,f,c
  1299  0079CE  3610               	rlcf	(___fldiv@b+1)^0,f,c
  1300  0079D0  3611               	rlcf	(___fldiv@b+2)^0,f,c
  1301  0079D2  3612               	rlcf	(___fldiv@b+3)^0,f,c
  1302  0079D4  AE25               	btfss	(___fldiv@grs+3)^0,7,c
  1303  0079D6  EFEF  F03C         	goto	u1521
  1304  0079DA  EFF1  F03C         	goto	u1520
  1305  0079DE                     u1521:
  1306  0079DE  EFF2  F03C         	goto	l688
  1307  0079E2                     u1520:
  1308  0079E2  800F               	bsf	___fldiv@b^0,0,c
  1309  0079E4                     l688:
  1310  0079E4  90D8               	bcf	status,0,c
  1311  0079E6  3622               	rlcf	___fldiv@grs^0,f,c
  1312  0079E8  3623               	rlcf	(___fldiv@grs+1)^0,f,c
  1313  0079EA  3624               	rlcf	(___fldiv@grs+2)^0,f,c
  1314  0079EC  3625               	rlcf	(___fldiv@grs+3)^0,f,c
  1315  0079EE  0620               	decf	___fldiv@new_exp^0,f,c
  1316  0079F0  A0D8               	btfss	status,0,c
  1317  0079F2  0621               	decf	(___fldiv@new_exp+1)^0,f,c
  1318  0079F4                     l1608:
  1319  0079F4  AE11               	btfss	(___fldiv@b+2)^0,7,c
  1320  0079F6  EFFF  F03C         	goto	u1531
  1321  0079FA  EF01  F03D         	goto	u1530
  1322  0079FE                     u1531:
  1323  0079FE  EFE5  F03C         	goto	l1602
  1324  007A02                     u1530:
  1325  007A02  0E00               	movlw	0
  1326  007A04  6E27               	movwf	___fldiv@aexp^0,c
  1327  007A06  AE25               	btfss	(___fldiv@grs+3)^0,7,c
  1328  007A08  EF08  F03D         	goto	u1541
  1329  007A0C  EF0A  F03D         	goto	u1540
  1330  007A10                     u1541:
  1331  007A10  EF2E  F03D         	goto	l690
  1332  007A14                     u1540:
  1333  007A14  0EFF               	movlw	255
  1334  007A16  1422               	andwf	___fldiv@grs^0,w,c
  1335  007A18  6E17               	movwf	??___fldiv^0,c
  1336  007A1A  0EFF               	movlw	255
  1337  007A1C  1423               	andwf	(___fldiv@grs+1)^0,w,c
  1338  007A1E  6E18               	movwf	(??___fldiv+1)^0,c
  1339  007A20  0EFF               	movlw	255
  1340  007A22  1424               	andwf	(___fldiv@grs+2)^0,w,c
  1341  007A24  6E19               	movwf	(??___fldiv+2)^0,c
  1342  007A26  0E7F               	movlw	127
  1343  007A28  1425               	andwf	(___fldiv@grs+3)^0,w,c
  1344  007A2A  6E1A               	movwf	(??___fldiv+3)^0,c
  1345  007A2C  5017               	movf	??___fldiv^0,w,c
  1346  007A2E  1018               	iorwf	(??___fldiv+1)^0,w,c
  1347  007A30  1019               	iorwf	(??___fldiv+2)^0,w,c
  1348  007A32  101A               	iorwf	(??___fldiv+3)^0,w,c
  1349  007A34  B4D8               	btfsc	status,2,c
  1350  007A36  EF1F  F03D         	goto	u1551
  1351  007A3A  EF21  F03D         	goto	u1550
  1352  007A3E                     u1551:
  1353  007A3E  EF25  F03D         	goto	l691
  1354  007A42                     u1550:
  1355  007A42                     l1616:
  1356  007A42  0E01               	movlw	1
  1357  007A44  6E27               	movwf	___fldiv@aexp^0,c
  1358  007A46  EF2E  F03D         	goto	l690
  1359  007A4A                     l691:
  1360  007A4A  A00F               	btfss	___fldiv@b^0,0,c
  1361  007A4C  EF2A  F03D         	goto	u1561
  1362  007A50  EF2C  F03D         	goto	u1560
  1363  007A54                     u1561:
  1364  007A54  EF2E  F03D         	goto	l690
  1365  007A58                     u1560:
  1366  007A58  EF21  F03D         	goto	l1616
  1367  007A5C                     l690:
  1368  007A5C  5027               	movf	___fldiv@aexp^0,w,c
  1369  007A5E  B4D8               	btfsc	status,2,c
  1370  007A60  EF34  F03D         	goto	u1571
  1371  007A64  EF36  F03D         	goto	u1570
  1372  007A68                     u1571:
  1373  007A68  EF5A  F03D         	goto	l1628
  1374  007A6C                     u1570:
  1375  007A6C  0E01               	movlw	1
  1376  007A6E  260F               	addwf	___fldiv@b^0,f,c
  1377  007A70  0E00               	movlw	0
  1378  007A72  2210               	addwfc	(___fldiv@b+1)^0,f,c
  1379  007A74  2211               	addwfc	(___fldiv@b+2)^0,f,c
  1380  007A76  2212               	addwfc	(___fldiv@b+3)^0,f,c
  1381  007A78  A012               	btfss	(___fldiv@b+3)^0,0,c
  1382  007A7A  EF41  F03D         	goto	u1581
  1383  007A7E  EF43  F03D         	goto	u1580
  1384  007A82                     u1581:
  1385  007A82  EF5A  F03D         	goto	l1628
  1386  007A86                     u1580:
  1387  007A86  C00F  F017         	movff	___fldiv@b,??___fldiv
  1388  007A8A  C010  F018         	movff	___fldiv@b+1,??___fldiv+1
  1389  007A8E  C011  F019         	movff	___fldiv@b+2,??___fldiv+2
  1390  007A92  C012  F01A         	movff	___fldiv@b+3,??___fldiv+3
  1391  007A96  341A               	rlcf	(??___fldiv+3)^0,w,c
  1392  007A98  321A               	rrcf	(??___fldiv+3)^0,f,c
  1393  007A9A  3219               	rrcf	(??___fldiv+2)^0,f,c
  1394  007A9C  3218               	rrcf	(??___fldiv+1)^0,f,c
  1395  007A9E  3217               	rrcf	??___fldiv^0,f,c
  1396  007AA0  C017  F00F         	movff	??___fldiv,___fldiv@b
  1397  007AA4  C018  F010         	movff	??___fldiv+1,___fldiv@b+1
  1398  007AA8  C019  F011         	movff	??___fldiv+2,___fldiv@b+2
  1399  007AAC  C01A  F012         	movff	??___fldiv+3,___fldiv@b+3
  1400  007AB0  4A20               	infsnz	___fldiv@new_exp^0,f,c
  1401  007AB2  2A21               	incf	(___fldiv@new_exp+1)^0,f,c
  1402  007AB4                     l1628:
  1403  007AB4  BE21               	btfsc	(___fldiv@new_exp+1)^0,7,c
  1404  007AB6  EF65  F03D         	goto	u1591
  1405  007ABA  5021               	movf	(___fldiv@new_exp+1)^0,w,c
  1406  007ABC  E108               	bnz	u1590
  1407  007ABE  2820               	incf	___fldiv@new_exp^0,w,c
  1408  007AC0  A0D8               	btfss	status,0,c
  1409  007AC2  EF65  F03D         	goto	u1591
  1410  007AC6  EF67  F03D         	goto	u1590
  1411  007ACA                     u1591:
  1412  007ACA  EF72  F03D         	goto	l1632
  1413  007ACE                     u1590:
  1414  007ACE  0E00               	movlw	0
  1415  007AD0  6E21               	movwf	(___fldiv@new_exp+1)^0,c
  1416  007AD2  6820               	setf	___fldiv@new_exp^0,c
  1417  007AD4  0E00               	movlw	0
  1418  007AD6  6E0F               	movwf	___fldiv@b^0,c
  1419  007AD8  0E00               	movlw	0
  1420  007ADA  6E10               	movwf	(___fldiv@b+1)^0,c
  1421  007ADC  0E00               	movlw	0
  1422  007ADE  6E11               	movwf	(___fldiv@b+2)^0,c
  1423  007AE0  0E00               	movlw	0
  1424  007AE2  6E12               	movwf	(___fldiv@b+3)^0,c
  1425  007AE4                     l1632:
  1426  007AE4  BE21               	btfsc	(___fldiv@new_exp+1)^0,7,c
  1427  007AE6  EF7F  F03D         	goto	u1600
  1428  007AEA  5021               	movf	(___fldiv@new_exp+1)^0,w,c
  1429  007AEC  E106               	bnz	u1601
  1430  007AEE  0420               	decf	___fldiv@new_exp^0,w,c
  1431  007AF0  B0D8               	btfsc	status,0,c
  1432  007AF2  EF7D  F03D         	goto	u1601
  1433  007AF6  EF7F  F03D         	goto	u1600
  1434  007AFA                     u1601:
  1435  007AFA  EF8D  F03D         	goto	l1636
  1436  007AFE                     u1600:
  1437  007AFE  0E00               	movlw	0
  1438  007B00  6E21               	movwf	(___fldiv@new_exp+1)^0,c
  1439  007B02  0E00               	movlw	0
  1440  007B04  6E20               	movwf	___fldiv@new_exp^0,c
  1441  007B06  0E00               	movlw	0
  1442  007B08  6E0F               	movwf	___fldiv@b^0,c
  1443  007B0A  0E00               	movlw	0
  1444  007B0C  6E10               	movwf	(___fldiv@b+1)^0,c
  1445  007B0E  0E00               	movlw	0
  1446  007B10  6E11               	movwf	(___fldiv@b+2)^0,c
  1447  007B12  0E00               	movlw	0
  1448  007B14  6E12               	movwf	(___fldiv@b+3)^0,c
  1449  007B16  0E00               	movlw	0
  1450  007B18  6E1F               	movwf	___fldiv@sign^0,c
  1451  007B1A                     l1636:
  1452  007B1A  C020  F026         	movff	___fldiv@new_exp,___fldiv@bexp
  1453  007B1E  A026               	btfss	___fldiv@bexp^0,0,c
  1454  007B20  EF94  F03D         	goto	u1611
  1455  007B24  EF96  F03D         	goto	u1610
  1456  007B28                     u1611:
  1457  007B28  EF99  F03D         	goto	l1642
  1458  007B2C                     u1610:
  1459  007B2C  8E11               	bsf	(___fldiv@b+2)^0,7,c
  1460  007B2E  EF9A  F03D         	goto	l1644
  1461  007B32                     l1642:
  1462  007B32  9E11               	bcf	(___fldiv@b+2)^0,7,c
  1463  007B34                     l1644:
  1464  007B34  90D8               	bcf	status,0,c
  1465  007B36  3026               	rrcf	___fldiv@bexp^0,w,c
  1466  007B38  6E12               	movwf	(___fldiv@b+3)^0,c
  1467  007B3A  EF50  F03C         	goto	l1558
  1468  007B3E                     l677:
  1469  007B3E  0012               	return		;funcret
  1470  007B40                     __end_of___fldiv:
  1471                           	callstack 0
  1472                           
  1473 ;; *************** function ___fladd *****************
  1474 ;; Defined at:
  1475 ;;		line 10 in file "D:\mplab\pic\sources\c99\common\sprcadd.c"
  1476 ;; Parameters:    Size  Location     Type
  1477 ;;  b               4   39[COMRAM] unsigned char 
  1478 ;;  a               4   43[COMRAM] unsigned char 
  1479 ;; Auto vars:     Size  Location     Type
  1480 ;;  grs             1   54[COMRAM] unsigned char 
  1481 ;;  bexp            1   53[COMRAM] unsigned char 
  1482 ;;  aexp            1   52[COMRAM] unsigned char 
  1483 ;;  signs           1   51[COMRAM] unsigned char 
  1484 ;; Return value:  Size  Location     Type
  1485 ;;                  4   39[COMRAM] unsigned char 
  1486 ;; Registers used:
  1487 ;;		wreg, status,2, status,0
  1488 ;; Tracked objects:
  1489 ;;		On entry : 0/0
  1490 ;;		On exit  : 0/0
  1491 ;;		Unchanged: 0/0
  1492 ;; Data sizes:     COMRAM   BANK0   BANK1   BANK2   BANK3   BANK4   BANK5   BANK6   BANK7
  1493 ;;      Params:         8       0       0       0       0       0       0       0       0
  1494 ;;      Locals:         4       0       0       0       0       0       0       0       0
  1495 ;;      Temps:          4       0       0       0       0       0       0       0       0
  1496 ;;      Totals:        16       0       0       0       0       0       0       0       0
  1497 ;;Total ram usage:       16 bytes
  1498 ;; Hardware stack levels used: 1
  1499 ;; This function calls:
  1500 ;;		Nothing
  1501 ;; This function is called by:
  1502 ;;		_USART_Init
  1503 ;; This function uses a non-reentrant model
  1504 ;;
  1505                           
  1506                           	psect	text6
  1507  007B40                     __ptext6:
  1508                           	callstack 0
  1509  007B40                     ___fladd:
  1510                           	callstack 29
  1511  007B40  502B               	movf	(___fladd@b+3)^0,w,c
  1512  007B42  0B80               	andlw	128
  1513  007B44  6E34               	movwf	___fladd@signs^0,c
  1514  007B46  502B               	movf	(___fladd@b+3)^0,w,c
  1515  007B48  242B               	addwf	(___fladd@b+3)^0,w,c
  1516  007B4A  6E36               	movwf	___fladd@bexp^0,c
  1517  007B4C  AE2A               	btfss	(___fladd@b+2)^0,7,c
  1518  007B4E  EFAB  F03D         	goto	u1001
  1519  007B52  EFAD  F03D         	goto	u1000
  1520  007B56                     u1001:
  1521  007B56  EFAE  F03D         	goto	l1318
  1522  007B5A                     u1000:
  1523  007B5A  8036               	bsf	___fladd@bexp^0,0,c
  1524  007B5C                     l1318:
  1525  007B5C  5036               	movf	___fladd@bexp^0,w,c
  1526  007B5E  B4D8               	btfsc	status,2,c
  1527  007B60  EFB4  F03D         	goto	u1011
  1528  007B64  EFB6  F03D         	goto	u1010
  1529  007B68                     u1011:
  1530  007B68  EFCB  F03D         	goto	l1328
  1531  007B6C                     u1010:
  1532  007B6C  2836               	incf	___fladd@bexp^0,w,c
  1533  007B6E  A4D8               	btfss	status,2,c
  1534  007B70  EFBC  F03D         	goto	u1021
  1535  007B74  EFBE  F03D         	goto	u1020
  1536  007B78                     u1021:
  1537  007B78  EFC6  F03D         	goto	l1324
  1538  007B7C                     u1020:
  1539  007B7C  0E00               	movlw	0
  1540  007B7E  6E28               	movwf	___fladd@b^0,c
  1541  007B80  0E00               	movlw	0
  1542  007B82  6E29               	movwf	(___fladd@b+1)^0,c
  1543  007B84  0E00               	movlw	0
  1544  007B86  6E2A               	movwf	(___fladd@b+2)^0,c
  1545  007B88  0E00               	movlw	0
  1546  007B8A  6E2B               	movwf	(___fladd@b+3)^0,c
  1547  007B8C                     l1324:
  1548  007B8C  8E2A               	bsf	(___fladd@b+2)^0,7,c
  1549  007B8E  0E00               	movlw	0
  1550  007B90  6E2B               	movwf	(___fladd@b+3)^0,c
  1551  007B92  EFD3  F03D         	goto	l1330
  1552  007B96                     l1328:
  1553  007B96  0E00               	movlw	0
  1554  007B98  6E28               	movwf	___fladd@b^0,c
  1555  007B9A  0E00               	movlw	0
  1556  007B9C  6E29               	movwf	(___fladd@b+1)^0,c
  1557  007B9E  0E00               	movlw	0
  1558  007BA0  6E2A               	movwf	(___fladd@b+2)^0,c
  1559  007BA2  0E00               	movlw	0
  1560  007BA4  6E2B               	movwf	(___fladd@b+3)^0,c
  1561  007BA6                     l1330:
  1562  007BA6  502F               	movf	(___fladd@a+3)^0,w,c
  1563  007BA8  0B80               	andlw	128
  1564  007BAA  6E35               	movwf	___fladd@aexp^0,c
  1565  007BAC  5034               	movf	___fladd@signs^0,w,c
  1566  007BAE  1835               	xorwf	___fladd@aexp^0,w,c
  1567  007BB0  B4D8               	btfsc	status,2,c
  1568  007BB2  EFDD  F03D         	goto	u1031
  1569  007BB6  EFDF  F03D         	goto	u1030
  1570  007BBA                     u1031:
  1571  007BBA  EFE0  F03D         	goto	l1336
  1572  007BBE                     u1030:
  1573  007BBE  8C34               	bsf	___fladd@signs^0,6,c
  1574  007BC0                     l1336:
  1575  007BC0  502F               	movf	(___fladd@a+3)^0,w,c
  1576  007BC2  242F               	addwf	(___fladd@a+3)^0,w,c
  1577  007BC4  6E35               	movwf	___fladd@aexp^0,c
  1578  007BC6  AE2E               	btfss	(___fladd@a+2)^0,7,c
  1579  007BC8  EFE8  F03D         	goto	u1041
  1580  007BCC  EFEA  F03D         	goto	u1040
  1581  007BD0                     u1041:
  1582  007BD0  EFEB  F03D         	goto	l1342
  1583  007BD4                     u1040:
  1584  007BD4  8035               	bsf	___fladd@aexp^0,0,c
  1585  007BD6                     l1342:
  1586  007BD6  5035               	movf	___fladd@aexp^0,w,c
  1587  007BD8  B4D8               	btfsc	status,2,c
  1588  007BDA  EFF1  F03D         	goto	u1051
  1589  007BDE  EFF3  F03D         	goto	u1050
  1590  007BE2                     u1051:
  1591  007BE2  EF08  F03E         	goto	l1352
  1592  007BE6                     u1050:
  1593  007BE6  2835               	incf	___fladd@aexp^0,w,c
  1594  007BE8  A4D8               	btfss	status,2,c
  1595  007BEA  EFF9  F03D         	goto	u1061
  1596  007BEE  EFFB  F03D         	goto	u1060
  1597  007BF2                     u1061:
  1598  007BF2  EF03  F03E         	goto	l1348
  1599  007BF6                     u1060:
  1600  007BF6  0E00               	movlw	0
  1601  007BF8  6E2C               	movwf	___fladd@a^0,c
  1602  007BFA  0E00               	movlw	0
  1603  007BFC  6E2D               	movwf	(___fladd@a+1)^0,c
  1604  007BFE  0E00               	movlw	0
  1605  007C00  6E2E               	movwf	(___fladd@a+2)^0,c
  1606  007C02  0E00               	movlw	0
  1607  007C04  6E2F               	movwf	(___fladd@a+3)^0,c
  1608  007C06                     l1348:
  1609  007C06  8E2E               	bsf	(___fladd@a+2)^0,7,c
  1610  007C08  0E00               	movlw	0
  1611  007C0A  6E2F               	movwf	(___fladd@a+3)^0,c
  1612  007C0C  EF10  F03E         	goto	l1354
  1613  007C10                     l1352:
  1614  007C10  0E00               	movlw	0
  1615  007C12  6E2C               	movwf	___fladd@a^0,c
  1616  007C14  0E00               	movlw	0
  1617  007C16  6E2D               	movwf	(___fladd@a+1)^0,c
  1618  007C18  0E00               	movlw	0
  1619  007C1A  6E2E               	movwf	(___fladd@a+2)^0,c
  1620  007C1C  0E00               	movlw	0
  1621  007C1E  6E2F               	movwf	(___fladd@a+3)^0,c
  1622  007C20                     l1354:
  1623  007C20  5036               	movf	___fladd@bexp^0,w,c
  1624  007C22  5C35               	subwf	___fladd@aexp^0,w,c
  1625  007C24  B0D8               	btfsc	status,0,c
  1626  007C26  EF17  F03E         	goto	u1071
  1627  007C2A  EF19  F03E         	goto	u1070
  1628  007C2E                     u1071:
  1629  007C2E  EF40  F03E         	goto	l1390
  1630  007C32                     u1070:
  1631  007C32  AC34               	btfss	___fladd@signs^0,6,c
  1632  007C34  EF1E  F03E         	goto	u1081
  1633  007C38  EF20  F03E         	goto	u1080
  1634  007C3C                     u1081:
  1635  007C3C  EF22  F03E         	goto	l1360
  1636  007C40                     u1080:
  1637  007C40  0E80               	movlw	128
  1638  007C42  1A34               	xorwf	___fladd@signs^0,f,c
  1639  007C44                     l1360:
  1640  007C44  C036  F037         	movff	___fladd@bexp,___fladd@grs
  1641  007C48  C035  F036         	movff	___fladd@aexp,___fladd@bexp
  1642  007C4C  C037  F035         	movff	___fladd@grs,___fladd@aexp
  1643  007C50  C028  F037         	movff	___fladd@b,___fladd@grs
  1644  007C54  C02C  F028         	movff	___fladd@a,___fladd@b
  1645  007C58  C037  F02C         	movff	___fladd@grs,___fladd@a
  1646  007C5C  C029  F037         	movff	___fladd@b+1,___fladd@grs
  1647  007C60  C02D  F029         	movff	___fladd@a+1,___fladd@b+1
  1648  007C64  C037  F02D         	movff	___fladd@grs,___fladd@a+1
  1649  007C68  C02A  F037         	movff	___fladd@b+2,___fladd@grs
  1650  007C6C  C02E  F02A         	movff	___fladd@a+2,___fladd@b+2
  1651  007C70  C037  F02E         	movff	___fladd@grs,___fladd@a+2
  1652  007C74  C02B  F037         	movff	___fladd@b+3,___fladd@grs
  1653  007C78  C02F  F02B         	movff	___fladd@a+3,___fladd@b+3
  1654  007C7C  C037  F02F         	movff	___fladd@grs,___fladd@a+3
  1655  007C80                     l1390:
  1656  007C80  0E00               	movlw	0
  1657  007C82  6E37               	movwf	___fladd@grs^0,c
  1658  007C84  5036               	movf	___fladd@bexp^0,w,c
  1659  007C86  C035  F030         	movff	___fladd@aexp,??___fladd
  1660  007C8A  6A31               	clrf	(??___fladd+1)^0,c
  1661  007C8C  5E30               	subwf	??___fladd^0,f,c
  1662  007C8E  0E00               	movlw	0
  1663  007C90  5A31               	subwfb	(??___fladd+1)^0,f,c
  1664  007C92  BE31               	btfsc	(??___fladd+1)^0,7,c
  1665  007C94  EF55  F03E         	goto	u1091
  1666  007C98  5031               	movf	(??___fladd+1)^0,w,c
  1667  007C9A  E109               	bnz	u1090
  1668  007C9C  0E1A               	movlw	26
  1669  007C9E  5C30               	subwf	??___fladd^0,w,c
  1670  007CA0  A0D8               	btfss	status,0,c
  1671  007CA2  EF55  F03E         	goto	u1091
  1672  007CA6  EF57  F03E         	goto	u1090
  1673  007CAA                     u1091:
  1674  007CAA  EF8E  F03E         	goto	l624
  1675  007CAE                     u1090:
  1676  007CAE  5028               	movf	___fladd@b^0,w,c
  1677  007CB0  1029               	iorwf	(___fladd@b+1)^0,w,c
  1678  007CB2  102A               	iorwf	(___fladd@b+2)^0,w,c
  1679  007CB4  102B               	iorwf	(___fladd@b+3)^0,w,c
  1680  007CB6  A4D8               	btfss	status,2,c
  1681  007CB8  EF60  F03E         	goto	u1101
  1682  007CBC  EF63  F03E         	goto	u1100
  1683  007CC0                     u1101:
  1684  007CC0  0E01               	movlw	1
  1685  007CC2  EF64  F03E         	goto	u1110
  1686  007CC6                     u1100:
  1687  007CC6  0E00               	movlw	0
  1688  007CC8                     u1110:
  1689  007CC8  6E37               	movwf	___fladd@grs^0,c
  1690  007CCA  0E00               	movlw	0
  1691  007CCC  6E28               	movwf	___fladd@b^0,c
  1692  007CCE  0E00               	movlw	0
  1693  007CD0  6E29               	movwf	(___fladd@b+1)^0,c
  1694  007CD2  0E00               	movlw	0
  1695  007CD4  6E2A               	movwf	(___fladd@b+2)^0,c
  1696  007CD6  0E00               	movlw	0
  1697  007CD8  6E2B               	movwf	(___fladd@b+3)^0,c
  1698  007CDA  C035  F036         	movff	___fladd@aexp,___fladd@bexp
  1699  007CDE  EF97  F03E         	goto	l623
  1700  007CE2                     l625:
  1701  007CE2  A037               	btfss	___fladd@grs^0,0,c
  1702  007CE4  EF76  F03E         	goto	u1121
  1703  007CE8  EF78  F03E         	goto	u1120
  1704  007CEC                     u1121:
  1705  007CEC  EF7E  F03E         	goto	l1402
  1706  007CF0                     u1120:
  1707  007CF0  90D8               	bcf	status,0,c
  1708  007CF2  3037               	rrcf	___fladd@grs^0,w,c
  1709  007CF4  0901               	iorlw	1
  1710  007CF6  6E37               	movwf	___fladd@grs^0,c
  1711  007CF8  EF80  F03E         	goto	l1404
  1712  007CFC                     l1402:
  1713  007CFC  90D8               	bcf	status,0,c
  1714  007CFE  3237               	rrcf	___fladd@grs^0,f,c
  1715  007D00                     l1404:
  1716  007D00  A028               	btfss	___fladd@b^0,0,c
  1717  007D02  EF85  F03E         	goto	u1131
  1718  007D06  EF87  F03E         	goto	u1130
  1719  007D0A                     u1131:
  1720  007D0A  EF88  F03E         	goto	l1408
  1721  007D0E                     u1130:
  1722  007D0E  8E37               	bsf	___fladd@grs^0,7,c
  1723  007D10                     l1408:
  1724  007D10  342B               	rlcf	(___fladd@b+3)^0,w,c
  1725  007D12  322B               	rrcf	(___fladd@b+3)^0,f,c
  1726  007D14  322A               	rrcf	(___fladd@b+2)^0,f,c
  1727  007D16  3229               	rrcf	(___fladd@b+1)^0,f,c
  1728  007D18  3228               	rrcf	___fladd@b^0,f,c
  1729  007D1A  2A36               	incf	___fladd@bexp^0,f,c
  1730  007D1C                     l624:
  1731  007D1C  5035               	movf	___fladd@aexp^0,w,c
  1732  007D1E  5C36               	subwf	___fladd@bexp^0,w,c
  1733  007D20  A0D8               	btfss	status,0,c
  1734  007D22  EF95  F03E         	goto	u1141
  1735  007D26  EF97  F03E         	goto	u1140
  1736  007D2A                     u1141:
  1737  007D2A  EF71  F03E         	goto	l625
  1738  007D2E                     u1140:
  1739  007D2E                     l623:
  1740  007D2E  BC34               	btfsc	___fladd@signs^0,6,c
  1741  007D30  EF9C  F03E         	goto	u1151
  1742  007D34  EF9E  F03E         	goto	u1150
  1743  007D38                     u1151:
  1744  007D38  EFDE  F03E         	goto	l1436
  1745  007D3C                     u1150:
  1746  007D3C  5036               	movf	___fladd@bexp^0,w,c
  1747  007D3E  A4D8               	btfss	status,2,c
  1748  007D40  EFA4  F03E         	goto	u1161
  1749  007D44  EFA6  F03E         	goto	u1160
  1750  007D48                     u1161:
  1751  007D48  EFB0  F03E         	goto	l1418
  1752  007D4C                     u1160:
  1753  007D4C  0E00               	movlw	0
  1754  007D4E  6E28               	movwf	?___fladd^0,c
  1755  007D50  0E00               	movlw	0
  1756  007D52  6E29               	movwf	(?___fladd+1)^0,c
  1757  007D54  0E00               	movlw	0
  1758  007D56  6E2A               	movwf	(?___fladd+2)^0,c
  1759  007D58  0E00               	movlw	0
  1760  007D5A  6E2B               	movwf	(?___fladd+3)^0,c
  1761  007D5C  EFFF  F03F         	goto	l632
  1762  007D60                     l1418:
  1763  007D60  502C               	movf	___fladd@a^0,w,c
  1764  007D62  2628               	addwf	___fladd@b^0,f,c
  1765  007D64  502D               	movf	(___fladd@a+1)^0,w,c
  1766  007D66  2229               	addwfc	(___fladd@b+1)^0,f,c
  1767  007D68  502E               	movf	(___fladd@a+2)^0,w,c
  1768  007D6A  222A               	addwfc	(___fladd@b+2)^0,f,c
  1769  007D6C  502F               	movf	(___fladd@a+3)^0,w,c
  1770  007D6E  222B               	addwfc	(___fladd@b+3)^0,f,c
  1771  007D70  A02B               	btfss	(___fladd@b+3)^0,0,c
  1772  007D72  EFBD  F03E         	goto	u1171
  1773  007D76  EFBF  F03E         	goto	u1170
  1774  007D7A                     u1171:
  1775  007D7A  EF6B  F03F         	goto	l1472
  1776  007D7E                     u1170:
  1777  007D7E  A037               	btfss	___fladd@grs^0,0,c
  1778  007D80  EFC4  F03E         	goto	u1181
  1779  007D84  EFC6  F03E         	goto	u1180
  1780  007D88                     u1181:
  1781  007D88  EFCC  F03E         	goto	l1426
  1782  007D8C                     u1180:
  1783  007D8C  90D8               	bcf	status,0,c
  1784  007D8E  3037               	rrcf	___fladd@grs^0,w,c
  1785  007D90  0901               	iorlw	1
  1786  007D92  6E37               	movwf	___fladd@grs^0,c
  1787  007D94  EFCE  F03E         	goto	l1428
  1788  007D98                     l1426:
  1789  007D98  90D8               	bcf	status,0,c
  1790  007D9A  3237               	rrcf	___fladd@grs^0,f,c
  1791  007D9C                     l1428:
  1792  007D9C  A028               	btfss	___fladd@b^0,0,c
  1793  007D9E  EFD3  F03E         	goto	u1191
  1794  007DA2  EFD5  F03E         	goto	u1190
  1795  007DA6                     u1191:
  1796  007DA6  EFD6  F03E         	goto	l1432
  1797  007DAA                     u1190:
  1798  007DAA  8E37               	bsf	___fladd@grs^0,7,c
  1799  007DAC                     l1432:
  1800  007DAC  342B               	rlcf	(___fladd@b+3)^0,w,c
  1801  007DAE  322B               	rrcf	(___fladd@b+3)^0,f,c
  1802  007DB0  322A               	rrcf	(___fladd@b+2)^0,f,c
  1803  007DB2  3229               	rrcf	(___fladd@b+1)^0,f,c
  1804  007DB4  3228               	rrcf	___fladd@b^0,f,c
  1805  007DB6  2A36               	incf	___fladd@bexp^0,f,c
  1806  007DB8  EF6B  F03F         	goto	l1472
  1807  007DBC                     l1436:
  1808  007DBC  502C               	movf	___fladd@a^0,w,c
  1809  007DBE  5C28               	subwf	___fladd@b^0,w,c
  1810  007DC0  502D               	movf	(___fladd@a+1)^0,w,c
  1811  007DC2  5829               	subwfb	(___fladd@b+1)^0,w,c
  1812  007DC4  502E               	movf	(___fladd@a+2)^0,w,c
  1813  007DC6  582A               	subwfb	(___fladd@b+2)^0,w,c
  1814  007DC8  502B               	movf	(___fladd@b+3)^0,w,c
  1815  007DCA  0A80               	xorlw	128
  1816  007DCC  6E30               	movwf	??___fladd^0,c
  1817  007DCE  502F               	movf	(___fladd@a+3)^0,w,c
  1818  007DD0  0A80               	xorlw	128
  1819  007DD2  5830               	subwfb	??___fladd^0,w,c
  1820  007DD4  B0D8               	btfsc	status,0,c
  1821  007DD6  EFEF  F03E         	goto	u1201
  1822  007DDA  EFF1  F03E         	goto	u1200
  1823  007DDE                     u1201:
  1824  007DDE  EF1C  F03F         	goto	l1446
  1825  007DE2                     u1200:
  1826  007DE2  5028               	movf	___fladd@b^0,w,c
  1827  007DE4  5C2C               	subwf	___fladd@a^0,w,c
  1828  007DE6  6E30               	movwf	??___fladd^0,c
  1829  007DE8  5029               	movf	(___fladd@b+1)^0,w,c
  1830  007DEA  582D               	subwfb	(___fladd@a+1)^0,w,c
  1831  007DEC  6E31               	movwf	(??___fladd+1)^0,c
  1832  007DEE  502A               	movf	(___fladd@b+2)^0,w,c
  1833  007DF0  582E               	subwfb	(___fladd@a+2)^0,w,c
  1834  007DF2  6E32               	movwf	(??___fladd+2)^0,c
  1835  007DF4  502B               	movf	(___fladd@b+3)^0,w,c
  1836  007DF6  582F               	subwfb	(___fladd@a+3)^0,w,c
  1837  007DF8  6E33               	movwf	(??___fladd+3)^0,c
  1838  007DFA  0EFF               	movlw	255
  1839  007DFC  2430               	addwf	??___fladd^0,w,c
  1840  007DFE  6E28               	movwf	___fladd@b^0,c
  1841  007E00  0EFF               	movlw	255
  1842  007E02  2031               	addwfc	(??___fladd+1)^0,w,c
  1843  007E04  6E29               	movwf	(___fladd@b+1)^0,c
  1844  007E06  0EFF               	movlw	255
  1845  007E08  2032               	addwfc	(??___fladd+2)^0,w,c
  1846  007E0A  6E2A               	movwf	(___fladd@b+2)^0,c
  1847  007E0C  0EFF               	movlw	255
  1848  007E0E  2033               	addwfc	(??___fladd+3)^0,w,c
  1849  007E10  6E2B               	movwf	(___fladd@b+3)^0,c
  1850  007E12  0E80               	movlw	128
  1851  007E14  1A34               	xorwf	___fladd@signs^0,f,c
  1852  007E16  6C37               	negf	___fladd@grs^0,c
  1853  007E18  5037               	movf	___fladd@grs^0,w,c
  1854  007E1A  A4D8               	btfss	status,2,c
  1855  007E1C  EF12  F03F         	goto	u1211
  1856  007E20  EF14  F03F         	goto	u1210
  1857  007E24                     u1211:
  1858  007E24  EF24  F03F         	goto	l640
  1859  007E28                     u1210:
  1860  007E28  0E01               	movlw	1
  1861  007E2A  2628               	addwf	___fladd@b^0,f,c
  1862  007E2C  0E00               	movlw	0
  1863  007E2E  2229               	addwfc	(___fladd@b+1)^0,f,c
  1864  007E30  222A               	addwfc	(___fladd@b+2)^0,f,c
  1865  007E32  222B               	addwfc	(___fladd@b+3)^0,f,c
  1866  007E34  EF24  F03F         	goto	l640
  1867  007E38                     l1446:
  1868  007E38  502C               	movf	___fladd@a^0,w,c
  1869  007E3A  5E28               	subwf	___fladd@b^0,f,c
  1870  007E3C  502D               	movf	(___fladd@a+1)^0,w,c
  1871  007E3E  5A29               	subwfb	(___fladd@b+1)^0,f,c
  1872  007E40  502E               	movf	(___fladd@a+2)^0,w,c
  1873  007E42  5A2A               	subwfb	(___fladd@b+2)^0,f,c
  1874  007E44  502F               	movf	(___fladd@a+3)^0,w,c
  1875  007E46  5A2B               	subwfb	(___fladd@b+3)^0,f,c
  1876  007E48                     l640:
  1877  007E48  5028               	movf	___fladd@b^0,w,c
  1878  007E4A  1029               	iorwf	(___fladd@b+1)^0,w,c
  1879  007E4C  102A               	iorwf	(___fladd@b+2)^0,w,c
  1880  007E4E  102B               	iorwf	(___fladd@b+3)^0,w,c
  1881  007E50  A4D8               	btfss	status,2,c
  1882  007E52  EF2D  F03F         	goto	u1221
  1883  007E56  EF2F  F03F         	goto	u1220
  1884  007E5A                     u1221:
  1885  007E5A  EF64  F03F         	goto	l1470
  1886  007E5E                     u1220:
  1887  007E5E  5037               	movf	___fladd@grs^0,w,c
  1888  007E60  A4D8               	btfss	status,2,c
  1889  007E62  EF35  F03F         	goto	u1231
  1890  007E66  EF37  F03F         	goto	u1230
  1891  007E6A                     u1231:
  1892  007E6A  EF64  F03F         	goto	l1470
  1893  007E6E                     u1230:
  1894  007E6E  0E00               	movlw	0
  1895  007E70  6E28               	movwf	?___fladd^0,c
  1896  007E72  0E00               	movlw	0
  1897  007E74  6E29               	movwf	(?___fladd+1)^0,c
  1898  007E76  0E00               	movlw	0
  1899  007E78  6E2A               	movwf	(?___fladd+2)^0,c
  1900  007E7A  0E00               	movlw	0
  1901  007E7C  6E2B               	movwf	(?___fladd+3)^0,c
  1902  007E7E  EFFF  F03F         	goto	l632
  1903  007E82                     l1454:
  1904  007E82  90D8               	bcf	status,0,c
  1905  007E84  3628               	rlcf	___fladd@b^0,f,c
  1906  007E86  3629               	rlcf	(___fladd@b+1)^0,f,c
  1907  007E88  362A               	rlcf	(___fladd@b+2)^0,f,c
  1908  007E8A  362B               	rlcf	(___fladd@b+3)^0,f,c
  1909  007E8C  AE37               	btfss	___fladd@grs^0,7,c
  1910  007E8E  EF4B  F03F         	goto	u1241
  1911  007E92  EF4D  F03F         	goto	u1240
  1912  007E96                     u1241:
  1913  007E96  EF4E  F03F         	goto	l1460
  1914  007E9A                     u1240:
  1915  007E9A  8028               	bsf	___fladd@b^0,0,c
  1916  007E9C                     l1460:
  1917  007E9C  A037               	btfss	___fladd@grs^0,0,c
  1918  007E9E  EF53  F03F         	goto	u1251
  1919  007EA2  EF55  F03F         	goto	u1250
  1920  007EA6                     u1251:
  1921  007EA6  EF59  F03F         	goto	l1464
  1922  007EAA                     u1250:
  1923  007EAA  80D8               	bsf	status,0,c
  1924  007EAC  3637               	rlcf	___fladd@grs^0,f,c
  1925  007EAE  EF5B  F03F         	goto	l1466
  1926  007EB2                     l1464:
  1927  007EB2  90D8               	bcf	status,0,c
  1928  007EB4  3637               	rlcf	___fladd@grs^0,f,c
  1929  007EB6                     l1466:
  1930  007EB6  5036               	movf	___fladd@bexp^0,w,c
  1931  007EB8  B4D8               	btfsc	status,2,c
  1932  007EBA  EF61  F03F         	goto	u1261
  1933  007EBE  EF63  F03F         	goto	u1260
  1934  007EC2                     u1261:
  1935  007EC2  EF64  F03F         	goto	l1470
  1936  007EC6                     u1260:
  1937  007EC6  0636               	decf	___fladd@bexp^0,f,c
  1938  007EC8                     l1470:
  1939  007EC8  AE2A               	btfss	(___fladd@b+2)^0,7,c
  1940  007ECA  EF69  F03F         	goto	u1271
  1941  007ECE  EF6B  F03F         	goto	u1270
  1942  007ED2                     u1271:
  1943  007ED2  EF41  F03F         	goto	l1454
  1944  007ED6                     u1270:
  1945  007ED6                     l1472:
  1946  007ED6  0E00               	movlw	0
  1947  007ED8  6E35               	movwf	___fladd@aexp^0,c
  1948  007EDA  AE37               	btfss	___fladd@grs^0,7,c
  1949  007EDC  EF72  F03F         	goto	u1281
  1950  007EE0  EF74  F03F         	goto	u1280
  1951  007EE4                     u1281:
  1952  007EE4  EF8C  F03F         	goto	l649
  1953  007EE8                     u1280:
  1954  007EE8  C037  F030         	movff	___fladd@grs,??___fladd
  1955  007EEC  0E7F               	movlw	127
  1956  007EEE  1630               	andwf	??___fladd^0,f,c
  1957  007EF0  B4D8               	btfsc	status,2,c
  1958  007EF2  EF7D  F03F         	goto	u1291
  1959  007EF6  EF7F  F03F         	goto	u1290
  1960  007EFA                     u1291:
  1961  007EFA  EF83  F03F         	goto	l650
  1962  007EFE                     u1290:
  1963  007EFE                     l1478:
  1964  007EFE  0E01               	movlw	1
  1965  007F00  6E35               	movwf	___fladd@aexp^0,c
  1966  007F02  EF8C  F03F         	goto	l649
  1967  007F06                     l650:
  1968  007F06  A028               	btfss	___fladd@b^0,0,c
  1969  007F08  EF88  F03F         	goto	u1301
  1970  007F0C  EF8A  F03F         	goto	u1300
  1971  007F10                     u1301:
  1972  007F10  EF8C  F03F         	goto	l649
  1973  007F14                     u1300:
  1974  007F14  EF7F  F03F         	goto	l1478
  1975  007F18                     l649:
  1976  007F18  5035               	movf	___fladd@aexp^0,w,c
  1977  007F1A  B4D8               	btfsc	status,2,c
  1978  007F1C  EF92  F03F         	goto	u1311
  1979  007F20  EF94  F03F         	goto	u1310
  1980  007F24                     u1311:
  1981  007F24  EFBF  F03F         	goto	l1490
  1982  007F28                     u1310:
  1983  007F28  0E01               	movlw	1
  1984  007F2A  2628               	addwf	___fladd@b^0,f,c
  1985  007F2C  0E00               	movlw	0
  1986  007F2E  2229               	addwfc	(___fladd@b+1)^0,f,c
  1987  007F30  222A               	addwfc	(___fladd@b+2)^0,f,c
  1988  007F32  222B               	addwfc	(___fladd@b+3)^0,f,c
  1989  007F34  A02B               	btfss	(___fladd@b+3)^0,0,c
  1990  007F36  EF9F  F03F         	goto	u1321
  1991  007F3A  EFA1  F03F         	goto	u1320
  1992  007F3E                     u1321:
  1993  007F3E  EFBF  F03F         	goto	l1490
  1994  007F42                     u1320:
  1995  007F42  C028  F030         	movff	___fladd@b,??___fladd
  1996  007F46  C029  F031         	movff	___fladd@b+1,??___fladd+1
  1997  007F4A  C02A  F032         	movff	___fladd@b+2,??___fladd+2
  1998  007F4E  C02B  F033         	movff	___fladd@b+3,??___fladd+3
  1999  007F52  3433               	rlcf	(??___fladd+3)^0,w,c
  2000  007F54  3233               	rrcf	(??___fladd+3)^0,f,c
  2001  007F56  3232               	rrcf	(??___fladd+2)^0,f,c
  2002  007F58  3231               	rrcf	(??___fladd+1)^0,f,c
  2003  007F5A  3230               	rrcf	??___fladd^0,f,c
  2004  007F5C  C030  F028         	movff	??___fladd,___fladd@b
  2005  007F60  C031  F029         	movff	??___fladd+1,___fladd@b+1
  2006  007F64  C032  F02A         	movff	??___fladd+2,___fladd@b+2
  2007  007F68  C033  F02B         	movff	??___fladd+3,___fladd@b+3
  2008  007F6C  2836               	incf	___fladd@bexp^0,w,c
  2009  007F6E  B4D8               	btfsc	status,2,c
  2010  007F70  EFBC  F03F         	goto	u1331
  2011  007F74  EFBE  F03F         	goto	u1330
  2012  007F78                     u1331:
  2013  007F78  EFBF  F03F         	goto	l1490
  2014  007F7C                     u1330:
  2015  007F7C  2A36               	incf	___fladd@bexp^0,f,c
  2016  007F7E                     l1490:
  2017  007F7E  2836               	incf	___fladd@bexp^0,w,c
  2018  007F80  B4D8               	btfsc	status,2,c
  2019  007F82  EFC5  F03F         	goto	u1341
  2020  007F86  EFC7  F03F         	goto	u1340
  2021  007F8A                     u1341:
  2022  007F8A  EFCF  F03F         	goto	l1494
  2023  007F8E                     u1340:
  2024  007F8E  5036               	movf	___fladd@bexp^0,w,c
  2025  007F90  A4D8               	btfss	status,2,c
  2026  007F92  EFCD  F03F         	goto	u1351
  2027  007F96  EFCF  F03F         	goto	u1350
  2028  007F9A                     u1351:
  2029  007F9A  EFE1  F03F         	goto	l1498
  2030  007F9E                     u1350:
  2031  007F9E                     l1494:
  2032  007F9E  0E00               	movlw	0
  2033  007FA0  6E28               	movwf	___fladd@b^0,c
  2034  007FA2  0E00               	movlw	0
  2035  007FA4  6E29               	movwf	(___fladd@b+1)^0,c
  2036  007FA6  0E00               	movlw	0
  2037  007FA8  6E2A               	movwf	(___fladd@b+2)^0,c
  2038  007FAA  0E00               	movlw	0
  2039  007FAC  6E2B               	movwf	(___fladd@b+3)^0,c
  2040  007FAE  5036               	movf	___fladd@bexp^0,w,c
  2041  007FB0  A4D8               	btfss	status,2,c
  2042  007FB2  EFDD  F03F         	goto	u1361
  2043  007FB6  EFDF  F03F         	goto	u1360
  2044  007FBA                     u1361:
  2045  007FBA  EFE1  F03F         	goto	l1498
  2046  007FBE                     u1360:
  2047  007FBE  0E00               	movlw	0
  2048  007FC0  6E34               	movwf	___fladd@signs^0,c
  2049  007FC2                     l1498:
  2050  007FC2  A036               	btfss	___fladd@bexp^0,0,c
  2051  007FC4  EFE6  F03F         	goto	u1371
  2052  007FC8  EFE8  F03F         	goto	u1370
  2053  007FCC                     u1371:
  2054  007FCC  EFEB  F03F         	goto	l1502
  2055  007FD0                     u1370:
  2056  007FD0  8E2A               	bsf	(___fladd@b+2)^0,7,c
  2057  007FD2  EFEC  F03F         	goto	l1504
  2058  007FD6                     l1502:
  2059  007FD6  9E2A               	bcf	(___fladd@b+2)^0,7,c
  2060  007FD8                     l1504:
  2061  007FD8  90D8               	bcf	status,0,c
  2062  007FDA  3036               	rrcf	___fladd@bexp^0,w,c
  2063  007FDC  6E2B               	movwf	(___fladd@b+3)^0,c
  2064  007FDE  AE34               	btfss	___fladd@signs^0,7,c
  2065  007FE0  EFF4  F03F         	goto	u1381
  2066  007FE4  EFF6  F03F         	goto	u1380
  2067  007FE8                     u1381:
  2068  007FE8  EFF7  F03F         	goto	l1510
  2069  007FEC                     u1380:
  2070  007FEC  8E2B               	bsf	(___fladd@b+3)^0,7,c
  2071  007FEE                     l1510:
  2072  007FEE  C028  F028         	movff	___fladd@b,?___fladd
  2073  007FF2  C029  F029         	movff	___fladd@b+1,?___fladd+1
  2074  007FF6  C02A  F02A         	movff	___fladd@b+2,?___fladd+2
  2075  007FFA  C02B  F02B         	movff	___fladd@b+3,?___fladd+3
  2076  007FFE                     l632:
  2077  007FFE  0012               	return		;funcret
  2078  008000                     __end_of___fladd:
  2079                           	callstack 0
  2080                           
  2081 ;; *************** function _Keypad_Init *****************
  2082 ;; Defined at:
  2083 ;;		line 23 in file "./keypad.h"
  2084 ;; Parameters:    Size  Location     Type
  2085 ;;		None
  2086 ;; Auto vars:     Size  Location     Type
  2087 ;;		None
  2088 ;; Return value:  Size  Location     Type
  2089 ;;                  1    wreg      void 
  2090 ;; Registers used:
  2091 ;;		wreg, status,2
  2092 ;; Tracked objects:
  2093 ;;		On entry : 0/0
  2094 ;;		On exit  : 0/0
  2095 ;;		Unchanged: 0/0
  2096 ;; Data sizes:     COMRAM   BANK0   BANK1   BANK2   BANK3   BANK4   BANK5   BANK6   BANK7
  2097 ;;      Params:         0       0       0       0       0       0       0       0       0
  2098 ;;      Locals:         0       0       0       0       0       0       0       0       0
  2099 ;;      Temps:          0       0       0       0       0       0       0       0       0
  2100 ;;      Totals:         0       0       0       0       0       0       0       0       0
  2101 ;;Total ram usage:        0 bytes
  2102 ;; Hardware stack levels used: 1
  2103 ;; This function calls:
  2104 ;;		Nothing
  2105 ;; This function is called by:
  2106 ;;		_main
  2107 ;; This function uses a non-reentrant model
  2108 ;;
  2109                           
  2110                           	psect	text7
  2111  00722C                     __ptext7:
  2112                           	callstack 0
  2113  00722C                     _Keypad_Init:
  2114                           	callstack 30
  2115  00722C                     
  2116                           ;./keypad.h: 24:     TRISD = 0x0F;
  2117  00722C  0E0F               	movlw	15
  2118  00722E  6E95               	movwf	149,c	;volatile
  2119  007230  0012               	return		;funcret
  2120  007232                     __end_of_Keypad_Init:
  2121                           	callstack 0
  2122                           
  2123 ;; *************** function _Key_Press *****************
  2124 ;; Defined at:
  2125 ;;		line 27 in file "./keypad.h"
  2126 ;; Parameters:    Size  Location     Type
  2127 ;;		None
  2128 ;; Auto vars:     Size  Location     Type
  2129 ;;  Key             1    0[COMRAM] unsigned char 
  2130 ;; Return value:  Size  Location     Type
  2131 ;;                  1    wreg      unsigned char 
  2132 ;; Registers used:
  2133 ;;		wreg, status,2
  2134 ;; Tracked objects:
  2135 ;;		On entry : 0/0
  2136 ;;		On exit  : 0/0
  2137 ;;		Unchanged: 0/0
  2138 ;; Data sizes:     COMRAM   BANK0   BANK1   BANK2   BANK3   BANK4   BANK5   BANK6   BANK7
  2139 ;;      Params:         0       0       0       0       0       0       0       0       0
  2140 ;;      Locals:         1       0       0       0       0       0       0       0       0
  2141 ;;      Temps:          0       0       0       0       0       0       0       0       0
  2142 ;;      Totals:         1       0       0       0       0       0       0       0       0
  2143 ;;Total ram usage:        1 bytes
  2144 ;; Hardware stack levels used: 1
  2145 ;; This function calls:
  2146 ;;		Nothing
  2147 ;; This function is called by:
  2148 ;;		_main
  2149 ;; This function uses a non-reentrant model
  2150 ;;
  2151                           
  2152                           	psect	text8
  2153  007400                     __ptext8:
  2154                           	callstack 0
  2155  007400                     _Key_Press:
  2156                           	callstack 30
  2157  007400                     
  2158                           ;./keypad.h: 28:     char Key=0;
  2159  007400  0E00               	movlw	0
  2160  007402  6E01               	movwf	Key_Press@Key^0,c
  2161                           
  2162                           ;./keypad.h: 29:     PORTD = 0b00010000;
  2163  007404  0E10               	movlw	16
  2164  007406  6E83               	movwf	131,c	;volatile
  2165  007408                     
  2166                           ;./keypad.h: 30:     if(PORTDbits.RD0){
  2167  007408  A083               	btfss	131,0,c	;volatile
  2168  00740A  EF09  F03A         	goto	u801
  2169  00740E  EF0B  F03A         	goto	u800
  2170  007412                     u801:
  2171  007412  EF0D  F03A         	goto	l1206
  2172  007416                     u800:
  2173  007416                     
  2174                           ;./keypad.h: 31:         Key=1;
  2175  007416  0E01               	movlw	1
  2176  007418  6E01               	movwf	Key_Press@Key^0,c
  2177  00741A                     l1206:
  2178                           
  2179                           ;./keypad.h: 33:     if(PORTDbits.RD1){
  2180  00741A  A283               	btfss	131,1,c	;volatile
  2181  00741C  EF12  F03A         	goto	u811
  2182  007420  EF14  F03A         	goto	u810
  2183  007424                     u811:
  2184  007424  EF16  F03A         	goto	l1210
  2185  007428                     u810:
  2186  007428                     
  2187                           ;./keypad.h: 34:         Key=4;
  2188  007428  0E04               	movlw	4
  2189  00742A  6E01               	movwf	Key_Press@Key^0,c
  2190  00742C                     l1210:
  2191                           
  2192                           ;./keypad.h: 36:     if(PORTDbits.RD2){
  2193  00742C  A483               	btfss	131,2,c	;volatile
  2194  00742E  EF1B  F03A         	goto	u821
  2195  007432  EF1D  F03A         	goto	u820
  2196  007436                     u821:
  2197  007436  EF1F  F03A         	goto	l1214
  2198  00743A                     u820:
  2199  00743A                     
  2200                           ;./keypad.h: 37:         Key=7;
  2201  00743A  0E07               	movlw	7
  2202  00743C  6E01               	movwf	Key_Press@Key^0,c
  2203  00743E                     l1214:
  2204                           
  2205                           ;./keypad.h: 39:     if(PORTDbits.RD3){
  2206  00743E  A683               	btfss	131,3,c	;volatile
  2207  007440  EF24  F03A         	goto	u831
  2208  007444  EF26  F03A         	goto	u830
  2209  007448                     u831:
  2210  007448  EF28  F03A         	goto	l27
  2211  00744C                     u830:
  2212  00744C                     
  2213                           ;./keypad.h: 40:         Key='*';
  2214  00744C  0E2A               	movlw	42
  2215  00744E  6E01               	movwf	Key_Press@Key^0,c
  2216  007450                     l27:
  2217                           
  2218                           ;./keypad.h: 43:     PORTD = 0b00100000;
  2219  007450  0E20               	movlw	32
  2220  007452  6E83               	movwf	131,c	;volatile
  2221  007454                     
  2222                           ;./keypad.h: 44:     if(PORTDbits.RD0){
  2223  007454  A083               	btfss	131,0,c	;volatile
  2224  007456  EF2F  F03A         	goto	u841
  2225  00745A  EF31  F03A         	goto	u840
  2226  00745E                     u841:
  2227  00745E  EF33  F03A         	goto	l1222
  2228  007462                     u840:
  2229  007462                     
  2230                           ;./keypad.h: 45:         Key=2;
  2231  007462  0E02               	movlw	2
  2232  007464  6E01               	movwf	Key_Press@Key^0,c
  2233  007466                     l1222:
  2234                           
  2235                           ;./keypad.h: 47:     if(PORTDbits.RD1){
  2236  007466  A283               	btfss	131,1,c	;volatile
  2237  007468  EF38  F03A         	goto	u851
  2238  00746C  EF3A  F03A         	goto	u850
  2239  007470                     u851:
  2240  007470  EF3C  F03A         	goto	l1226
  2241  007474                     u850:
  2242  007474                     
  2243                           ;./keypad.h: 48:         Key=5;
  2244  007474  0E05               	movlw	5
  2245  007476  6E01               	movwf	Key_Press@Key^0,c
  2246  007478                     l1226:
  2247                           
  2248                           ;./keypad.h: 50:     if(PORTDbits.RD2){
  2249  007478  A483               	btfss	131,2,c	;volatile
  2250  00747A  EF41  F03A         	goto	u861
  2251  00747E  EF43  F03A         	goto	u860
  2252  007482                     u861:
  2253  007482  EF45  F03A         	goto	l1230
  2254  007486                     u860:
  2255  007486                     
  2256                           ;./keypad.h: 51:         Key=8;
  2257  007486  0E08               	movlw	8
  2258  007488  6E01               	movwf	Key_Press@Key^0,c
  2259  00748A                     l1230:
  2260                           
  2261                           ;./keypad.h: 53:     if(PORTDbits.RD3){
  2262  00748A  A683               	btfss	131,3,c	;volatile
  2263  00748C  EF4A  F03A         	goto	u871
  2264  007490  EF4C  F03A         	goto	u870
  2265  007494                     u871:
  2266  007494  EF4E  F03A         	goto	l31
  2267  007498                     u870:
  2268  007498                     
  2269                           ;./keypad.h: 54:         Key=0;
  2270  007498  0E00               	movlw	0
  2271  00749A  6E01               	movwf	Key_Press@Key^0,c
  2272  00749C                     l31:
  2273                           
  2274                           ;./keypad.h: 57:     PORTD = 0b01000000;
  2275  00749C  0E40               	movlw	64
  2276  00749E  6E83               	movwf	131,c	;volatile
  2277  0074A0                     
  2278                           ;./keypad.h: 58:     if(PORTDbits.RD0){
  2279  0074A0  A083               	btfss	131,0,c	;volatile
  2280  0074A2  EF55  F03A         	goto	u881
  2281  0074A6  EF57  F03A         	goto	u880
  2282  0074AA                     u881:
  2283  0074AA  EF59  F03A         	goto	l1238
  2284  0074AE                     u880:
  2285  0074AE                     
  2286                           ;./keypad.h: 59:         Key=3;
  2287  0074AE  0E03               	movlw	3
  2288  0074B0  6E01               	movwf	Key_Press@Key^0,c
  2289  0074B2                     l1238:
  2290                           
  2291                           ;./keypad.h: 61:     if(PORTDbits.RD1){
  2292  0074B2  A283               	btfss	131,1,c	;volatile
  2293  0074B4  EF5E  F03A         	goto	u891
  2294  0074B8  EF60  F03A         	goto	u890
  2295  0074BC                     u891:
  2296  0074BC  EF62  F03A         	goto	l1242
  2297  0074C0                     u890:
  2298  0074C0                     
  2299                           ;./keypad.h: 62:         Key=6;
  2300  0074C0  0E06               	movlw	6
  2301  0074C2  6E01               	movwf	Key_Press@Key^0,c
  2302  0074C4                     l1242:
  2303                           
  2304                           ;./keypad.h: 64:     if(PORTDbits.RD2){
  2305  0074C4  A483               	btfss	131,2,c	;volatile
  2306  0074C6  EF67  F03A         	goto	u901
  2307  0074CA  EF69  F03A         	goto	u900
  2308  0074CE                     u901:
  2309  0074CE  EF6B  F03A         	goto	l1246
  2310  0074D2                     u900:
  2311  0074D2                     
  2312                           ;./keypad.h: 65:         Key=9;
  2313  0074D2  0E09               	movlw	9
  2314  0074D4  6E01               	movwf	Key_Press@Key^0,c
  2315  0074D6                     l1246:
  2316                           
  2317                           ;./keypad.h: 67:     if(PORTDbits.RD3){
  2318  0074D6  A683               	btfss	131,3,c	;volatile
  2319  0074D8  EF70  F03A         	goto	u911
  2320  0074DC  EF72  F03A         	goto	u910
  2321  0074E0                     u911:
  2322  0074E0  EF74  F03A         	goto	l35
  2323  0074E4                     u910:
  2324  0074E4                     
  2325                           ;./keypad.h: 68:         Key='#';
  2326  0074E4  0E23               	movlw	35
  2327  0074E6  6E01               	movwf	Key_Press@Key^0,c
  2328  0074E8                     l35:
  2329                           
  2330                           ;./keypad.h: 71:     return Key;
  2331  0074E8  5001               	movf	Key_Press@Key^0,w,c
  2332  0074EA  0012               	return		;funcret
  2333  0074EC                     __end_of_Key_Press:
  2334                           	callstack 0
  2335  0000                     
  2336                           	psect	rparam
  2337  0000                     
  2338                           	psect	idloc
  2339                           
  2340                           ;Config register IDLOC0 @ 0x200000
  2341                           ;	unspecified, using default values
  2342  200000                     	org	2097152
  2343  200000  FF                 	db	255
  2344                           
  2345                           ;Config register IDLOC1 @ 0x200001
  2346                           ;	unspecified, using default values
  2347  200001                     	org	2097153
  2348  200001  FF                 	db	255
  2349                           
  2350                           ;Config register IDLOC2 @ 0x200002
  2351                           ;	unspecified, using default values
  2352  200002                     	org	2097154
  2353  200002  FF                 	db	255
  2354                           
  2355                           ;Config register IDLOC3 @ 0x200003
  2356                           ;	unspecified, using default values
  2357  200003                     	org	2097155
  2358  200003  FF                 	db	255
  2359                           
  2360                           ;Config register IDLOC4 @ 0x200004
  2361                           ;	unspecified, using default values
  2362  200004                     	org	2097156
  2363  200004  FF                 	db	255
  2364                           
  2365                           ;Config register IDLOC5 @ 0x200005
  2366                           ;	unspecified, using default values
  2367  200005                     	org	2097157
  2368  200005  FF                 	db	255
  2369                           
  2370                           ;Config register IDLOC6 @ 0x200006
  2371                           ;	unspecified, using default values
  2372  200006                     	org	2097158
  2373  200006  FF                 	db	255
  2374                           
  2375                           ;Config register IDLOC7 @ 0x200007
  2376                           ;	unspecified, using default values
  2377  200007                     	org	2097159
  2378  200007  FF                 	db	255
  2379                           
  2380                           	psect	config
  2381                           
  2382                           ;Config register CONFIG1L @ 0x300000
  2383                           ;	PLL Prescaler Selection bits
  2384                           ;	PLLDIV = 1, No prescale (4 MHz oscillator input drives PLL directly)
  2385                           ;	System Clock Postscaler Selection bits
  2386                           ;	CPUDIV = OSC1_PLL2, [Primary Oscillator Src: /1][96 MHz PLL Src: /2]
  2387                           ;	USB Clock Selection bit (used in Full-Speed USB mode only; UCFG:FSEN = 1)
  2388                           ;	USBDIV = 1, USB clock source comes directly from the primary oscillator block with no 
      +                          postscale
  2389  300000                     	org	3145728
  2390  300000  00                 	db	0
  2391                           
  2392                           ;Config register CONFIG1H @ 0x300001
  2393                           ;	Oscillator Selection bits
  2394                           ;	FOSC = INTOSC_EC, Internal oscillator, CLKO function on RA6, EC used by USB (INTCKO)
  2395                           ;	Fail-Safe Clock Monitor Enable bit
  2396                           ;	FCMEN = OFF, Fail-Safe Clock Monitor disabled
  2397                           ;	Internal/External Oscillator Switchover bit
  2398                           ;	IESO = OFF, Oscillator Switchover mode disabled
  2399  300001                     	org	3145729
  2400  300001  09                 	db	9
  2401                           
  2402                           ;Config register CONFIG2L @ 0x300002
  2403                           ;	Power-up Timer Enable bit
  2404                           ;	PWRT = OFF, PWRT disabled
  2405                           ;	Brown-out Reset Enable bits
  2406                           ;	BOR = ON, Brown-out Reset enabled in hardware only (SBOREN is disabled)
  2407                           ;	Brown-out Reset Voltage bits
  2408                           ;	BORV = 3, Minimum setting 2.05V
  2409                           ;	USB Voltage Regulator Enable bit
  2410                           ;	VREGEN = OFF, USB voltage regulator disabled
  2411  300002                     	org	3145730
  2412  300002  1F                 	db	31
  2413                           
  2414                           ;Config register CONFIG2H @ 0x300003
  2415                           ;	Watchdog Timer Enable bit
  2416                           ;	WDT = OFF, WDT disabled (control is placed on the SWDTEN bit)
  2417                           ;	Watchdog Timer Postscale Select bits
  2418                           ;	WDTPS = 32768, 1:32768
  2419  300003                     	org	3145731
  2420  300003  1E                 	db	30
  2421                           
  2422                           ; Padding undefined space
  2423  300004                     	org	3145732
  2424  300004  FF                 	db	255
  2425                           
  2426                           ;Config register CONFIG3H @ 0x300005
  2427                           ;	CCP2 MUX bit
  2428                           ;	CCP2MX = ON, CCP2 input/output is multiplexed with RC1
  2429                           ;	PORTB A/D Enable bit
  2430                           ;	PBADEN = OFF, PORTB<4:0> pins are configured as digital I/O on Reset
  2431                           ;	Low-Power Timer 1 Oscillator Enable bit
  2432                           ;	LPT1OSC = OFF, Timer1 configured for higher power operation
  2433                           ;	MCLR Pin Enable bit
  2434                           ;	MCLRE = ON, MCLR pin enabled; RE3 input pin disabled
  2435  300005                     	org	3145733
  2436  300005  81                 	db	129
  2437                           
  2438                           ;Config register CONFIG4L @ 0x300006
  2439                           ;	Stack Full/Underflow Reset Enable bit
  2440                           ;	STVREN = ON, Stack full/underflow will cause Reset
  2441                           ;	Single-Supply ICSP Enable bit
  2442                           ;	LVP = OFF, Single-Supply ICSP disabled
  2443                           ;	Dedicated In-Circuit Debug/Programming Port (ICPORT) Enable bit
  2444                           ;	ICPRT = OFF, ICPORT disabled
  2445                           ;	Extended Instruction Set Enable bit
  2446                           ;	XINST = OFF, Instruction set extension and Indexed Addressing mode disabled (Legacy mo
      +                          de)
  2447                           ;	Background Debugger Enable bit
  2448                           ;	DEBUG = 0x1, unprogrammed default
  2449  300006                     	org	3145734
  2450  300006  81                 	db	129
  2451                           
  2452                           ; Padding undefined space
  2453  300007                     	org	3145735
  2454  300007  FF                 	db	255
  2455                           
  2456                           ;Config register CONFIG5L @ 0x300008
  2457                           ;	Code Protection bit
  2458                           ;	CP0 = OFF, Block 0 (000800-001FFFh) is not code-protected
  2459                           ;	Code Protection bit
  2460                           ;	CP1 = OFF, Block 1 (002000-003FFFh) is not code-protected
  2461                           ;	Code Protection bit
  2462                           ;	CP2 = OFF, Block 2 (004000-005FFFh) is not code-protected
  2463                           ;	Code Protection bit
  2464                           ;	CP3 = OFF, Block 3 (006000-007FFFh) is not code-protected
  2465  300008                     	org	3145736
  2466  300008  0F                 	db	15
  2467                           
  2468                           ;Config register CONFIG5H @ 0x300009
  2469                           ;	Boot Block Code Protection bit
  2470                           ;	CPB = OFF, Boot block (000000-0007FFh) is not code-protected
  2471                           ;	Data EEPROM Code Protection bit
  2472                           ;	CPD = OFF, Data EEPROM is not code-protected
  2473  300009                     	org	3145737
  2474  300009  C0                 	db	192
  2475                           
  2476                           ;Config register CONFIG6L @ 0x30000A
  2477                           ;	Write Protection bit
  2478                           ;	WRT0 = OFF, Block 0 (000800-001FFFh) is not write-protected
  2479                           ;	Write Protection bit
  2480                           ;	WRT1 = OFF, Block 1 (002000-003FFFh) is not write-protected
  2481                           ;	Write Protection bit
  2482                           ;	WRT2 = OFF, Block 2 (004000-005FFFh) is not write-protected
  2483                           ;	Write Protection bit
  2484                           ;	WRT3 = OFF, Block 3 (006000-007FFFh) is not write-protected
  2485  30000A                     	org	3145738
  2486  30000A  0F                 	db	15
  2487                           
  2488                           ;Config register CONFIG6H @ 0x30000B
  2489                           ;	Configuration Register Write Protection bit
  2490                           ;	WRTC = OFF, Configuration registers (300000-3000FFh) are not write-protected
  2491                           ;	Boot Block Write Protection bit
  2492                           ;	WRTB = OFF, Boot block (000000-0007FFh) is not write-protected
  2493                           ;	Data EEPROM Write Protection bit
  2494                           ;	WRTD = OFF, Data EEPROM is not write-protected
  2495  30000B                     	org	3145739
  2496  30000B  E0                 	db	224
  2497                           
  2498                           ;Config register CONFIG7L @ 0x30000C
  2499                           ;	Table Read Protection bit
  2500                           ;	EBTR0 = OFF, Block 0 (000800-001FFFh) is not protected from table reads executed in ot
      +                          her blocks
  2501                           ;	Table Read Protection bit
  2502                           ;	EBTR1 = OFF, Block 1 (002000-003FFFh) is not protected from table reads executed in ot
      +                          her blocks
  2503                           ;	Table Read Protection bit
  2504                           ;	EBTR2 = OFF, Block 2 (004000-005FFFh) is not protected from table reads executed in ot
      +                          her blocks
  2505                           ;	Table Read Protection bit
  2506                           ;	EBTR3 = OFF, Block 3 (006000-007FFFh) is not protected from table reads executed in ot
      +                          her blocks
  2507  30000C                     	org	3145740
  2508  30000C  0F                 	db	15
  2509                           
  2510                           ;Config register CONFIG7H @ 0x30000D
  2511                           ;	Boot Block Table Read Protection bit
  2512                           ;	EBTRB = OFF, Boot block (000000-0007FFh) is not protected from table reads executed in
      +                           other blocks
  2513  30000D                     	org	3145741
  2514  30000D  40                 	db	64
  2515                           tosu	equ	0xFFF
  2516                           tosh	equ	0xFFE
  2517                           tosl	equ	0xFFD
  2518                           stkptr	equ	0xFFC
  2519                           pclatu	equ	0xFFB
  2520                           pclath	equ	0xFFA
  2521                           pcl	equ	0xFF9
  2522                           tblptru	equ	0xFF8
  2523                           tblptrh	equ	0xFF7
  2524                           tblptrl	equ	0xFF6
  2525                           tablat	equ	0xFF5
  2526                           prodh	equ	0xFF4
  2527                           prodl	equ	0xFF3
  2528                           indf0	equ	0xFEF
  2529                           postinc0	equ	0xFEE
  2530                           postdec0	equ	0xFED
  2531                           preinc0	equ	0xFEC
  2532                           plusw0	equ	0xFEB
  2533                           fsr0h	equ	0xFEA
  2534                           fsr0l	equ	0xFE9
  2535                           wreg	equ	0xFE8
  2536                           indf1	equ	0xFE7
  2537                           postinc1	equ	0xFE6
  2538                           postdec1	equ	0xFE5
  2539                           preinc1	equ	0xFE4
  2540                           plusw1	equ	0xFE3
  2541                           fsr1h	equ	0xFE2
  2542                           fsr1l	equ	0xFE1
  2543                           bsr	equ	0xFE0
  2544                           indf2	equ	0xFDF
  2545                           postinc2	equ	0xFDE
  2546                           postdec2	equ	0xFDD
  2547                           preinc2	equ	0xFDC
  2548                           plusw2	equ	0xFDB
  2549                           fsr2h	equ	0xFDA
  2550                           fsr2l	equ	0xFD9
  2551                           status	equ	0xFD8

Data Sizes:
    Strings     0
    Constant    0
    Data        0
    BSS         0
    Persistent  0
    Stack       0

Auto Spaces:
    Space          Size  Autos    Used
    COMRAM           95     70      70
    BANK0           160      0       0
    BANK1           256      0       0
    BANK2           256      0       0
    BANK3           256      0       0
    BANK4           256      0       0
    BANK5           256      0       0
    BANK6           256      0       0
    BANK7           256      0       0

Pointer List with Targets:

    None.

Critical Paths under _main in COMRAM

    _main->_USART_Init
    _USART_Init->___fltol
    ___fltol->___fladd
    ___fldiv->___xxtofl
    ___fladd->___fldiv

Critical Paths under _main in BANK0

    None.

Critical Paths under _main in BANK1

    None.

Critical Paths under _main in BANK2

    None.

Critical Paths under _main in BANK3

    None.

Critical Paths under _main in BANK4

    None.

Critical Paths under _main in BANK5

    None.

Critical Paths under _main in BANK6

    None.

Critical Paths under _main in BANK7

    None.

Call Graph Tables:

 ---------------------------------------------------------------------------------
 (Depth) Function   	        Calls       Base Space   Used Autos Params    Refs
 ---------------------------------------------------------------------------------
 (0) _main                                                 1     1      0    5048
                                             69 COMRAM     1     1      0
                          _Key_Press
                        _Keypad_Init
                         _USART_Init
                       _USART_TxChar
 ---------------------------------------------------------------------------------
 (1) _USART_TxChar                                         1     1      0      15
                                              0 COMRAM     1     1      0
 ---------------------------------------------------------------------------------
 (1) _USART_Init                                           8     4      4    4991
                                             65 COMRAM     4     0      4
                            ___fladd
                            ___fldiv
                            ___fltol
                           ___xxtofl
 ---------------------------------------------------------------------------------
 (2) ___xxtofl                                            14    10      4     474
                                              0 COMRAM    14    10      4
 ---------------------------------------------------------------------------------
 (2) ___fltol                                             10     6      4     305
                                             55 COMRAM    10     6      4
                            ___fladd (ARG)
                            ___fldiv (ARG)
                           ___xxtofl (ARG)
 ---------------------------------------------------------------------------------
 (2) ___fldiv                                             25    17      8    1551
                                             14 COMRAM    25    17      8
                           ___xxtofl (ARG)
 ---------------------------------------------------------------------------------
 (2) ___fladd                                             16     8      8    2540
                                             39 COMRAM    16     8      8
                            ___fldiv (ARG)
                           ___xxtofl (ARG)
 ---------------------------------------------------------------------------------
 (1) _Keypad_Init                                          0     0      0       0
 ---------------------------------------------------------------------------------
 (1) _Key_Press                                            1     1      0      15
                                              0 COMRAM     1     1      0
 ---------------------------------------------------------------------------------
 Estimated maximum stack depth 2
 ---------------------------------------------------------------------------------

 Call Graph Graphs:

 _main (ROOT)
   _Key_Press
   _Keypad_Init
   _USART_Init
     ___fladd
       ___fldiv (ARG)
         ___xxtofl (ARG)
       ___xxtofl (ARG)
     ___fldiv
     ___fltol
       ___fladd (ARG)
       ___fldiv (ARG)
       ___xxtofl (ARG)
     ___xxtofl
   _USART_TxChar

 Address spaces:
Name               Size   Autos  Total    Cost      Usage
BITCOMRAM           5F      0       0       0        0.0%
EEDATA             100      0       0       0        0.0%
NULL                 0      0       0       0        0.0%
CODE                 0      0       0       0        0.0%
COMRAM              5F     46      46       1       73.7%
STACK                0      0       0       2        0.0%
DATA                 0      0       0       3        0.0%
BITBANK0            A0      0       0       4        0.0%
BANK0               A0      0       0       5        0.0%
BITBANK1           100      0       0       6        0.0%
BANK1              100      0       0       7        0.0%
BITBANK2           100      0       0       8        0.0%
BANK2              100      0       0       9        0.0%
BITBANK3           100      0       0      10        0.0%
BANK3              100      0       0      11        0.0%
BITBANK4           100      0       0      12        0.0%
BANK4              100      0       0      13        0.0%
BITBANK5           100      0       0      14        0.0%
BANK5              100      0       0      15        0.0%
BITBANK6           100      0       0      16        0.0%
BANK6              100      0       0      17        0.0%
BITBANK7           100      0       0      18        0.0%
BANK7              100      0       0      19        0.0%
BITBIGSFRhh         2C      0       0      20        0.0%
BITBIGSFRhlh        11      0       0      21        0.0%
BITBIGSFRhllh       11      0       0      22        0.0%
BITBIGSFRhllllh      C      0       0      23        0.0%
BITBIGSFRhlllll      8      0       0      24        0.0%
BITBIGSFRlhl         F      0       0      25        0.0%
BITBIGSFRllh         1      0       0      26        0.0%
BITBIGSFRlll        21      0       0      27        0.0%
ABS                  0      0       0      28        0.0%
BIGRAM             7FF      0       0      29        0.0%
BIGSFR               0      0       0     200        0.0%
BITSFR               0      0       0     200        0.0%
SFR                  0      0       0     200        0.0%


Microchip Technology PIC18 Macro Assembler V2.36 build 20220127204148 
Symbol Table                                                                                   Thu Mar 10 17:00:51 2022

           ___fldiv@aexp 0027             ___fldiv@bexp 0026             ___fldiv@sign 001F  
                     l21 7230                       l31 749C                       l35 74E8  
                     l27 7450                       l36 74EA                       l45 72FE  
                     l80 724C                       l49 7314                       l74 73FE  
                     l77 723A                      l623 7D2E                      l640 7E48  
                    l632 7FFE                      l624 7D1C                      l392 75F0  
                    l625 7CE2                      l650 7F06                      l750 7648  
                    l649 7F18                      l753 77A4                      l690 7A5C  
                    l682 7962                      l691 7A4A                      l764 773C  
                    l677 7B3E                      l757 76E0                      l679 799E  
                    l688 79E4                      u800 7416                      u801 7412  
                    u810 7428                      u811 7424                      u900 74D2  
                    u820 743A                      u901 74CE                      u821 7436  
                    u910 74E4                      u830 744C                      u911 74E0  
                    u831 7448                      u840 7462                      u920 7248  
                    u841 745E                      u921 7244                      u850 7474  
                    u851 7470                      u860 7486                      u861 7482  
                    u870 7498                      u871 7494                      u880 74AE  
                    u881 74AA                      u890 74C0                      u891 74BC  
                    wreg 000FE8             ___fltol@exp1 0041                     l1200 7400  
                   l1210 742C                     l1202 7408                     l1220 7462  
                   l1212 743A                     l1204 7416                     l1230 748A  
                   l1222 7466                     l1214 743E                     l1206 741A  
                   l1240 74C0                     l1232 7498                     l1224 7474  
                   l1216 744C                     l1208 7428                     l1400 7CF0  
                   l1320 7B6C                     l1312 7B40                     l1242 74C4  
                   l1234 74A0                     l1226 7478                     l1218 7454  
                   l1410 7D1A                     l1402 7CFC                     l1330 7BA6  
                   l1322 7B7C                     l1314 7B4C                     l1244 74D2  
                   l1236 74AE                     l1228 7486                     l1500 7FD0  
                   l1420 7D70                     l1412 7D3C                     l1404 7D00  
                   l1340 7BD4                     l1332 7BAC                     l1324 7B8C  
                   l1316 7B5A                     l1260 723A                     l1246 74D6  
                   l1238 74B2                     l1510 7FEE                     l1502 7FD6  
                   l1430 7DAA                     l1422 7D7E                     l1414 7D4C  
                   l1406 7D0E                     l1350 7C08                     l1342 7BD6  
                   l1334 7BBE                     l1326 7B8E                     l1318 7B5C  
                   l1262 7248                     l1248 74E4                     l1504 7FD8  
                   l1440 7E16                     l1432 7DAC                     l1424 7D8C  
                   l1408 7D10                     l1360 7C44                     l1344 7BE6  
                   l1352 7C10                     l1336 7BC0                     l1328 7B96  
                   l1600 79C4                     l1520 77C2                     l1506 7FDE  
                   l1450 7E6E                     l1442 7E18                     l1434 7DB6  
                   l1426 7D98                     l1418 7D60                     l1370 7C58  
                   l1362 7C48                     l1354 7C20                     l1346 7BF6  
                   l1338 7BC6                     l1610 7A02                     l1602 79CA  
                   l1522 77D2                     l1530 77FC                     l1514 77A6  
                   l1508 7FEC                     l1460 7E9C                     l1444 7E28  
                   l1428 7D9C                     l1436 7DBC                     l1380 7C6C  
                   l1372 7C5C                     l1364 7C4C                     l1356 7C32  
                   l1348 7C06                     l1620 7A6C                     l1612 7A06  
                   l1604 79D4                     l1540 7828                     l1532 780C  
                   l1524 77E2                     l1516 77B2                     l1700 7612  
                   l1198 722C                     l1462 7EAA                     l1454 7E82  
                   l1470 7EC8                     l1438 7DE2                     l1446 7E38  
                   l1382 7C70                     l1374 7C60                     l1366 7C50  
                   l1358 7C40                     l1390 7C80                     l1630 7ACE  
                   l1622 7A78                     l1614 7A14                     l1606 79E2  
                   l1542 7838                     l1550 7862                     l1534 7812  
                   l1526 77F2                     l1518 77C0                     l1710 768A  
                   l1702 7658                     l1464 7EB2                     l1456 7E8C  
                   l1448 7E5E                     l1472 7ED6                     l1392 7C84  
                   l1384 7C74                     l1376 7C64                     l1368 7C54  
                   l1640 7B2C                     l1632 7AE4                     l1624 7A86  
                   l1616 7A42                     l1608 79F4                     l1560 78A4  
                   l1552 7872                     l1544 7848                     l1536 7818  
                   l1528 77F4                     l1720 7712                     l1712 7696  
                   l1704 766E                     l1482 7F28                     l1490 7F7E  
                   l1474 7EDA                     l1466 7EB6                     l1458 7E9A  
                   l1394 7CAE                     l1386 7C78                     l1378 7C68  
                   l1642 7B32                     l1634 7AFE                     l1626 7AB0  
                   l1554 7888                     l1546 7858                     l1538 7826  
                   l1730 7750                     l1722 771E                     l1714 76C8  
                   l1492 7F8E                     l1484 7F34                     l1476 7EE8  
                   l1468 7EC6                     l1396 7CCA                     l1388 7C7C  
                   l1644 7B34                     l1636 7B1A                     l1628 7AB4  
                   l1580 7926                     l1572 78DC                     l1556 7898  
                   l1564 78B8                     l1548 785A                     l1660 7540  
                   l1652 74EC                     l1732 7774                     l1724 772C  
                   l1716 76CA                     l1708 7682                     l1494 7F9E  
                   l1486 7F42                     l1478 7EFE                     l1398 7CDA  
                   l1638 7B1E                     l1590 796C                     l1582 792E  
                   l1574 78F6                     l1566 78C8                     l1558 78A0  
                   l1662 7542                     l1654 7502                     l1734 7784  
                   l1726 774A                     l1718 76D6                     l1742 731E  
                   l1750 724E                     l1496 7FBE                     l1488 7F7C  
                   l1592 798A                     l1584 793E                     l1576 7906  
                   l1568 78C8                     l1664 7552                     l1736 7792  
                   l1728 774C                     l1744 7322                     l1760 728E  
                   l1752 725E                     l1498 7FC2                     l1594 798C  
                   l1586 7952                     l1578 7916                     l1690 75D0  
                   l1674 757C                     l1666 7556                     l1658 7516  
                   l1738 7794                     l1746 73F6                     l1770 72CE  
                   l1762 7298                     l1754 7272                     l1596 799C  
                   l1588 7960                     l1692 75E0                     l1684 75A4  
                   l1676 7586                     l1668 7564                     l1748 73FA  
                   l1772 72D2                     l1764 72AC                     l1780 72FE  
                   l1756 7276                     l1598 79AE                     l1686 75B0  
                   l1678 7590                     l1782 730E                     l1774 72DC  
                   l1766 72B0                     l1758 728A                     l1688 75C0  
                   l1696 75F4                     l1776 72F0                     l1768 72BA  
                   l1698 7604                     l1778 72F4                     u1000 7B5A  
                   u1001 7B56                     u1010 7B6C                     u1011 7B68  
                   u1100 7CC6                     u1020 7B7C                     u1101 7CC0  
                   u1021 7B78                     u1110 7CC8                     u1030 7BBE  
                   u1031 7BBA                     u1200 7DE2                     u1120 7CF0  
                   u1040 7BD4                     u1201 7DDE                     u1121 7CEC  
                   u1041 7BD0                     u1210 7E28                     u1130 7D0E  
                   u1050 7BE6                     u1211 7E24                     u1131 7D0A  
                   u1051 7BE2                     u1300 7F14                     u1220 7E5E  
                   u1140 7D2E                     u1060 7BF6                     u1301 7F10  
                   u1221 7E5A                     u1141 7D2A                     u1061 7BF2  
                   u1310 7F28                     u1230 7E6E                     u1150 7D3C  
                   u1070 7C32                     u1311 7F24                     u1231 7E6A  
                   u1151 7D38                     u1071 7C2E                     u1320 7F42  
                   u1240 7E9A                     u1160 7D4C                     u1080 7C40  
                   u1400 77D2                     u1321 7F3E                     u1241 7E96  
                   u1161 7D48                     u1081 7C3C                     u1401 77CE  
                   u1330 7F7C                     u1250 7EAA                     u1170 7D7E  
                   u1090 7CAE                     u1410 77E2                     u1331 7F78  
                   u1251 7EA6                     u1171 7D7A                     u1091 7CAA  
                   u1411 77DE                     u1340 7F8E                     u1260 7EC6  
                   u1180 7D8C                     u1500 79AE                     u1420 7826  
                   u1341 7F8A                     u1261 7EC2                     u1181 7D88  
                   u1501 79AA                     u1421 7822                     u1350 7F9E  
                   u1270 7ED6                     u1190 7DAA                     u1510 79C4  
                   u1430 7838                     u1351 7F9A                     u1271 7ED2  
                   u1191 7DA6                     u1511 79C0                     u1431 7834  
                   u1360 7FBE                     u1280 7EE8                     u1600 7AFE  
                   u1520 79E2                     u1440 7848                     u1361 7FBA  
                   u1281 7EE4                     u1601 7AFA                     u1521 79DE  
                   u1441 7844                     u1370 7FD0                     u1290 7EFE  
                   u1610 7B2C                     u1530 7A02                     u1450 7888  
                   u1371 7FCC                     u1291 7EFA                     u1611 7B28  
                   u1531 79FE                     u1451 7884                     u1380 7FEC  
                   u1540 7A14                     u1460 78C8                     u1620 7502  
                   u1700 7612                     u1381 7FE8                     u1541 7A10  
                   u1461 78C4                     u1621 74FE                     u1701 760E  
                   u1550 7A42                     u1470 793E                     u1390 77C0  
                   u1630 7536                     u1710 766E                     u1551 7A3E  
                   u1471 793A                     u1391 77BC                     u1711 766A  
                   u1560 7A58                     u1480 7960                     u1640 7564  
                   u1720 76C4                     u1800 72AC                     u1561 7A54  
                   u1481 795C                     u1641 7560                     u1721 76C0  
                   u1801 72A8                     u1570 7A6C                     u1490 798A  
                   u1650 7578                     u1730 770E                     u1810 72CE  
                   u1571 7A68                     u1491 7986                     u1651 7574  
                   u1635 752C                     u1731 770A                     u1811 72CA  
                   u1580 7A86                     u1660 75A0                     u1740 772C  
                   u1820 72F0                     u1581 7A82                     u1661 759C  
                   u1741 7728                     u1821 72EC                     u1590 7ACE  
                   u1670 75C0                     u1750 773C                     u1830 730E  
                   u1591 7ACA                     u1671 75BC                     u1751 7738  
                   u1831 730A                     u1680 75D0                     u1760 774A  
                   u1681 75CC                     u1761 7746                     u1770 7784  
                   u1690 7604                     u1771 7780                     u1691 7600  
                   u1780 7792                     u1781 778E                     u1790 728A  
                   u1791 7286                     _RCIF 007CF5                     _TXIF 007CF4  
                   _main 724E                     start 0000          ___fldiv@new_exp 0020  
           ___param_bank 000000            ___fltol@sign1 0040          __end_of___fladd 8000  
                  ?_main 0001          __end_of___fldiv 7B40          __end_of___fltol 75F2  
                  _RCREG 000FAE            ??_Keypad_Init 0001                    _RCSTA 000FAB  
                  _SPBRG 000FAF                    _PORTD 000F83                    _TRISB 000F93  
                  _TRISD 000F95             main@auxvalor 0046                    _TXREG 000FAD  
                  _TXSTA 000FAC                    status 000FD8              ?_USART_Init 0042  
        __initialization 7232             __end_of_main 731E             Key_Press@Key 0001  
                 ??_main 0046            __activetblptr 000000                   _ADCON1 000FC1  
    __end_of_Keypad_Init 7232                   _OSCCON 000FD3                   _TRISC6 007CA6  
                 _TRISC7 007CA7         __end_of___xxtofl 77A6                ??___fladd 0030  
              ??___fldiv 0017                ??___fltol 003C                   isa$std 000001  
           ___xxtofl@arg 000B             ___xxtofl@exp 000A             ___xxtofl@val 0001  
             __accesstop 0060  __end_of__initialization 7232            ___rparam_used 000001  
             ___fltol@f1 0038           __pcstackCOMRAM 0001        __end_of_Key_Press 74EC  
            _Keypad_Init 722C                ?___xxtofl 0001             ??_USART_Init 0046  
                __Hparam 0000                  __Lparam 0000                  ___fladd 7B40  
                ___fldiv 77A6                  ___fltol 74EC                  __pcinit 7232  
                __ramtop 0800                  __ptext0 724E                  __ptext1 7238  
                __ptext2 731E                  __ptext3 75F2                  __ptext4 74EC  
                __ptext5 77A6                  __ptext6 7B40                  __ptext7 722C  
                __ptext8 7400               ??___xxtofl 0005       __end_of_USART_Init 7400  
   end_of_initialization 7232                _PORTBbits 000F81                _PORTDbits 000F83  
            ___fladd@grs 0037            ___xxtofl@sign 0009              ___fldiv@grs 0022  
            ___fldiv@rem 001B      USART_Init@baud_rate 0042            ?_USART_TxChar 0001  
           ?_Keypad_Init 0001      start_initialization 7232                _Key_Press 7400  
         ??_USART_TxChar 0001                ___fladd@a 002C                ___fladd@b 0028  
              ___fldiv@a 0013                ___fldiv@b 000F               ?_Key_Press 0001  
               ?___fladd 0028                 ?___fldiv 000F                 ?___fltol 0038  
   __end_of_USART_TxChar 724E              ??_Key_Press 0001                 __Hrparam 0000  
               __Lrparam 0000                 ___xxtofl 75F2                 isa$xinst 000000  
        USART_TxChar@out 0001            ___fladd@signs 0034             ___fladd@aexp 0035  
           ___fladd@bexp 0036             _USART_TxChar 7238               _USART_Init 731E  
