

Microchip MPLAB XC8 Assembler V2.36 build 20220127204148 
                                                                                               Fri Mar 11 14:16:03 2022

Microchip MPLAB XC8 C Compiler v2.36 (Free license) build 20220127204148 Og1 
     1                           	processor	18F4550
     2                           	fnconf	rparam,??,?,0
     3                           	pagewidth 120
     4                           	opt	flic
     5                           	psect	cinit,global,reloc=2,class=CODE,delta=1
     6                           	psect	cstackCOMRAM,global,class=COMRAM,space=1,delta=1,lowdata,noexec
     7                           	psect	text0,global,reloc=2,class=CODE,delta=1
     8                           	psect	text1,global,reloc=2,class=CODE,delta=1
     9                           	psect	text2,global,reloc=2,class=CODE,delta=1
    10                           	psect	text3,global,reloc=2,class=CODE,delta=1,group=1
    11                           	psect	text4,global,reloc=2,class=CODE,delta=1,group=1
    12                           	psect	text5,global,reloc=2,class=CODE,delta=1,group=1
    13                           	psect	text6,global,reloc=2,class=CODE,delta=1,group=1
    14                           	psect	text7,global,reloc=2,class=CODE,delta=1
    15                           	psect	text8,global,reloc=2,class=CODE,delta=1
    16                           	psect	intsave_regs,global,class=BIGRAM,space=1,delta=1,noexec
    17                           	psect	rparam,global,class=COMRAM,space=1,delta=1,noexec
    18                           	psect	idloc,global,abs,ovrld,class=IDLOC,space=5,delta=1,noexec
    19                           	psect	config,global,abs,ovrld,class=CONFIG,space=4,delta=1,noexec
    20  0000                     
    21                           ; Version 2.40
    22                           ; Generated 17/11/2021 GMT
    23                           ; 
    24                           ; Copyright © 2021, Microchip Technology Inc. and its subsidiaries ("Microchip")
    25                           ; All rights reserved.
    26                           ; 
    27                           ; This software is developed by Microchip Technology Inc. and its subsidiaries ("Microch
      +                          ip").
    28                           ; 
    29                           ; Redistribution and use in source and binary forms, with or without modification, are
    30                           ; permitted provided that the following conditions are met:
    31                           ; 
    32                           ;     1. Redistributions of source code must retain the above copyright notice, this lis
      +                          t of
    33                           ;        conditions and the following disclaimer.
    34                           ; 
    35                           ;     2. Redistributions in binary form must reproduce the above copyright notice, this 
      +                          list
    36                           ;        of conditions and the following disclaimer in the documentation and/or other
    37                           ;        materials provided with the distribution. Publication is not required when
    38                           ;        this file is used in an embedded application.
    39                           ; 
    40                           ;     3. Microchip's name may not be used to endorse or promote products derived from th
      +                          is
    41                           ;        software without specific prior written permission.
    42                           ; 
    43                           ; THIS SOFTWARE IS PROVIDED BY MICROCHIP "AS IS" AND ANY EXPRESS OR IMPLIED WARRANTIES,
    44                           ; INCLUDING, BUT NOT LIMITED TO, THE IMPLIED WARRANTIES OF MERCHANTABILITY AND FITNESS F
      +                          OR
    45                           ; PURPOSE ARE DISCLAIMED.  IN NO EVENT SHALL MICROCHIP BE LIABLE FOR ANY DIRECT, INDIREC
      +                          T,
    46                           ; INCIDENTAL, SPECIAL, EXEMPLARY, OR CONSEQUENTIAL DAMAGES (INCLUDING BUT NOT LIMITED TO
    47                           ; PROCUREMENT OF SUBSTITUTE GOODS OR SERVICES; LOSS OF USE, DATA OR PROFITS; OR BUSINESS
    48                           ; INTERRUPTION) HOWSOEVER CAUSED AND ON ANY THEORY OF LIABILITY, WHETHER IN CONTRACT, ST
      +                          RICT
    49                           ; LIABILITY, OR TORT (INCLUDING NEGLIGENCE OR OTHERWISE) ARISING IN ANY WAY OUT OF THE U
      +                          SE OF
    50                           ; THIS SOFTWARE, EVEN IF ADVISED OF THE POSSIBILITY OF SUCH DAMAGE.
    51                           ; 
    52                           ; 
    53                           ; Code-generator required, PIC18F4550 Definitions
    54                           ; 
    55                           ; SFR Addresses
    56  0000                     _RCREG	set	4014
    57  0000                     _TXREG	set	4013
    58  0000                     _TRISC6	set	31910
    59  0000                     _PORTDbits	set	3971
    60  0000                     _RCIF	set	31989
    61  0000                     _TRISC7	set	31911
    62  0000                     _PORTBbits	set	3969
    63  0000                     _PORTD	set	3971
    64  0000                     _TRISD	set	3989
    65  0000                     _RCSTA	set	4011
    66  0000                     _TXSTA	set	4012
    67  0000                     _SPBRG	set	4015
    68  0000                     _ADCON1	set	4033
    69  0000                     _OSCCON	set	4051
    70  0000                     _TXIF	set	31988
    71  0000                     _TRISB	set	3987
    72                           
    73                           ; #config settings
    74                           
    75                           	psect	cinit
    76  007230                     __pcinit:
    77                           	callstack 0
    78  007230                     start_initialization:
    79                           	callstack 0
    80  007230                     __initialization:
    81                           	callstack 0
    82  007230                     end_of_initialization:
    83                           	callstack 0
    84  007230                     __end_of__initialization:
    85                           	callstack 0
    86  007230  0100               	movlb	0
    87  007232  EF26  F039         	goto	_main	;jump to C main() function
    88                           
    89                           	psect	cstackCOMRAM
    90  000001                     __pcstackCOMRAM:
    91                           	callstack 0
    92  000001                     ?___xxtofl:
    93                           	callstack 0
    94  000001                     Key_Press@Key:
    95                           	callstack 0
    96  000001                     USART_TxChar@out:
    97                           	callstack 0
    98  000001                     ___xxtofl@val:
    99                           	callstack 0
   100                           
   101                           ; 4 bytes @ 0x0
   102  000001                     	ds	4
   103  000005                     ??___xxtofl:
   104                           
   105                           ; 1 bytes @ 0x4
   106  000005                     	ds	4
   107  000009                     ___xxtofl@sign:
   108                           	callstack 0
   109                           
   110                           ; 1 bytes @ 0x8
   111  000009                     	ds	1
   112  00000A                     ___xxtofl@exp:
   113                           	callstack 0
   114                           
   115                           ; 1 bytes @ 0x9
   116  00000A                     	ds	1
   117  00000B                     ___xxtofl@arg:
   118                           	callstack 0
   119                           
   120                           ; 4 bytes @ 0xA
   121  00000B                     	ds	4
   122  00000F                     ?___fldiv:
   123                           	callstack 0
   124  00000F                     ___fldiv@b:
   125                           	callstack 0
   126                           
   127                           ; 4 bytes @ 0xE
   128  00000F                     	ds	4
   129  000013                     ___fldiv@a:
   130                           	callstack 0
   131                           
   132                           ; 4 bytes @ 0x12
   133  000013                     	ds	4
   134  000017                     ??___fldiv:
   135                           
   136                           ; 1 bytes @ 0x16
   137  000017                     	ds	4
   138  00001B                     ___fldiv@rem:
   139                           	callstack 0
   140                           
   141                           ; 4 bytes @ 0x1A
   142  00001B                     	ds	4
   143  00001F                     ___fldiv@sign:
   144                           	callstack 0
   145                           
   146                           ; 1 bytes @ 0x1E
   147  00001F                     	ds	1
   148  000020                     ___fldiv@new_exp:
   149                           	callstack 0
   150                           
   151                           ; 2 bytes @ 0x1F
   152  000020                     	ds	2
   153  000022                     ___fldiv@grs:
   154                           	callstack 0
   155                           
   156                           ; 4 bytes @ 0x21
   157  000022                     	ds	4
   158  000026                     ___fldiv@bexp:
   159                           	callstack 0
   160                           
   161                           ; 1 bytes @ 0x25
   162  000026                     	ds	1
   163  000027                     ___fldiv@aexp:
   164                           	callstack 0
   165                           
   166                           ; 1 bytes @ 0x26
   167  000027                     	ds	1
   168  000028                     ?___fladd:
   169                           	callstack 0
   170  000028                     ___fladd@b:
   171                           	callstack 0
   172                           
   173                           ; 4 bytes @ 0x27
   174  000028                     	ds	4
   175  00002C                     ___fladd@a:
   176                           	callstack 0
   177                           
   178                           ; 4 bytes @ 0x2B
   179  00002C                     	ds	4
   180  000030                     ??___fladd:
   181                           
   182                           ; 1 bytes @ 0x2F
   183  000030                     	ds	4
   184  000034                     ___fladd@signs:
   185                           	callstack 0
   186                           
   187                           ; 1 bytes @ 0x33
   188  000034                     	ds	1
   189  000035                     ___fladd@aexp:
   190                           	callstack 0
   191                           
   192                           ; 1 bytes @ 0x34
   193  000035                     	ds	1
   194  000036                     ___fladd@bexp:
   195                           	callstack 0
   196                           
   197                           ; 1 bytes @ 0x35
   198  000036                     	ds	1
   199  000037                     ___fladd@grs:
   200                           	callstack 0
   201                           
   202                           ; 1 bytes @ 0x36
   203  000037                     	ds	1
   204  000038                     ?___fltol:
   205                           	callstack 0
   206  000038                     ___fltol@f1:
   207                           	callstack 0
   208                           
   209                           ; 4 bytes @ 0x37
   210  000038                     	ds	4
   211  00003C                     ??___fltol:
   212                           
   213                           ; 1 bytes @ 0x3B
   214  00003C                     	ds	4
   215  000040                     ___fltol@sign1:
   216                           	callstack 0
   217                           
   218                           ; 1 bytes @ 0x3F
   219  000040                     	ds	1
   220  000041                     ___fltol@exp1:
   221                           	callstack 0
   222                           
   223                           ; 1 bytes @ 0x40
   224  000041                     	ds	1
   225  000042                     USART_Init@baud_rate:
   226                           	callstack 0
   227                           
   228                           ; 4 bytes @ 0x41
   229  000042                     	ds	4
   230  000046                     main@auxvalor:
   231                           	callstack 0
   232                           
   233                           ; 1 bytes @ 0x45
   234  000046                     	ds	1
   235  000047                     main@tecla:
   236                           	callstack 0
   237                           
   238                           ; 1 bytes @ 0x46
   239  000047                     	ds	1
   240                           
   241 ;;
   242 ;;Main: autosize = 0, tempsize = 0, incstack = 0, save=0
   243 ;;
   244 ;; *************** function _main *****************
   245 ;; Defined at:
   246 ;;		line 20 in file "LED.c"
   247 ;; Parameters:    Size  Location     Type
   248 ;;		None
   249 ;; Auto vars:     Size  Location     Type
   250 ;;  tecla           1   70[COMRAM] unsigned char 
   251 ;;  auxvalor        1   69[COMRAM] unsigned char 
   252 ;; Return value:  Size  Location     Type
   253 ;;                  1    wreg      void 
   254 ;; Registers used:
   255 ;;		wreg, status,2, status,0, cstack
   256 ;; Tracked objects:
   257 ;;		On entry : 0/0
   258 ;;		On exit  : 0/0
   259 ;;		Unchanged: 0/0
   260 ;; Data sizes:     COMRAM   BANK0   BANK1   BANK2   BANK3   BANK4   BANK5   BANK6   BANK7
   261 ;;      Params:         0       0       0       0       0       0       0       0       0
   262 ;;      Locals:         2       0       0       0       0       0       0       0       0
   263 ;;      Temps:          0       0       0       0       0       0       0       0       0
   264 ;;      Totals:         2       0       0       0       0       0       0       0       0
   265 ;;Total ram usage:        2 bytes
   266 ;; Hardware stack levels required when called: 2
   267 ;; This function calls:
   268 ;;		_Key_Press
   269 ;;		_Keypad_Init
   270 ;;		_USART_Init
   271 ;;		_USART_TxChar
   272 ;; This function is called by:
   273 ;;		Startup code after reset
   274 ;; This function uses a non-reentrant model
   275 ;;
   276                           
   277                           	psect	text0
   278  00724C                     __ptext0:
   279                           	callstack 0
   280  00724C                     _main:
   281                           	callstack 29
   282  00724C                     
   283                           ;LED.c: 22:     char auxvalor=0;
   284  00724C  0E00               	movlw	0
   285  00724E  6E46               	movwf	main@auxvalor^0,c
   286                           
   287                           ;LED.c: 23:     char tecla;;LED.c: 24:     OSCCON = 0x72;
   288  007250  0E72               	movlw	114
   289  007252  6ED3               	movwf	211,c	;volatile
   290                           
   291                           ;LED.c: 25:     ADCON1 = 0x0F;
   292  007254  0E0F               	movlw	15
   293  007256  6EC1               	movwf	193,c	;volatile
   294                           
   295                           ;LED.c: 26:     TRISB = 0x00;
   296  007258  0E00               	movlw	0
   297  00725A  6E93               	movwf	147,c	;volatile
   298  00725C                     
   299                           ;LED.c: 27:     USART_Init(9600);
   300  00725C  0E80               	movlw	128
   301  00725E  6E42               	movwf	USART_Init@baud_rate^0,c
   302  007260  0E25               	movlw	37
   303  007262  6E43               	movwf	(USART_Init@baud_rate+1)^0,c
   304  007264  0E00               	movlw	0
   305  007266  6E44               	movwf	(USART_Init@baud_rate+2)^0,c
   306  007268  0E00               	movlw	0
   307  00726A  6E45               	movwf	(USART_Init@baud_rate+3)^0,c
   308  00726C  EC8F  F039         	call	_USART_Init	;wreg free
   309  007270                     
   310                           ;LED.c: 28:     Keypad_Init();
   311  007270  EC15  F039         	call	_Keypad_Init	;wreg free
   312  007274                     l1761:
   313                           
   314                           ;LED.c: 30:         tecla = Key_Press();
   315  007274  EC00  F03A         	call	_Key_Press	;wreg free
   316  007278  6E47               	movwf	main@tecla^0,c
   317  00727A                     
   318                           ;LED.c: 31:         if(tecla==1){
   319  00727A  0447               	decf	main@tecla^0,w,c
   320  00727C  A4D8               	btfss	status,2,c
   321  00727E  EF43  F039         	goto	u1791
   322  007282  EF45  F039         	goto	u1790
   323  007286                     u1791:
   324  007286  EF4C  F039         	goto	l1769
   325  00728A                     u1790:
   326  00728A                     
   327                           ;LED.c: 32:             auxvalor=1;
   328  00728A  0E01               	movlw	1
   329  00728C  6E46               	movwf	main@auxvalor^0,c
   330  00728E                     
   331                           ;LED.c: 33:             USART_TxChar('1');
   332  00728E  0E31               	movlw	49
   333  007290  EC1B  F039         	call	_USART_TxChar
   334                           
   335                           ;LED.c: 34:         }else if (tecla ==2){
   336  007294  EF7F  F039         	goto	l1789
   337  007298                     l1769:
   338  007298  0E02               	movlw	2
   339  00729A  1847               	xorwf	main@tecla^0,w,c
   340  00729C  A4D8               	btfss	status,2,c
   341  00729E  EF53  F039         	goto	u1801
   342  0072A2  EF55  F039         	goto	u1800
   343  0072A6                     u1801:
   344  0072A6  EF5C  F039         	goto	l1775
   345  0072AA                     u1800:
   346  0072AA                     
   347                           ;LED.c: 35:             auxvalor=2;
   348  0072AA  0E02               	movlw	2
   349  0072AC  6E46               	movwf	main@auxvalor^0,c
   350  0072AE                     
   351                           ;LED.c: 36:             USART_TxChar('2');
   352  0072AE  0E32               	movlw	50
   353  0072B0  EC1B  F039         	call	_USART_TxChar
   354                           
   355                           ;LED.c: 37:         }else if (tecla==3){
   356  0072B4  EF7F  F039         	goto	l1789
   357  0072B8                     l1775:
   358  0072B8  0E03               	movlw	3
   359  0072BA  1847               	xorwf	main@tecla^0,w,c
   360  0072BC  A4D8               	btfss	status,2,c
   361  0072BE  EF63  F039         	goto	u1811
   362  0072C2  EF65  F039         	goto	u1810
   363  0072C6                     u1811:
   364  0072C6  EF6C  F039         	goto	l1781
   365  0072CA                     u1810:
   366  0072CA                     
   367                           ;LED.c: 38:             auxvalor=3;
   368  0072CA  0E03               	movlw	3
   369  0072CC  6E46               	movwf	main@auxvalor^0,c
   370  0072CE                     
   371                           ;LED.c: 39:             USART_TxChar('3');
   372  0072CE  0E33               	movlw	51
   373  0072D0  EC1B  F039         	call	_USART_TxChar
   374                           
   375                           ;LED.c: 40:         } else if (tecla==4){
   376  0072D4  EF7F  F039         	goto	l1789
   377  0072D8                     l1781:
   378  0072D8  0E04               	movlw	4
   379  0072DA  1847               	xorwf	main@tecla^0,w,c
   380  0072DC  A4D8               	btfss	status,2,c
   381  0072DE  EF73  F039         	goto	u1821
   382  0072E2  EF75  F039         	goto	u1820
   383  0072E6                     u1821:
   384  0072E6  EF7C  F039         	goto	l1787
   385  0072EA                     u1820:
   386  0072EA                     
   387                           ;LED.c: 41:             auxvalor=4;
   388  0072EA  0E04               	movlw	4
   389  0072EC  6E46               	movwf	main@auxvalor^0,c
   390  0072EE                     
   391                           ;LED.c: 42:             USART_TxChar('4');
   392  0072EE  0E34               	movlw	52
   393  0072F0  EC1B  F039         	call	_USART_TxChar
   394                           
   395                           ;LED.c: 43:         } else {
   396  0072F4  EF7F  F039         	goto	l1789
   397  0072F8                     l1787:
   398                           
   399                           ;LED.c: 44:             USART_TxChar(0);
   400  0072F8  0E00               	movlw	0
   401  0072FA  EC1B  F039         	call	_USART_TxChar
   402  0072FE                     l1789:
   403                           
   404                           ;LED.c: 46:         if(auxvalor==1){
   405  0072FE  0446               	decf	main@auxvalor^0,w,c
   406  007300  A4D8               	btfss	status,2,c
   407  007302  EF85  F039         	goto	u1831
   408  007306  EF87  F039         	goto	u1830
   409  00730A                     u1831:
   410  00730A  EF8A  F039         	goto	l50
   411  00730E                     u1830:
   412  00730E                     
   413                           ;LED.c: 47:             PORTBbits.RB0 = 1;
   414  00730E  8081               	bsf	129,0,c	;volatile
   415                           
   416                           ;LED.c: 48:         }else{
   417  007310  EF3A  F039         	goto	l1761
   418  007314                     l50:
   419                           
   420                           ;LED.c: 49:             PORTBbits.RB0 = 0;
   421  007314  9081               	bcf	129,0,c	;volatile
   422  007316  EF3A  F039         	goto	l1761
   423  00731A  EF00  F000         	goto	start
   424  00731E                     __end_of_main:
   425                           	callstack 0
   426                           
   427 ;; *************** function _USART_TxChar *****************
   428 ;; Defined at:
   429 ;;		line 19 in file "USART_Source_File.c"
   430 ;; Parameters:    Size  Location     Type
   431 ;;  out             1    wreg     unsigned char 
   432 ;; Auto vars:     Size  Location     Type
   433 ;;  out             1    0[COMRAM] unsigned char 
   434 ;; Return value:  Size  Location     Type
   435 ;;                  1    wreg      void 
   436 ;; Registers used:
   437 ;;		wreg
   438 ;; Tracked objects:
   439 ;;		On entry : 0/0
   440 ;;		On exit  : 0/0
   441 ;;		Unchanged: 0/0
   442 ;; Data sizes:     COMRAM   BANK0   BANK1   BANK2   BANK3   BANK4   BANK5   BANK6   BANK7
   443 ;;      Params:         0       0       0       0       0       0       0       0       0
   444 ;;      Locals:         1       0       0       0       0       0       0       0       0
   445 ;;      Temps:          0       0       0       0       0       0       0       0       0
   446 ;;      Totals:         1       0       0       0       0       0       0       0       0
   447 ;;Total ram usage:        1 bytes
   448 ;; Hardware stack levels used: 1
   449 ;; This function calls:
   450 ;;		Nothing
   451 ;; This function is called by:
   452 ;;		_main
   453 ;;		_USART_SendString
   454 ;; This function uses a non-reentrant model
   455 ;;
   456                           
   457                           	psect	text1
   458  007236                     __ptext1:
   459                           	callstack 0
   460  007236                     _USART_TxChar:
   461                           	callstack 30
   462                           
   463                           ;incstack = 0
   464                           ;USART_TxChar@out stored from wreg
   465  007236  6E01               	movwf	USART_TxChar@out^0,c
   466  007238                     l78:
   467  007238  A89E               	btfss	3998,4,c	;volatile
   468  00723A  EF21  F039         	goto	u921
   469  00723E  EF23  F039         	goto	u920
   470  007242                     u921:
   471  007242  EF1C  F039         	goto	l78
   472  007246                     u920:
   473  007246                     
   474                           ;USART_Source_File.c: 22:         TXREG=out;
   475  007246  C001  FFAD         	movff	USART_TxChar@out,4013	;volatile
   476  00724A  0012               	return		;funcret
   477  00724C                     __end_of_USART_TxChar:
   478                           	callstack 0
   479                           
   480 ;; *************** function _USART_Init *****************
   481 ;; Defined at:
   482 ;;		line 8 in file "USART_Source_File.c"
   483 ;; Parameters:    Size  Location     Type
   484 ;;  baud_rate       4   65[COMRAM] long 
   485 ;; Auto vars:     Size  Location     Type
   486 ;;  temp            4    0        float 
   487 ;; Return value:  Size  Location     Type
   488 ;;                  1    wreg      void 
   489 ;; Registers used:
   490 ;;		wreg, status,2, status,0, cstack
   491 ;; Tracked objects:
   492 ;;		On entry : 0/0
   493 ;;		On exit  : 0/0
   494 ;;		Unchanged: 0/0
   495 ;; Data sizes:     COMRAM   BANK0   BANK1   BANK2   BANK3   BANK4   BANK5   BANK6   BANK7
   496 ;;      Params:         4       0       0       0       0       0       0       0       0
   497 ;;      Locals:         0       0       0       0       0       0       0       0       0
   498 ;;      Temps:          0       0       0       0       0       0       0       0       0
   499 ;;      Totals:         4       0       0       0       0       0       0       0       0
   500 ;;Total ram usage:        4 bytes
   501 ;; Hardware stack levels used: 1
   502 ;; Hardware stack levels required when called: 1
   503 ;; This function calls:
   504 ;;		___fladd
   505 ;;		___fldiv
   506 ;;		___fltol
   507 ;;		___xxtofl
   508 ;; This function is called by:
   509 ;;		_main
   510 ;; This function uses a non-reentrant model
   511 ;;
   512                           
   513                           	psect	text2
   514  00731E                     __ptext2:
   515                           	callstack 0
   516  00731E                     _USART_Init:
   517                           	callstack 29
   518  00731E                     
   519                           ;USART_Source_File.c: 8: void USART_Init(long baud_rate);USART_Source_File.c: 9: {;USART
      +                          _Source_File.c: 10:     float temp;;USART_Source_File.c: 11:     TRISC6=0;
   520  00731E  9C94               	bcf	3988,6,c	;volatile
   521                           
   522                           ;USART_Source_File.c: 12:     TRISC7=1;
   523  007320  8E94               	bsf	3988,7,c	;volatile
   524  007322  C042  F001         	movff	USART_Init@baud_rate,___xxtofl@val
   525  007326  C043  F002         	movff	USART_Init@baud_rate+1,___xxtofl@val+1
   526  00732A  C044  F003         	movff	USART_Init@baud_rate+2,___xxtofl@val+2
   527  00732E  C045  F004         	movff	USART_Init@baud_rate+3,___xxtofl@val+3
   528  007332  0E01               	movlw	1
   529  007334  ECF9  F03A         	call	___xxtofl
   530  007338  C001  F013         	movff	?___xxtofl,___fldiv@a
   531  00733C  C002  F014         	movff	?___xxtofl+1,___fldiv@a+1
   532  007340  C003  F015         	movff	?___xxtofl+2,___fldiv@a+2
   533  007344  C004  F016         	movff	?___xxtofl+3,___fldiv@a+3
   534  007348  0E00               	movlw	0
   535  00734A  6E0F               	movwf	___fldiv@b^0,c
   536  00734C  0E24               	movlw	36
   537  00734E  6E10               	movwf	(___fldiv@b+1)^0,c
   538  007350  0EF4               	movlw	244
   539  007352  6E11               	movwf	(___fldiv@b+2)^0,c
   540  007354  0E47               	movlw	71
   541  007356  6E12               	movwf	(___fldiv@b+3)^0,c
   542  007358  ECD3  F03B         	call	___fldiv	;wreg free
   543  00735C  C00F  F028         	movff	?___fldiv,___fladd@b
   544  007360  C010  F029         	movff	?___fldiv+1,___fladd@b+1
   545  007364  C011  F02A         	movff	?___fldiv+2,___fladd@b+2
   546  007368  C012  F02B         	movff	?___fldiv+3,___fladd@b+3
   547  00736C  0E00               	movlw	0
   548  00736E  6E2C               	movwf	___fladd@a^0,c
   549  007370  0E00               	movlw	0
   550  007372  6E2D               	movwf	(___fladd@a+1)^0,c
   551  007374  0E80               	movlw	128
   552  007376  6E2E               	movwf	(___fladd@a+2)^0,c
   553  007378  0EBF               	movlw	191
   554  00737A  6E2F               	movwf	(___fladd@a+3)^0,c
   555  00737C  ECA0  F03D         	call	___fladd	;wreg free
   556                           
   557                           ;USART_Source_File.c: 14:     SPBRG = (((float)(8000000/64)/(float)baud_rate)-1);
   558  007380  0E00               	movlw	0
   559  007382  6E2C               	movwf	___fladd@a^0,c
   560  007384  0E00               	movlw	0
   561  007386  6E2D               	movwf	(___fladd@a+1)^0,c
   562  007388  0E80               	movlw	128
   563  00738A  6E2E               	movwf	(___fladd@a+2)^0,c
   564  00738C  0EBF               	movlw	191
   565  00738E  6E2F               	movwf	(___fladd@a+3)^0,c
   566  007390  C042  F001         	movff	USART_Init@baud_rate,___xxtofl@val
   567  007394  C043  F002         	movff	USART_Init@baud_rate+1,___xxtofl@val+1
   568  007398  C044  F003         	movff	USART_Init@baud_rate+2,___xxtofl@val+2
   569  00739C  C045  F004         	movff	USART_Init@baud_rate+3,___xxtofl@val+3
   570  0073A0  0E01               	movlw	1
   571  0073A2  ECF9  F03A         	call	___xxtofl
   572  0073A6  C001  F013         	movff	?___xxtofl,___fldiv@a
   573  0073AA  C002  F014         	movff	?___xxtofl+1,___fldiv@a+1
   574  0073AE  C003  F015         	movff	?___xxtofl+2,___fldiv@a+2
   575  0073B2  C004  F016         	movff	?___xxtofl+3,___fldiv@a+3
   576  0073B6  0E00               	movlw	0
   577  0073B8  6E0F               	movwf	___fldiv@b^0,c
   578  0073BA  0E24               	movlw	36
   579  0073BC  6E10               	movwf	(___fldiv@b+1)^0,c
   580  0073BE  0EF4               	movlw	244
   581  0073C0  6E11               	movwf	(___fldiv@b+2)^0,c
   582  0073C2  0E47               	movlw	71
   583  0073C4  6E12               	movwf	(___fldiv@b+3)^0,c
   584  0073C6  ECD3  F03B         	call	___fldiv	;wreg free
   585  0073CA  C00F  F028         	movff	?___fldiv,___fladd@b
   586  0073CE  C010  F029         	movff	?___fldiv+1,___fladd@b+1
   587  0073D2  C011  F02A         	movff	?___fldiv+2,___fladd@b+2
   588  0073D6  C012  F02B         	movff	?___fldiv+3,___fladd@b+3
   589  0073DA  ECA0  F03D         	call	___fladd	;wreg free
   590  0073DE  C028  F038         	movff	?___fladd,___fltol@f1
   591  0073E2  C029  F039         	movff	?___fladd+1,___fltol@f1+1
   592  0073E6  C02A  F03A         	movff	?___fladd+2,___fltol@f1+2
   593  0073EA  C02B  F03B         	movff	?___fladd+3,___fltol@f1+3
   594  0073EE  EC76  F03A         	call	___fltol	;wreg free
   595  0073F2  5038               	movf	?___fltol^0,w,c
   596  0073F4  6EAF               	movwf	175,c	;volatile
   597  0073F6                     
   598                           ;USART_Source_File.c: 15:     TXSTA=0x20;
   599  0073F6  0E20               	movlw	32
   600  0073F8  6EAC               	movwf	172,c	;volatile
   601  0073FA                     
   602                           ;USART_Source_File.c: 16:     RCSTA=0x90;
   603  0073FA  0E90               	movlw	144
   604  0073FC  6EAB               	movwf	171,c	;volatile
   605  0073FE  0012               	return		;funcret
   606  007400                     __end_of_USART_Init:
   607                           	callstack 0
   608                           
   609 ;; *************** function ___xxtofl *****************
   610 ;; Defined at:
   611 ;;		line 10 in file "D:\mplab\pic\sources\c99\common\xxtofl.c"
   612 ;; Parameters:    Size  Location     Type
   613 ;;  sign            1    wreg     unsigned char 
   614 ;;  val             4    0[COMRAM] long 
   615 ;; Auto vars:     Size  Location     Type
   616 ;;  sign            1    8[COMRAM] unsigned char 
   617 ;;  arg             4   10[COMRAM] unsigned long 
   618 ;;  exp             1    9[COMRAM] unsigned char 
   619 ;; Return value:  Size  Location     Type
   620 ;;                  4    0[COMRAM] unsigned char 
   621 ;; Registers used:
   622 ;;		wreg, status,2, status,0
   623 ;; Tracked objects:
   624 ;;		On entry : 0/0
   625 ;;		On exit  : 0/0
   626 ;;		Unchanged: 0/0
   627 ;; Data sizes:     COMRAM   BANK0   BANK1   BANK2   BANK3   BANK4   BANK5   BANK6   BANK7
   628 ;;      Params:         4       0       0       0       0       0       0       0       0
   629 ;;      Locals:         6       0       0       0       0       0       0       0       0
   630 ;;      Temps:          4       0       0       0       0       0       0       0       0
   631 ;;      Totals:        14       0       0       0       0       0       0       0       0
   632 ;;Total ram usage:       14 bytes
   633 ;; Hardware stack levels used: 1
   634 ;; This function calls:
   635 ;;		Nothing
   636 ;; This function is called by:
   637 ;;		_USART_Init
   638 ;; This function uses a non-reentrant model
   639 ;;
   640                           
   641                           	psect	text3
   642  0075F2                     __ptext3:
   643                           	callstack 0
   644  0075F2                     ___xxtofl:
   645                           	callstack 29
   646                           
   647                           ;incstack = 0
   648                           ;___xxtofl@sign stored from wreg
   649  0075F2  6E09               	movwf	___xxtofl@sign^0,c
   650  0075F4  5009               	movf	___xxtofl@sign^0,w,c
   651  0075F6  B4D8               	btfsc	status,2,c
   652  0075F8  EF00  F03B         	goto	u1691
   653  0075FC  EF02  F03B         	goto	u1690
   654  007600                     u1691:
   655  007600  EF24  F03B         	goto	l751
   656  007604                     u1690:
   657  007604  BE04               	btfsc	(___xxtofl@val+3)^0,7,c
   658  007606  EF09  F03B         	goto	u1700
   659  00760A  EF07  F03B         	goto	u1701
   660  00760E                     u1701:
   661  00760E  EF24  F03B         	goto	l751
   662  007612                     u1700:
   663  007612  C001  F005         	movff	___xxtofl@val,??___xxtofl
   664  007616  C002  F006         	movff	___xxtofl@val+1,??___xxtofl+1
   665  00761A  C003  F007         	movff	___xxtofl@val+2,??___xxtofl+2
   666  00761E  C004  F008         	movff	___xxtofl@val+3,??___xxtofl+3
   667  007622  1E05               	comf	??___xxtofl^0,f,c
   668  007624  1E06               	comf	(??___xxtofl+1)^0,f,c
   669  007626  1E07               	comf	(??___xxtofl+2)^0,f,c
   670  007628  1E08               	comf	(??___xxtofl+3)^0,f,c
   671  00762A  2A05               	incf	??___xxtofl^0,f,c
   672  00762C  0E00               	movlw	0
   673  00762E  2206               	addwfc	(??___xxtofl+1)^0,f,c
   674  007630  2207               	addwfc	(??___xxtofl+2)^0,f,c
   675  007632  2208               	addwfc	(??___xxtofl+3)^0,f,c
   676  007634  C005  F00B         	movff	??___xxtofl,___xxtofl@arg
   677  007638  C006  F00C         	movff	??___xxtofl+1,___xxtofl@arg+1
   678  00763C  C007  F00D         	movff	??___xxtofl+2,___xxtofl@arg+2
   679  007640  C008  F00E         	movff	??___xxtofl+3,___xxtofl@arg+3
   680  007644  EF2C  F03B         	goto	l1707
   681  007648                     l751:
   682  007648  C001  F00B         	movff	___xxtofl@val,___xxtofl@arg
   683  00764C  C002  F00C         	movff	___xxtofl@val+1,___xxtofl@arg+1
   684  007650  C003  F00D         	movff	___xxtofl@val+2,___xxtofl@arg+2
   685  007654  C004  F00E         	movff	___xxtofl@val+3,___xxtofl@arg+3
   686  007658                     l1707:
   687  007658  5001               	movf	___xxtofl@val^0,w,c
   688  00765A  1002               	iorwf	(___xxtofl@val+1)^0,w,c
   689  00765C  1003               	iorwf	(___xxtofl@val+2)^0,w,c
   690  00765E  1004               	iorwf	(___xxtofl@val+3)^0,w,c
   691  007660  A4D8               	btfss	status,2,c
   692  007662  EF35  F03B         	goto	u1711
   693  007666  EF37  F03B         	goto	u1710
   694  00766A                     u1711:
   695  00766A  EF41  F03B         	goto	l1713
   696  00766E                     u1710:
   697  00766E  0E00               	movlw	0
   698  007670  6E01               	movwf	?___xxtofl^0,c
   699  007672  0E00               	movlw	0
   700  007674  6E02               	movwf	(?___xxtofl+1)^0,c
   701  007676  0E00               	movlw	0
   702  007678  6E03               	movwf	(?___xxtofl+2)^0,c
   703  00767A  0E00               	movlw	0
   704  00767C  6E04               	movwf	(?___xxtofl+3)^0,c
   705  00767E  EFD2  F03B         	goto	l754
   706  007682                     l1713:
   707  007682  0E96               	movlw	150
   708  007684  6E0A               	movwf	___xxtofl@exp^0,c
   709  007686  EF4B  F03B         	goto	l1717
   710  00768A                     l1715:
   711  00768A  2A0A               	incf	___xxtofl@exp^0,f,c
   712  00768C  90D8               	bcf	status,0,c
   713  00768E  320E               	rrcf	(___xxtofl@arg+3)^0,f,c
   714  007690  320D               	rrcf	(___xxtofl@arg+2)^0,f,c
   715  007692  320C               	rrcf	(___xxtofl@arg+1)^0,f,c
   716  007694  320B               	rrcf	___xxtofl@arg^0,f,c
   717  007696                     l1717:
   718  007696  0E00               	movlw	0
   719  007698  140B               	andwf	___xxtofl@arg^0,w,c
   720  00769A  6E05               	movwf	??___xxtofl^0,c
   721  00769C  0E00               	movlw	0
   722  00769E  140C               	andwf	(___xxtofl@arg+1)^0,w,c
   723  0076A0  6E06               	movwf	(??___xxtofl+1)^0,c
   724  0076A2  0E00               	movlw	0
   725  0076A4  140D               	andwf	(___xxtofl@arg+2)^0,w,c
   726  0076A6  6E07               	movwf	(??___xxtofl+2)^0,c
   727  0076A8  0EFE               	movlw	254
   728  0076AA  140E               	andwf	(___xxtofl@arg+3)^0,w,c
   729  0076AC  6E08               	movwf	(??___xxtofl+3)^0,c
   730  0076AE  5005               	movf	??___xxtofl^0,w,c
   731  0076B0  1006               	iorwf	(??___xxtofl+1)^0,w,c
   732  0076B2  1007               	iorwf	(??___xxtofl+2)^0,w,c
   733  0076B4  1008               	iorwf	(??___xxtofl+3)^0,w,c
   734  0076B6  A4D8               	btfss	status,2,c
   735  0076B8  EF60  F03B         	goto	u1721
   736  0076BC  EF62  F03B         	goto	u1720
   737  0076C0                     u1721:
   738  0076C0  EF45  F03B         	goto	l1715
   739  0076C4                     u1720:
   740  0076C4  EF70  F03B         	goto	l758
   741  0076C8                     l1719:
   742  0076C8  2A0A               	incf	___xxtofl@exp^0,f,c
   743  0076CA  0E01               	movlw	1
   744  0076CC  260B               	addwf	___xxtofl@arg^0,f,c
   745  0076CE  0E00               	movlw	0
   746  0076D0  220C               	addwfc	(___xxtofl@arg+1)^0,f,c
   747  0076D2  220D               	addwfc	(___xxtofl@arg+2)^0,f,c
   748  0076D4  220E               	addwfc	(___xxtofl@arg+3)^0,f,c
   749  0076D6  90D8               	bcf	status,0,c
   750  0076D8  320E               	rrcf	(___xxtofl@arg+3)^0,f,c
   751  0076DA  320D               	rrcf	(___xxtofl@arg+2)^0,f,c
   752  0076DC  320C               	rrcf	(___xxtofl@arg+1)^0,f,c
   753  0076DE  320B               	rrcf	___xxtofl@arg^0,f,c
   754  0076E0                     l758:
   755  0076E0  0E00               	movlw	0
   756  0076E2  140B               	andwf	___xxtofl@arg^0,w,c
   757  0076E4  6E05               	movwf	??___xxtofl^0,c
   758  0076E6  0E00               	movlw	0
   759  0076E8  140C               	andwf	(___xxtofl@arg+1)^0,w,c
   760  0076EA  6E06               	movwf	(??___xxtofl+1)^0,c
   761  0076EC  0E00               	movlw	0
   762  0076EE  140D               	andwf	(___xxtofl@arg+2)^0,w,c
   763  0076F0  6E07               	movwf	(??___xxtofl+2)^0,c
   764  0076F2  0EFF               	movlw	255
   765  0076F4  140E               	andwf	(___xxtofl@arg+3)^0,w,c
   766  0076F6  6E08               	movwf	(??___xxtofl+3)^0,c
   767  0076F8  5005               	movf	??___xxtofl^0,w,c
   768  0076FA  1006               	iorwf	(??___xxtofl+1)^0,w,c
   769  0076FC  1007               	iorwf	(??___xxtofl+2)^0,w,c
   770  0076FE  1008               	iorwf	(??___xxtofl+3)^0,w,c
   771  007700  A4D8               	btfss	status,2,c
   772  007702  EF85  F03B         	goto	u1731
   773  007706  EF87  F03B         	goto	u1730
   774  00770A                     u1731:
   775  00770A  EF64  F03B         	goto	l1719
   776  00770E                     u1730:
   777  00770E  EF8F  F03B         	goto	l1727
   778  007712                     l1725:
   779  007712  060A               	decf	___xxtofl@exp^0,f,c
   780  007714  90D8               	bcf	status,0,c
   781  007716  360B               	rlcf	___xxtofl@arg^0,f,c
   782  007718  360C               	rlcf	(___xxtofl@arg+1)^0,f,c
   783  00771A  360D               	rlcf	(___xxtofl@arg+2)^0,f,c
   784  00771C  360E               	rlcf	(___xxtofl@arg+3)^0,f,c
   785  00771E                     l1727:
   786  00771E  BE0D               	btfsc	(___xxtofl@arg+2)^0,7,c
   787  007720  EF94  F03B         	goto	u1741
   788  007724  EF96  F03B         	goto	u1740
   789  007728                     u1741:
   790  007728  EF9E  F03B         	goto	l765
   791  00772C                     u1740:
   792  00772C  0E02               	movlw	2
   793  00772E  600A               	cpfslt	___xxtofl@exp^0,c
   794  007730  EF9C  F03B         	goto	u1751
   795  007734  EF9E  F03B         	goto	u1750
   796  007738                     u1751:
   797  007738  EF89  F03B         	goto	l1725
   798  00773C                     u1750:
   799  00773C                     l765:
   800  00773C  B00A               	btfsc	___xxtofl@exp^0,0,c
   801  00773E  EFA3  F03B         	goto	u1761
   802  007742  EFA5  F03B         	goto	u1760
   803  007746                     u1761:
   804  007746  EFA6  F03B         	goto	l1733
   805  00774A                     u1760:
   806  00774A  9E0D               	bcf	(___xxtofl@arg+2)^0,7,c
   807  00774C                     l1733:
   808  00774C  90D8               	bcf	status,0,c
   809  00774E  320A               	rrcf	___xxtofl@exp^0,f,c
   810  007750  C00A  F005         	movff	___xxtofl@exp,??___xxtofl
   811  007754  6A06               	clrf	(??___xxtofl+1)^0,c
   812  007756  6A07               	clrf	(??___xxtofl+2)^0,c
   813  007758  6A08               	clrf	(??___xxtofl+3)^0,c
   814  00775A  C005  F008         	movff	??___xxtofl,??___xxtofl+3
   815  00775E  6A07               	clrf	(??___xxtofl+2)^0,c
   816  007760  6A06               	clrf	(??___xxtofl+1)^0,c
   817  007762  6A05               	clrf	??___xxtofl^0,c
   818  007764  5005               	movf	??___xxtofl^0,w,c
   819  007766  120B               	iorwf	___xxtofl@arg^0,f,c
   820  007768  5006               	movf	(??___xxtofl+1)^0,w,c
   821  00776A  120C               	iorwf	(___xxtofl@arg+1)^0,f,c
   822  00776C  5007               	movf	(??___xxtofl+2)^0,w,c
   823  00776E  120D               	iorwf	(___xxtofl@arg+2)^0,f,c
   824  007770  5008               	movf	(??___xxtofl+3)^0,w,c
   825  007772  120E               	iorwf	(___xxtofl@arg+3)^0,f,c
   826  007774  5009               	movf	___xxtofl@sign^0,w,c
   827  007776  B4D8               	btfsc	status,2,c
   828  007778  EFC0  F03B         	goto	u1771
   829  00777C  EFC2  F03B         	goto	u1770
   830  007780                     u1771:
   831  007780  EFCA  F03B         	goto	l1743
   832  007784                     u1770:
   833  007784  BE04               	btfsc	(___xxtofl@val+3)^0,7,c
   834  007786  EFC9  F03B         	goto	u1780
   835  00778A  EFC7  F03B         	goto	u1781
   836  00778E                     u1781:
   837  00778E  EFCA  F03B         	goto	l1743
   838  007792                     u1780:
   839  007792  8E0E               	bsf	(___xxtofl@arg+3)^0,7,c
   840  007794                     l1743:
   841  007794  C00B  F001         	movff	___xxtofl@arg,?___xxtofl
   842  007798  C00C  F002         	movff	___xxtofl@arg+1,?___xxtofl+1
   843  00779C  C00D  F003         	movff	___xxtofl@arg+2,?___xxtofl+2
   844  0077A0  C00E  F004         	movff	___xxtofl@arg+3,?___xxtofl+3
   845  0077A4                     l754:
   846  0077A4  0012               	return		;funcret
   847  0077A6                     __end_of___xxtofl:
   848                           	callstack 0
   849                           
   850 ;; *************** function ___fltol *****************
   851 ;; Defined at:
   852 ;;		line 43 in file "D:\mplab\pic\sources\c99\common\fltol.c"
   853 ;; Parameters:    Size  Location     Type
   854 ;;  f1              4   55[COMRAM] unsigned char 
   855 ;; Auto vars:     Size  Location     Type
   856 ;;  exp1            1   64[COMRAM] unsigned char 
   857 ;;  sign1           1   63[COMRAM] unsigned char 
   858 ;; Return value:  Size  Location     Type
   859 ;;                  4   55[COMRAM] long 
   860 ;; Registers used:
   861 ;;		wreg, status,2, status,0
   862 ;; Tracked objects:
   863 ;;		On entry : 0/0
   864 ;;		On exit  : 0/0
   865 ;;		Unchanged: 0/0
   866 ;; Data sizes:     COMRAM   BANK0   BANK1   BANK2   BANK3   BANK4   BANK5   BANK6   BANK7
   867 ;;      Params:         4       0       0       0       0       0       0       0       0
   868 ;;      Locals:         2       0       0       0       0       0       0       0       0
   869 ;;      Temps:          4       0       0       0       0       0       0       0       0
   870 ;;      Totals:        10       0       0       0       0       0       0       0       0
   871 ;;Total ram usage:       10 bytes
   872 ;; Hardware stack levels used: 1
   873 ;; This function calls:
   874 ;;		Nothing
   875 ;; This function is called by:
   876 ;;		_USART_Init
   877 ;; This function uses a non-reentrant model
   878 ;;
   879                           
   880                           	psect	text4
   881  0074EC                     __ptext4:
   882                           	callstack 0
   883  0074EC                     ___fltol:
   884                           	callstack 29
   885  0074EC  343A               	rlcf	(___fltol@f1+2)^0,w,c
   886  0074EE  343B               	rlcf	(___fltol@f1+3)^0,w,c
   887  0074F0  6E41               	movwf	___fltol@exp1^0,c
   888  0074F2  5041               	movf	___fltol@exp1^0,w,c
   889  0074F4  A4D8               	btfss	status,2,c
   890  0074F6  EF7F  F03A         	goto	u1621
   891  0074FA  EF81  F03A         	goto	u1620
   892  0074FE                     u1621:
   893  0074FE  EF8B  F03A         	goto	l1663
   894  007502                     u1620:
   895  007502                     l1659:
   896  007502  0E00               	movlw	0
   897  007504  6E38               	movwf	?___fltol^0,c
   898  007506  0E00               	movlw	0
   899  007508  6E39               	movwf	(?___fltol+1)^0,c
   900  00750A  0E00               	movlw	0
   901  00750C  6E3A               	movwf	(?___fltol+2)^0,c
   902  00750E  0E00               	movlw	0
   903  007510  6E3B               	movwf	(?___fltol+3)^0,c
   904  007512  EFF8  F03A         	goto	l393
   905  007516                     l1663:
   906  007516  C038  F03C         	movff	___fltol@f1,??___fltol
   907  00751A  C039  F03D         	movff	___fltol@f1+1,??___fltol+1
   908  00751E  C03A  F03E         	movff	___fltol@f1+2,??___fltol+2
   909  007522  C03B  F03F         	movff	___fltol@f1+3,??___fltol+3
   910  007526  0E20               	movlw	32
   911  007528  EF9B  F03A         	goto	u1630
   912  00752C                     u1635:
   913  00752C  90D8               	bcf	status,0,c
   914  00752E  323F               	rrcf	(??___fltol+3)^0,f,c
   915  007530  323E               	rrcf	(??___fltol+2)^0,f,c
   916  007532  323D               	rrcf	(??___fltol+1)^0,f,c
   917  007534  323C               	rrcf	??___fltol^0,f,c
   918  007536                     u1630:
   919  007536  2EE8               	decfsz	wreg,f,c
   920  007538  EF96  F03A         	goto	u1635
   921  00753C  503C               	movf	??___fltol^0,w,c
   922  00753E  6E40               	movwf	___fltol@sign1^0,c
   923  007540  8E3A               	bsf	(___fltol@f1+2)^0,7,c
   924  007542  0EFF               	movlw	255
   925  007544  1638               	andwf	___fltol@f1^0,f,c
   926  007546  0EFF               	movlw	255
   927  007548  1639               	andwf	(___fltol@f1+1)^0,f,c
   928  00754A  0EFF               	movlw	255
   929  00754C  163A               	andwf	(___fltol@f1+2)^0,f,c
   930  00754E  0E00               	movlw	0
   931  007550  163B               	andwf	(___fltol@f1+3)^0,f,c
   932  007552  0E96               	movlw	150
   933  007554  5E41               	subwf	___fltol@exp1^0,f,c
   934  007556  BE41               	btfsc	___fltol@exp1^0,7,c
   935  007558  EFB2  F03A         	goto	u1640
   936  00755C  EFB0  F03A         	goto	u1641
   937  007560                     u1641:
   938  007560  EFC8  F03A         	goto	l1683
   939  007564                     u1640:
   940  007564  5041               	movf	___fltol@exp1^0,w,c
   941  007566  0A80               	xorlw	128
   942  007568  0F97               	addlw	151
   943  00756A  B0D8               	btfsc	status,0,c
   944  00756C  EFBA  F03A         	goto	u1651
   945  007570  EFBC  F03A         	goto	u1650
   946  007574                     u1651:
   947  007574  EFBE  F03A         	goto	l1679
   948  007578                     u1650:
   949  007578  EF81  F03A         	goto	l1659
   950  00757C                     l1679:
   951  00757C  90D8               	bcf	status,0,c
   952  00757E  323B               	rrcf	(___fltol@f1+3)^0,f,c
   953  007580  323A               	rrcf	(___fltol@f1+2)^0,f,c
   954  007582  3239               	rrcf	(___fltol@f1+1)^0,f,c
   955  007584  3238               	rrcf	___fltol@f1^0,f,c
   956  007586  3E41               	incfsz	___fltol@exp1^0,f,c
   957  007588  EFBE  F03A         	goto	l1679
   958  00758C  EFE0  F03A         	goto	l1693
   959  007590                     l1683:
   960  007590  0E1F               	movlw	31
   961  007592  6441               	cpfsgt	___fltol@exp1^0,c
   962  007594  EFCE  F03A         	goto	u1661
   963  007598  EFD0  F03A         	goto	u1660
   964  00759C                     u1661:
   965  00759C  EFD8  F03A         	goto	l1691
   966  0075A0                     u1660:
   967  0075A0  EF81  F03A         	goto	l1659
   968  0075A4                     l1689:
   969  0075A4  90D8               	bcf	status,0,c
   970  0075A6  3638               	rlcf	___fltol@f1^0,f,c
   971  0075A8  3639               	rlcf	(___fltol@f1+1)^0,f,c
   972  0075AA  363A               	rlcf	(___fltol@f1+2)^0,f,c
   973  0075AC  363B               	rlcf	(___fltol@f1+3)^0,f,c
   974  0075AE  0641               	decf	___fltol@exp1^0,f,c
   975  0075B0                     l1691:
   976  0075B0  5041               	movf	___fltol@exp1^0,w,c
   977  0075B2  A4D8               	btfss	status,2,c
   978  0075B4  EFDE  F03A         	goto	u1671
   979  0075B8  EFE0  F03A         	goto	u1670
   980  0075BC                     u1671:
   981  0075BC  EFD2  F03A         	goto	l1689
   982  0075C0                     u1670:
   983  0075C0                     l1693:
   984  0075C0  5040               	movf	___fltol@sign1^0,w,c
   985  0075C2  B4D8               	btfsc	status,2,c
   986  0075C4  EFE6  F03A         	goto	u1681
   987  0075C8  EFE8  F03A         	goto	u1680
   988  0075CC                     u1681:
   989  0075CC  EFF0  F03A         	goto	l1697
   990  0075D0                     u1680:
   991  0075D0  1E3B               	comf	(___fltol@f1+3)^0,f,c
   992  0075D2  1E3A               	comf	(___fltol@f1+2)^0,f,c
   993  0075D4  1E39               	comf	(___fltol@f1+1)^0,f,c
   994  0075D6  6C38               	negf	___fltol@f1^0,c
   995  0075D8  0E00               	movlw	0
   996  0075DA  2239               	addwfc	(___fltol@f1+1)^0,f,c
   997  0075DC  223A               	addwfc	(___fltol@f1+2)^0,f,c
   998  0075DE  223B               	addwfc	(___fltol@f1+3)^0,f,c
   999  0075E0                     l1697:
  1000  0075E0  C038  F038         	movff	___fltol@f1,?___fltol
  1001  0075E4  C039  F039         	movff	___fltol@f1+1,?___fltol+1
  1002  0075E8  C03A  F03A         	movff	___fltol@f1+2,?___fltol+2
  1003  0075EC  C03B  F03B         	movff	___fltol@f1+3,?___fltol+3
  1004  0075F0                     l393:
  1005  0075F0  0012               	return		;funcret
  1006  0075F2                     __end_of___fltol:
  1007                           	callstack 0
  1008                           
  1009 ;; *************** function ___fldiv *****************
  1010 ;; Defined at:
  1011 ;;		line 11 in file "D:\mplab\pic\sources\c99\common\sprcdiv.c"
  1012 ;; Parameters:    Size  Location     Type
  1013 ;;  b               4   14[COMRAM] long 
  1014 ;;  a               4   18[COMRAM] long 
  1015 ;; Auto vars:     Size  Location     Type
  1016 ;;  grs             4   33[COMRAM] unsigned long 
  1017 ;;  rem             4   26[COMRAM] unsigned long 
  1018 ;;  new_exp         2   31[COMRAM] short 
  1019 ;;  aexp            1   38[COMRAM] unsigned char 
  1020 ;;  bexp            1   37[COMRAM] unsigned char 
  1021 ;;  sign            1   30[COMRAM] unsigned char 
  1022 ;; Return value:  Size  Location     Type
  1023 ;;                  4   14[COMRAM] unsigned char 
  1024 ;; Registers used:
  1025 ;;		wreg, status,2, status,0
  1026 ;; Tracked objects:
  1027 ;;		On entry : 0/0
  1028 ;;		On exit  : 0/0
  1029 ;;		Unchanged: 0/0
  1030 ;; Data sizes:     COMRAM   BANK0   BANK1   BANK2   BANK3   BANK4   BANK5   BANK6   BANK7
  1031 ;;      Params:         8       0       0       0       0       0       0       0       0
  1032 ;;      Locals:        13       0       0       0       0       0       0       0       0
  1033 ;;      Temps:          4       0       0       0       0       0       0       0       0
  1034 ;;      Totals:        25       0       0       0       0       0       0       0       0
  1035 ;;Total ram usage:       25 bytes
  1036 ;; Hardware stack levels used: 1
  1037 ;; This function calls:
  1038 ;;		Nothing
  1039 ;; This function is called by:
  1040 ;;		_USART_Init
  1041 ;; This function uses a non-reentrant model
  1042 ;;
  1043                           
  1044                           	psect	text5
  1045  0077A6                     __ptext5:
  1046                           	callstack 0
  1047  0077A6                     ___fldiv:
  1048                           	callstack 29
  1049  0077A6  5012               	movf	(___fldiv@b+3)^0,w,c
  1050  0077A8  0B80               	andlw	128
  1051  0077AA  6E1F               	movwf	___fldiv@sign^0,c
  1052  0077AC  5012               	movf	(___fldiv@b+3)^0,w,c
  1053  0077AE  2412               	addwf	(___fldiv@b+3)^0,w,c
  1054  0077B0  6E26               	movwf	___fldiv@bexp^0,c
  1055  0077B2  AE11               	btfss	(___fldiv@b+2)^0,7,c
  1056  0077B4  EFDE  F03B         	goto	u1391
  1057  0077B8  EFE0  F03B         	goto	u1390
  1058  0077BC                     u1391:
  1059  0077BC  EFE1  F03B         	goto	l1525
  1060  0077C0                     u1390:
  1061  0077C0  8026               	bsf	___fldiv@bexp^0,0,c
  1062  0077C2                     l1525:
  1063  0077C2  5026               	movf	___fldiv@bexp^0,w,c
  1064  0077C4  B4D8               	btfsc	status,2,c
  1065  0077C6  EFE7  F03B         	goto	u1401
  1066  0077CA  EFE9  F03B         	goto	u1400
  1067  0077CE                     u1401:
  1068  0077CE  EFFE  F03B         	goto	l1535
  1069  0077D2                     u1400:
  1070  0077D2  2826               	incf	___fldiv@bexp^0,w,c
  1071  0077D4  A4D8               	btfss	status,2,c
  1072  0077D6  EFEF  F03B         	goto	u1411
  1073  0077DA  EFF1  F03B         	goto	u1410
  1074  0077DE                     u1411:
  1075  0077DE  EFF9  F03B         	goto	l1531
  1076  0077E2                     u1410:
  1077  0077E2  0E00               	movlw	0
  1078  0077E4  6E0F               	movwf	___fldiv@b^0,c
  1079  0077E6  0E00               	movlw	0
  1080  0077E8  6E10               	movwf	(___fldiv@b+1)^0,c
  1081  0077EA  0E00               	movlw	0
  1082  0077EC  6E11               	movwf	(___fldiv@b+2)^0,c
  1083  0077EE  0E00               	movlw	0
  1084  0077F0  6E12               	movwf	(___fldiv@b+3)^0,c
  1085  0077F2                     l1531:
  1086  0077F2  8E11               	bsf	(___fldiv@b+2)^0,7,c
  1087  0077F4  0E00               	movlw	0
  1088  0077F6  6E12               	movwf	(___fldiv@b+3)^0,c
  1089  0077F8  EF06  F03C         	goto	l1537
  1090  0077FC                     l1535:
  1091  0077FC  0E00               	movlw	0
  1092  0077FE  6E0F               	movwf	___fldiv@b^0,c
  1093  007800  0E00               	movlw	0
  1094  007802  6E10               	movwf	(___fldiv@b+1)^0,c
  1095  007804  0E00               	movlw	0
  1096  007806  6E11               	movwf	(___fldiv@b+2)^0,c
  1097  007808  0E00               	movlw	0
  1098  00780A  6E12               	movwf	(___fldiv@b+3)^0,c
  1099  00780C                     l1537:
  1100  00780C  5016               	movf	(___fldiv@a+3)^0,w,c
  1101  00780E  0B80               	andlw	128
  1102  007810  1A1F               	xorwf	___fldiv@sign^0,f,c
  1103  007812  5016               	movf	(___fldiv@a+3)^0,w,c
  1104  007814  2416               	addwf	(___fldiv@a+3)^0,w,c
  1105  007816  6E27               	movwf	___fldiv@aexp^0,c
  1106  007818  AE15               	btfss	(___fldiv@a+2)^0,7,c
  1107  00781A  EF11  F03C         	goto	u1421
  1108  00781E  EF13  F03C         	goto	u1420
  1109  007822                     u1421:
  1110  007822  EF14  F03C         	goto	l1545
  1111  007826                     u1420:
  1112  007826  8027               	bsf	___fldiv@aexp^0,0,c
  1113  007828                     l1545:
  1114  007828  5027               	movf	___fldiv@aexp^0,w,c
  1115  00782A  B4D8               	btfsc	status,2,c
  1116  00782C  EF1A  F03C         	goto	u1431
  1117  007830  EF1C  F03C         	goto	u1430
  1118  007834                     u1431:
  1119  007834  EF31  F03C         	goto	l1555
  1120  007838                     u1430:
  1121  007838  2827               	incf	___fldiv@aexp^0,w,c
  1122  00783A  A4D8               	btfss	status,2,c
  1123  00783C  EF22  F03C         	goto	u1441
  1124  007840  EF24  F03C         	goto	u1440
  1125  007844                     u1441:
  1126  007844  EF2C  F03C         	goto	l1551
  1127  007848                     u1440:
  1128  007848  0E00               	movlw	0
  1129  00784A  6E13               	movwf	___fldiv@a^0,c
  1130  00784C  0E00               	movlw	0
  1131  00784E  6E14               	movwf	(___fldiv@a+1)^0,c
  1132  007850  0E00               	movlw	0
  1133  007852  6E15               	movwf	(___fldiv@a+2)^0,c
  1134  007854  0E00               	movlw	0
  1135  007856  6E16               	movwf	(___fldiv@a+3)^0,c
  1136  007858                     l1551:
  1137  007858  8E15               	bsf	(___fldiv@a+2)^0,7,c
  1138  00785A  0E00               	movlw	0
  1139  00785C  6E16               	movwf	(___fldiv@a+3)^0,c
  1140  00785E  EF39  F03C         	goto	l1557
  1141  007862                     l1555:
  1142  007862  0E00               	movlw	0
  1143  007864  6E13               	movwf	___fldiv@a^0,c
  1144  007866  0E00               	movlw	0
  1145  007868  6E14               	movwf	(___fldiv@a+1)^0,c
  1146  00786A  0E00               	movlw	0
  1147  00786C  6E15               	movwf	(___fldiv@a+2)^0,c
  1148  00786E  0E00               	movlw	0
  1149  007870  6E16               	movwf	(___fldiv@a+3)^0,c
  1150  007872                     l1557:
  1151  007872  5013               	movf	___fldiv@a^0,w,c
  1152  007874  1014               	iorwf	(___fldiv@a+1)^0,w,c
  1153  007876  1015               	iorwf	(___fldiv@a+2)^0,w,c
  1154  007878  1016               	iorwf	(___fldiv@a+3)^0,w,c
  1155  00787A  A4D8               	btfss	status,2,c
  1156  00787C  EF42  F03C         	goto	u1451
  1157  007880  EF44  F03C         	goto	u1450
  1158  007884                     u1451:
  1159  007884  EF5C  F03C         	goto	l1569
  1160  007888                     u1450:
  1161  007888  0E00               	movlw	0
  1162  00788A  6E0F               	movwf	___fldiv@b^0,c
  1163  00788C  0E00               	movlw	0
  1164  00788E  6E10               	movwf	(___fldiv@b+1)^0,c
  1165  007890  0E00               	movlw	0
  1166  007892  6E11               	movwf	(___fldiv@b+2)^0,c
  1167  007894  0E00               	movlw	0
  1168  007896  6E12               	movwf	(___fldiv@b+3)^0,c
  1169  007898  0E80               	movlw	128
  1170  00789A  1211               	iorwf	(___fldiv@b+2)^0,f,c
  1171  00789C  0E7F               	movlw	127
  1172  00789E  1212               	iorwf	(___fldiv@b+3)^0,f,c
  1173  0078A0                     l1563:
  1174  0078A0  501F               	movf	___fldiv@sign^0,w,c
  1175  0078A2  1212               	iorwf	(___fldiv@b+3)^0,f,c
  1176  0078A4  C00F  F00F         	movff	___fldiv@b,?___fldiv
  1177  0078A8  C010  F010         	movff	___fldiv@b+1,?___fldiv+1
  1178  0078AC  C011  F011         	movff	___fldiv@b+2,?___fldiv+2
  1179  0078B0  C012  F012         	movff	___fldiv@b+3,?___fldiv+3
  1180  0078B4  EF9F  F03D         	goto	l678
  1181  0078B8                     l1569:
  1182  0078B8  5026               	movf	___fldiv@bexp^0,w,c
  1183  0078BA  A4D8               	btfss	status,2,c
  1184  0078BC  EF62  F03C         	goto	u1461
  1185  0078C0  EF64  F03C         	goto	u1460
  1186  0078C4                     u1461:
  1187  0078C4  EF6E  F03C         	goto	l1577
  1188  0078C8                     u1460:
  1189  0078C8  0E00               	movlw	0
  1190  0078CA  6E0F               	movwf	?___fldiv^0,c
  1191  0078CC  0E00               	movlw	0
  1192  0078CE  6E10               	movwf	(?___fldiv+1)^0,c
  1193  0078D0  0E00               	movlw	0
  1194  0078D2  6E11               	movwf	(?___fldiv+2)^0,c
  1195  0078D4  0E00               	movlw	0
  1196  0078D6  6E12               	movwf	(?___fldiv+3)^0,c
  1197  0078D8  EF9F  F03D         	goto	l678
  1198  0078DC                     l1577:
  1199  0078DC  5027               	movf	___fldiv@aexp^0,w,c
  1200  0078DE  C026  F017         	movff	___fldiv@bexp,??___fldiv
  1201  0078E2  6A18               	clrf	(??___fldiv+1)^0,c
  1202  0078E4  5E17               	subwf	??___fldiv^0,f,c
  1203  0078E6  0E00               	movlw	0
  1204  0078E8  5A18               	subwfb	(??___fldiv+1)^0,f,c
  1205  0078EA  0E7F               	movlw	127
  1206  0078EC  2417               	addwf	??___fldiv^0,w,c
  1207  0078EE  6E20               	movwf	___fldiv@new_exp^0,c
  1208  0078F0  0E00               	movlw	0
  1209  0078F2  2018               	addwfc	(??___fldiv+1)^0,w,c
  1210  0078F4  6E21               	movwf	(___fldiv@new_exp+1)^0,c
  1211  0078F6  C00F  F01B         	movff	___fldiv@b,___fldiv@rem
  1212  0078FA  C010  F01C         	movff	___fldiv@b+1,___fldiv@rem+1
  1213  0078FE  C011  F01D         	movff	___fldiv@b+2,___fldiv@rem+2
  1214  007902  C012  F01E         	movff	___fldiv@b+3,___fldiv@rem+3
  1215  007906  0E00               	movlw	0
  1216  007908  6E0F               	movwf	___fldiv@b^0,c
  1217  00790A  0E00               	movlw	0
  1218  00790C  6E10               	movwf	(___fldiv@b+1)^0,c
  1219  00790E  0E00               	movlw	0
  1220  007910  6E11               	movwf	(___fldiv@b+2)^0,c
  1221  007912  0E00               	movlw	0
  1222  007914  6E12               	movwf	(___fldiv@b+3)^0,c
  1223  007916  0E00               	movlw	0
  1224  007918  6E22               	movwf	___fldiv@grs^0,c
  1225  00791A  0E00               	movlw	0
  1226  00791C  6E23               	movwf	(___fldiv@grs+1)^0,c
  1227  00791E  0E00               	movlw	0
  1228  007920  6E24               	movwf	(___fldiv@grs+2)^0,c
  1229  007922  0E00               	movlw	0
  1230  007924  6E25               	movwf	(___fldiv@grs+3)^0,c
  1231  007926  0E00               	movlw	0
  1232  007928  6E27               	movwf	___fldiv@aexp^0,c
  1233  00792A  EFCF  F03C         	goto	l680
  1234  00792E                     l1587:
  1235  00792E  5027               	movf	___fldiv@aexp^0,w,c
  1236  007930  B4D8               	btfsc	status,2,c
  1237  007932  EF9D  F03C         	goto	u1471
  1238  007936  EF9F  F03C         	goto	u1470
  1239  00793A                     u1471:
  1240  00793A  EFB6  F03C         	goto	l1595
  1241  00793E                     u1470:
  1242  00793E  90D8               	bcf	status,0,c
  1243  007940  361B               	rlcf	___fldiv@rem^0,f,c
  1244  007942  361C               	rlcf	(___fldiv@rem+1)^0,f,c
  1245  007944  361D               	rlcf	(___fldiv@rem+2)^0,f,c
  1246  007946  361E               	rlcf	(___fldiv@rem+3)^0,f,c
  1247  007948  90D8               	bcf	status,0,c
  1248  00794A  360F               	rlcf	___fldiv@b^0,f,c
  1249  00794C  3610               	rlcf	(___fldiv@b+1)^0,f,c
  1250  00794E  3611               	rlcf	(___fldiv@b+2)^0,f,c
  1251  007950  3612               	rlcf	(___fldiv@b+3)^0,f,c
  1252  007952  AE25               	btfss	(___fldiv@grs+3)^0,7,c
  1253  007954  EFAE  F03C         	goto	u1481
  1254  007958  EFB0  F03C         	goto	u1480
  1255  00795C                     u1481:
  1256  00795C  EFB1  F03C         	goto	l683
  1257  007960                     u1480:
  1258  007960  800F               	bsf	___fldiv@b^0,0,c
  1259  007962                     l683:
  1260  007962  90D8               	bcf	status,0,c
  1261  007964  3622               	rlcf	___fldiv@grs^0,f,c
  1262  007966  3623               	rlcf	(___fldiv@grs+1)^0,f,c
  1263  007968  3624               	rlcf	(___fldiv@grs+2)^0,f,c
  1264  00796A  3625               	rlcf	(___fldiv@grs+3)^0,f,c
  1265  00796C                     l1595:
  1266  00796C  5013               	movf	___fldiv@a^0,w,c
  1267  00796E  5C1B               	subwf	___fldiv@rem^0,w,c
  1268  007970  5014               	movf	(___fldiv@a+1)^0,w,c
  1269  007972  581C               	subwfb	(___fldiv@rem+1)^0,w,c
  1270  007974  5015               	movf	(___fldiv@a+2)^0,w,c
  1271  007976  581D               	subwfb	(___fldiv@rem+2)^0,w,c
  1272  007978  5016               	movf	(___fldiv@a+3)^0,w,c
  1273  00797A  581E               	subwfb	(___fldiv@rem+3)^0,w,c
  1274  00797C  A0D8               	btfss	status,0,c
  1275  00797E  EFC3  F03C         	goto	u1491
  1276  007982  EFC5  F03C         	goto	u1490
  1277  007986                     u1491:
  1278  007986  EFCE  F03C         	goto	l1601
  1279  00798A                     u1490:
  1280  00798A  8C25               	bsf	(___fldiv@grs+3)^0,6,c
  1281  00798C  5013               	movf	___fldiv@a^0,w,c
  1282  00798E  5E1B               	subwf	___fldiv@rem^0,f,c
  1283  007990  5014               	movf	(___fldiv@a+1)^0,w,c
  1284  007992  5A1C               	subwfb	(___fldiv@rem+1)^0,f,c
  1285  007994  5015               	movf	(___fldiv@a+2)^0,w,c
  1286  007996  5A1D               	subwfb	(___fldiv@rem+2)^0,f,c
  1287  007998  5016               	movf	(___fldiv@a+3)^0,w,c
  1288  00799A  5A1E               	subwfb	(___fldiv@rem+3)^0,f,c
  1289  00799C                     l1601:
  1290  00799C  2A27               	incf	___fldiv@aexp^0,f,c
  1291  00799E                     l680:
  1292  00799E  0E19               	movlw	25
  1293  0079A0  6427               	cpfsgt	___fldiv@aexp^0,c
  1294  0079A2  EFD5  F03C         	goto	u1501
  1295  0079A6  EFD7  F03C         	goto	u1500
  1296  0079AA                     u1501:
  1297  0079AA  EF97  F03C         	goto	l1587
  1298  0079AE                     u1500:
  1299  0079AE  501B               	movf	___fldiv@rem^0,w,c
  1300  0079B0  101C               	iorwf	(___fldiv@rem+1)^0,w,c
  1301  0079B2  101D               	iorwf	(___fldiv@rem+2)^0,w,c
  1302  0079B4  101E               	iorwf	(___fldiv@rem+3)^0,w,c
  1303  0079B6  B4D8               	btfsc	status,2,c
  1304  0079B8  EFE0  F03C         	goto	u1511
  1305  0079BC  EFE2  F03C         	goto	u1510
  1306  0079C0                     u1511:
  1307  0079C0  EFFA  F03C         	goto	l1613
  1308  0079C4                     u1510:
  1309  0079C4  8022               	bsf	___fldiv@grs^0,0,c
  1310  0079C6  EFFA  F03C         	goto	l1613
  1311  0079CA                     l1607:
  1312  0079CA  90D8               	bcf	status,0,c
  1313  0079CC  360F               	rlcf	___fldiv@b^0,f,c
  1314  0079CE  3610               	rlcf	(___fldiv@b+1)^0,f,c
  1315  0079D0  3611               	rlcf	(___fldiv@b+2)^0,f,c
  1316  0079D2  3612               	rlcf	(___fldiv@b+3)^0,f,c
  1317  0079D4  AE25               	btfss	(___fldiv@grs+3)^0,7,c
  1318  0079D6  EFEF  F03C         	goto	u1521
  1319  0079DA  EFF1  F03C         	goto	u1520
  1320  0079DE                     u1521:
  1321  0079DE  EFF2  F03C         	goto	l689
  1322  0079E2                     u1520:
  1323  0079E2  800F               	bsf	___fldiv@b^0,0,c
  1324  0079E4                     l689:
  1325  0079E4  90D8               	bcf	status,0,c
  1326  0079E6  3622               	rlcf	___fldiv@grs^0,f,c
  1327  0079E8  3623               	rlcf	(___fldiv@grs+1)^0,f,c
  1328  0079EA  3624               	rlcf	(___fldiv@grs+2)^0,f,c
  1329  0079EC  3625               	rlcf	(___fldiv@grs+3)^0,f,c
  1330  0079EE  0620               	decf	___fldiv@new_exp^0,f,c
  1331  0079F0  A0D8               	btfss	status,0,c
  1332  0079F2  0621               	decf	(___fldiv@new_exp+1)^0,f,c
  1333  0079F4                     l1613:
  1334  0079F4  AE11               	btfss	(___fldiv@b+2)^0,7,c
  1335  0079F6  EFFF  F03C         	goto	u1531
  1336  0079FA  EF01  F03D         	goto	u1530
  1337  0079FE                     u1531:
  1338  0079FE  EFE5  F03C         	goto	l1607
  1339  007A02                     u1530:
  1340  007A02  0E00               	movlw	0
  1341  007A04  6E27               	movwf	___fldiv@aexp^0,c
  1342  007A06  AE25               	btfss	(___fldiv@grs+3)^0,7,c
  1343  007A08  EF08  F03D         	goto	u1541
  1344  007A0C  EF0A  F03D         	goto	u1540
  1345  007A10                     u1541:
  1346  007A10  EF2E  F03D         	goto	l691
  1347  007A14                     u1540:
  1348  007A14  0EFF               	movlw	255
  1349  007A16  1422               	andwf	___fldiv@grs^0,w,c
  1350  007A18  6E17               	movwf	??___fldiv^0,c
  1351  007A1A  0EFF               	movlw	255
  1352  007A1C  1423               	andwf	(___fldiv@grs+1)^0,w,c
  1353  007A1E  6E18               	movwf	(??___fldiv+1)^0,c
  1354  007A20  0EFF               	movlw	255
  1355  007A22  1424               	andwf	(___fldiv@grs+2)^0,w,c
  1356  007A24  6E19               	movwf	(??___fldiv+2)^0,c
  1357  007A26  0E7F               	movlw	127
  1358  007A28  1425               	andwf	(___fldiv@grs+3)^0,w,c
  1359  007A2A  6E1A               	movwf	(??___fldiv+3)^0,c
  1360  007A2C  5017               	movf	??___fldiv^0,w,c
  1361  007A2E  1018               	iorwf	(??___fldiv+1)^0,w,c
  1362  007A30  1019               	iorwf	(??___fldiv+2)^0,w,c
  1363  007A32  101A               	iorwf	(??___fldiv+3)^0,w,c
  1364  007A34  B4D8               	btfsc	status,2,c
  1365  007A36  EF1F  F03D         	goto	u1551
  1366  007A3A  EF21  F03D         	goto	u1550
  1367  007A3E                     u1551:
  1368  007A3E  EF25  F03D         	goto	l692
  1369  007A42                     u1550:
  1370  007A42                     l1621:
  1371  007A42  0E01               	movlw	1
  1372  007A44  6E27               	movwf	___fldiv@aexp^0,c
  1373  007A46  EF2E  F03D         	goto	l691
  1374  007A4A                     l692:
  1375  007A4A  A00F               	btfss	___fldiv@b^0,0,c
  1376  007A4C  EF2A  F03D         	goto	u1561
  1377  007A50  EF2C  F03D         	goto	u1560
  1378  007A54                     u1561:
  1379  007A54  EF2E  F03D         	goto	l691
  1380  007A58                     u1560:
  1381  007A58  EF21  F03D         	goto	l1621
  1382  007A5C                     l691:
  1383  007A5C  5027               	movf	___fldiv@aexp^0,w,c
  1384  007A5E  B4D8               	btfsc	status,2,c
  1385  007A60  EF34  F03D         	goto	u1571
  1386  007A64  EF36  F03D         	goto	u1570
  1387  007A68                     u1571:
  1388  007A68  EF5A  F03D         	goto	l1633
  1389  007A6C                     u1570:
  1390  007A6C  0E01               	movlw	1
  1391  007A6E  260F               	addwf	___fldiv@b^0,f,c
  1392  007A70  0E00               	movlw	0
  1393  007A72  2210               	addwfc	(___fldiv@b+1)^0,f,c
  1394  007A74  2211               	addwfc	(___fldiv@b+2)^0,f,c
  1395  007A76  2212               	addwfc	(___fldiv@b+3)^0,f,c
  1396  007A78  A012               	btfss	(___fldiv@b+3)^0,0,c
  1397  007A7A  EF41  F03D         	goto	u1581
  1398  007A7E  EF43  F03D         	goto	u1580
  1399  007A82                     u1581:
  1400  007A82  EF5A  F03D         	goto	l1633
  1401  007A86                     u1580:
  1402  007A86  C00F  F017         	movff	___fldiv@b,??___fldiv
  1403  007A8A  C010  F018         	movff	___fldiv@b+1,??___fldiv+1
  1404  007A8E  C011  F019         	movff	___fldiv@b+2,??___fldiv+2
  1405  007A92  C012  F01A         	movff	___fldiv@b+3,??___fldiv+3
  1406  007A96  341A               	rlcf	(??___fldiv+3)^0,w,c
  1407  007A98  321A               	rrcf	(??___fldiv+3)^0,f,c
  1408  007A9A  3219               	rrcf	(??___fldiv+2)^0,f,c
  1409  007A9C  3218               	rrcf	(??___fldiv+1)^0,f,c
  1410  007A9E  3217               	rrcf	??___fldiv^0,f,c
  1411  007AA0  C017  F00F         	movff	??___fldiv,___fldiv@b
  1412  007AA4  C018  F010         	movff	??___fldiv+1,___fldiv@b+1
  1413  007AA8  C019  F011         	movff	??___fldiv+2,___fldiv@b+2
  1414  007AAC  C01A  F012         	movff	??___fldiv+3,___fldiv@b+3
  1415  007AB0  4A20               	infsnz	___fldiv@new_exp^0,f,c
  1416  007AB2  2A21               	incf	(___fldiv@new_exp+1)^0,f,c
  1417  007AB4                     l1633:
  1418  007AB4  BE21               	btfsc	(___fldiv@new_exp+1)^0,7,c
  1419  007AB6  EF65  F03D         	goto	u1591
  1420  007ABA  5021               	movf	(___fldiv@new_exp+1)^0,w,c
  1421  007ABC  E108               	bnz	u1590
  1422  007ABE  2820               	incf	___fldiv@new_exp^0,w,c
  1423  007AC0  A0D8               	btfss	status,0,c
  1424  007AC2  EF65  F03D         	goto	u1591
  1425  007AC6  EF67  F03D         	goto	u1590
  1426  007ACA                     u1591:
  1427  007ACA  EF72  F03D         	goto	l1637
  1428  007ACE                     u1590:
  1429  007ACE  0E00               	movlw	0
  1430  007AD0  6E21               	movwf	(___fldiv@new_exp+1)^0,c
  1431  007AD2  6820               	setf	___fldiv@new_exp^0,c
  1432  007AD4  0E00               	movlw	0
  1433  007AD6  6E0F               	movwf	___fldiv@b^0,c
  1434  007AD8  0E00               	movlw	0
  1435  007ADA  6E10               	movwf	(___fldiv@b+1)^0,c
  1436  007ADC  0E00               	movlw	0
  1437  007ADE  6E11               	movwf	(___fldiv@b+2)^0,c
  1438  007AE0  0E00               	movlw	0
  1439  007AE2  6E12               	movwf	(___fldiv@b+3)^0,c
  1440  007AE4                     l1637:
  1441  007AE4  BE21               	btfsc	(___fldiv@new_exp+1)^0,7,c
  1442  007AE6  EF7F  F03D         	goto	u1600
  1443  007AEA  5021               	movf	(___fldiv@new_exp+1)^0,w,c
  1444  007AEC  E106               	bnz	u1601
  1445  007AEE  0420               	decf	___fldiv@new_exp^0,w,c
  1446  007AF0  B0D8               	btfsc	status,0,c
  1447  007AF2  EF7D  F03D         	goto	u1601
  1448  007AF6  EF7F  F03D         	goto	u1600
  1449  007AFA                     u1601:
  1450  007AFA  EF8D  F03D         	goto	l1641
  1451  007AFE                     u1600:
  1452  007AFE  0E00               	movlw	0
  1453  007B00  6E21               	movwf	(___fldiv@new_exp+1)^0,c
  1454  007B02  0E00               	movlw	0
  1455  007B04  6E20               	movwf	___fldiv@new_exp^0,c
  1456  007B06  0E00               	movlw	0
  1457  007B08  6E0F               	movwf	___fldiv@b^0,c
  1458  007B0A  0E00               	movlw	0
  1459  007B0C  6E10               	movwf	(___fldiv@b+1)^0,c
  1460  007B0E  0E00               	movlw	0
  1461  007B10  6E11               	movwf	(___fldiv@b+2)^0,c
  1462  007B12  0E00               	movlw	0
  1463  007B14  6E12               	movwf	(___fldiv@b+3)^0,c
  1464  007B16  0E00               	movlw	0
  1465  007B18  6E1F               	movwf	___fldiv@sign^0,c
  1466  007B1A                     l1641:
  1467  007B1A  C020  F026         	movff	___fldiv@new_exp,___fldiv@bexp
  1468  007B1E  A026               	btfss	___fldiv@bexp^0,0,c
  1469  007B20  EF94  F03D         	goto	u1611
  1470  007B24  EF96  F03D         	goto	u1610
  1471  007B28                     u1611:
  1472  007B28  EF99  F03D         	goto	l1647
  1473  007B2C                     u1610:
  1474  007B2C  8E11               	bsf	(___fldiv@b+2)^0,7,c
  1475  007B2E  EF9A  F03D         	goto	l1649
  1476  007B32                     l1647:
  1477  007B32  9E11               	bcf	(___fldiv@b+2)^0,7,c
  1478  007B34                     l1649:
  1479  007B34  90D8               	bcf	status,0,c
  1480  007B36  3026               	rrcf	___fldiv@bexp^0,w,c
  1481  007B38  6E12               	movwf	(___fldiv@b+3)^0,c
  1482  007B3A  EF50  F03C         	goto	l1563
  1483  007B3E                     l678:
  1484  007B3E  0012               	return		;funcret
  1485  007B40                     __end_of___fldiv:
  1486                           	callstack 0
  1487                           
  1488 ;; *************** function ___fladd *****************
  1489 ;; Defined at:
  1490 ;;		line 10 in file "D:\mplab\pic\sources\c99\common\sprcadd.c"
  1491 ;; Parameters:    Size  Location     Type
  1492 ;;  b               4   39[COMRAM] unsigned char 
  1493 ;;  a               4   43[COMRAM] unsigned char 
  1494 ;; Auto vars:     Size  Location     Type
  1495 ;;  grs             1   54[COMRAM] unsigned char 
  1496 ;;  bexp            1   53[COMRAM] unsigned char 
  1497 ;;  aexp            1   52[COMRAM] unsigned char 
  1498 ;;  signs           1   51[COMRAM] unsigned char 
  1499 ;; Return value:  Size  Location     Type
  1500 ;;                  4   39[COMRAM] unsigned char 
  1501 ;; Registers used:
  1502 ;;		wreg, status,2, status,0
  1503 ;; Tracked objects:
  1504 ;;		On entry : 0/0
  1505 ;;		On exit  : 0/0
  1506 ;;		Unchanged: 0/0
  1507 ;; Data sizes:     COMRAM   BANK0   BANK1   BANK2   BANK3   BANK4   BANK5   BANK6   BANK7
  1508 ;;      Params:         8       0       0       0       0       0       0       0       0
  1509 ;;      Locals:         4       0       0       0       0       0       0       0       0
  1510 ;;      Temps:          4       0       0       0       0       0       0       0       0
  1511 ;;      Totals:        16       0       0       0       0       0       0       0       0
  1512 ;;Total ram usage:       16 bytes
  1513 ;; Hardware stack levels used: 1
  1514 ;; This function calls:
  1515 ;;		Nothing
  1516 ;; This function is called by:
  1517 ;;		_USART_Init
  1518 ;; This function uses a non-reentrant model
  1519 ;;
  1520                           
  1521                           	psect	text6
  1522  007B40                     __ptext6:
  1523                           	callstack 0
  1524  007B40                     ___fladd:
  1525                           	callstack 29
  1526  007B40  502B               	movf	(___fladd@b+3)^0,w,c
  1527  007B42  0B80               	andlw	128
  1528  007B44  6E34               	movwf	___fladd@signs^0,c
  1529  007B46  502B               	movf	(___fladd@b+3)^0,w,c
  1530  007B48  242B               	addwf	(___fladd@b+3)^0,w,c
  1531  007B4A  6E36               	movwf	___fladd@bexp^0,c
  1532  007B4C  AE2A               	btfss	(___fladd@b+2)^0,7,c
  1533  007B4E  EFAB  F03D         	goto	u1001
  1534  007B52  EFAD  F03D         	goto	u1000
  1535  007B56                     u1001:
  1536  007B56  EFAE  F03D         	goto	l1323
  1537  007B5A                     u1000:
  1538  007B5A  8036               	bsf	___fladd@bexp^0,0,c
  1539  007B5C                     l1323:
  1540  007B5C  5036               	movf	___fladd@bexp^0,w,c
  1541  007B5E  B4D8               	btfsc	status,2,c
  1542  007B60  EFB4  F03D         	goto	u1011
  1543  007B64  EFB6  F03D         	goto	u1010
  1544  007B68                     u1011:
  1545  007B68  EFCB  F03D         	goto	l1333
  1546  007B6C                     u1010:
  1547  007B6C  2836               	incf	___fladd@bexp^0,w,c
  1548  007B6E  A4D8               	btfss	status,2,c
  1549  007B70  EFBC  F03D         	goto	u1021
  1550  007B74  EFBE  F03D         	goto	u1020
  1551  007B78                     u1021:
  1552  007B78  EFC6  F03D         	goto	l1329
  1553  007B7C                     u1020:
  1554  007B7C  0E00               	movlw	0
  1555  007B7E  6E28               	movwf	___fladd@b^0,c
  1556  007B80  0E00               	movlw	0
  1557  007B82  6E29               	movwf	(___fladd@b+1)^0,c
  1558  007B84  0E00               	movlw	0
  1559  007B86  6E2A               	movwf	(___fladd@b+2)^0,c
  1560  007B88  0E00               	movlw	0
  1561  007B8A  6E2B               	movwf	(___fladd@b+3)^0,c
  1562  007B8C                     l1329:
  1563  007B8C  8E2A               	bsf	(___fladd@b+2)^0,7,c
  1564  007B8E  0E00               	movlw	0
  1565  007B90  6E2B               	movwf	(___fladd@b+3)^0,c
  1566  007B92  EFD3  F03D         	goto	l1335
  1567  007B96                     l1333:
  1568  007B96  0E00               	movlw	0
  1569  007B98  6E28               	movwf	___fladd@b^0,c
  1570  007B9A  0E00               	movlw	0
  1571  007B9C  6E29               	movwf	(___fladd@b+1)^0,c
  1572  007B9E  0E00               	movlw	0
  1573  007BA0  6E2A               	movwf	(___fladd@b+2)^0,c
  1574  007BA2  0E00               	movlw	0
  1575  007BA4  6E2B               	movwf	(___fladd@b+3)^0,c
  1576  007BA6                     l1335:
  1577  007BA6  502F               	movf	(___fladd@a+3)^0,w,c
  1578  007BA8  0B80               	andlw	128
  1579  007BAA  6E35               	movwf	___fladd@aexp^0,c
  1580  007BAC  5034               	movf	___fladd@signs^0,w,c
  1581  007BAE  1835               	xorwf	___fladd@aexp^0,w,c
  1582  007BB0  B4D8               	btfsc	status,2,c
  1583  007BB2  EFDD  F03D         	goto	u1031
  1584  007BB6  EFDF  F03D         	goto	u1030
  1585  007BBA                     u1031:
  1586  007BBA  EFE0  F03D         	goto	l1341
  1587  007BBE                     u1030:
  1588  007BBE  8C34               	bsf	___fladd@signs^0,6,c
  1589  007BC0                     l1341:
  1590  007BC0  502F               	movf	(___fladd@a+3)^0,w,c
  1591  007BC2  242F               	addwf	(___fladd@a+3)^0,w,c
  1592  007BC4  6E35               	movwf	___fladd@aexp^0,c
  1593  007BC6  AE2E               	btfss	(___fladd@a+2)^0,7,c
  1594  007BC8  EFE8  F03D         	goto	u1041
  1595  007BCC  EFEA  F03D         	goto	u1040
  1596  007BD0                     u1041:
  1597  007BD0  EFEB  F03D         	goto	l1347
  1598  007BD4                     u1040:
  1599  007BD4  8035               	bsf	___fladd@aexp^0,0,c
  1600  007BD6                     l1347:
  1601  007BD6  5035               	movf	___fladd@aexp^0,w,c
  1602  007BD8  B4D8               	btfsc	status,2,c
  1603  007BDA  EFF1  F03D         	goto	u1051
  1604  007BDE  EFF3  F03D         	goto	u1050
  1605  007BE2                     u1051:
  1606  007BE2  EF08  F03E         	goto	l1357
  1607  007BE6                     u1050:
  1608  007BE6  2835               	incf	___fladd@aexp^0,w,c
  1609  007BE8  A4D8               	btfss	status,2,c
  1610  007BEA  EFF9  F03D         	goto	u1061
  1611  007BEE  EFFB  F03D         	goto	u1060
  1612  007BF2                     u1061:
  1613  007BF2  EF03  F03E         	goto	l1353
  1614  007BF6                     u1060:
  1615  007BF6  0E00               	movlw	0
  1616  007BF8  6E2C               	movwf	___fladd@a^0,c
  1617  007BFA  0E00               	movlw	0
  1618  007BFC  6E2D               	movwf	(___fladd@a+1)^0,c
  1619  007BFE  0E00               	movlw	0
  1620  007C00  6E2E               	movwf	(___fladd@a+2)^0,c
  1621  007C02  0E00               	movlw	0
  1622  007C04  6E2F               	movwf	(___fladd@a+3)^0,c
  1623  007C06                     l1353:
  1624  007C06  8E2E               	bsf	(___fladd@a+2)^0,7,c
  1625  007C08  0E00               	movlw	0
  1626  007C0A  6E2F               	movwf	(___fladd@a+3)^0,c
  1627  007C0C  EF10  F03E         	goto	l1359
  1628  007C10                     l1357:
  1629  007C10  0E00               	movlw	0
  1630  007C12  6E2C               	movwf	___fladd@a^0,c
  1631  007C14  0E00               	movlw	0
  1632  007C16  6E2D               	movwf	(___fladd@a+1)^0,c
  1633  007C18  0E00               	movlw	0
  1634  007C1A  6E2E               	movwf	(___fladd@a+2)^0,c
  1635  007C1C  0E00               	movlw	0
  1636  007C1E  6E2F               	movwf	(___fladd@a+3)^0,c
  1637  007C20                     l1359:
  1638  007C20  5036               	movf	___fladd@bexp^0,w,c
  1639  007C22  5C35               	subwf	___fladd@aexp^0,w,c
  1640  007C24  B0D8               	btfsc	status,0,c
  1641  007C26  EF17  F03E         	goto	u1071
  1642  007C2A  EF19  F03E         	goto	u1070
  1643  007C2E                     u1071:
  1644  007C2E  EF40  F03E         	goto	l1395
  1645  007C32                     u1070:
  1646  007C32  AC34               	btfss	___fladd@signs^0,6,c
  1647  007C34  EF1E  F03E         	goto	u1081
  1648  007C38  EF20  F03E         	goto	u1080
  1649  007C3C                     u1081:
  1650  007C3C  EF22  F03E         	goto	l1365
  1651  007C40                     u1080:
  1652  007C40  0E80               	movlw	128
  1653  007C42  1A34               	xorwf	___fladd@signs^0,f,c
  1654  007C44                     l1365:
  1655  007C44  C036  F037         	movff	___fladd@bexp,___fladd@grs
  1656  007C48  C035  F036         	movff	___fladd@aexp,___fladd@bexp
  1657  007C4C  C037  F035         	movff	___fladd@grs,___fladd@aexp
  1658  007C50  C028  F037         	movff	___fladd@b,___fladd@grs
  1659  007C54  C02C  F028         	movff	___fladd@a,___fladd@b
  1660  007C58  C037  F02C         	movff	___fladd@grs,___fladd@a
  1661  007C5C  C029  F037         	movff	___fladd@b+1,___fladd@grs
  1662  007C60  C02D  F029         	movff	___fladd@a+1,___fladd@b+1
  1663  007C64  C037  F02D         	movff	___fladd@grs,___fladd@a+1
  1664  007C68  C02A  F037         	movff	___fladd@b+2,___fladd@grs
  1665  007C6C  C02E  F02A         	movff	___fladd@a+2,___fladd@b+2
  1666  007C70  C037  F02E         	movff	___fladd@grs,___fladd@a+2
  1667  007C74  C02B  F037         	movff	___fladd@b+3,___fladd@grs
  1668  007C78  C02F  F02B         	movff	___fladd@a+3,___fladd@b+3
  1669  007C7C  C037  F02F         	movff	___fladd@grs,___fladd@a+3
  1670  007C80                     l1395:
  1671  007C80  0E00               	movlw	0
  1672  007C82  6E37               	movwf	___fladd@grs^0,c
  1673  007C84  5036               	movf	___fladd@bexp^0,w,c
  1674  007C86  C035  F030         	movff	___fladd@aexp,??___fladd
  1675  007C8A  6A31               	clrf	(??___fladd+1)^0,c
  1676  007C8C  5E30               	subwf	??___fladd^0,f,c
  1677  007C8E  0E00               	movlw	0
  1678  007C90  5A31               	subwfb	(??___fladd+1)^0,f,c
  1679  007C92  BE31               	btfsc	(??___fladd+1)^0,7,c
  1680  007C94  EF55  F03E         	goto	u1091
  1681  007C98  5031               	movf	(??___fladd+1)^0,w,c
  1682  007C9A  E109               	bnz	u1090
  1683  007C9C  0E1A               	movlw	26
  1684  007C9E  5C30               	subwf	??___fladd^0,w,c
  1685  007CA0  A0D8               	btfss	status,0,c
  1686  007CA2  EF55  F03E         	goto	u1091
  1687  007CA6  EF57  F03E         	goto	u1090
  1688  007CAA                     u1091:
  1689  007CAA  EF8E  F03E         	goto	l625
  1690  007CAE                     u1090:
  1691  007CAE  5028               	movf	___fladd@b^0,w,c
  1692  007CB0  1029               	iorwf	(___fladd@b+1)^0,w,c
  1693  007CB2  102A               	iorwf	(___fladd@b+2)^0,w,c
  1694  007CB4  102B               	iorwf	(___fladd@b+3)^0,w,c
  1695  007CB6  A4D8               	btfss	status,2,c
  1696  007CB8  EF60  F03E         	goto	u1101
  1697  007CBC  EF63  F03E         	goto	u1100
  1698  007CC0                     u1101:
  1699  007CC0  0E01               	movlw	1
  1700  007CC2  EF64  F03E         	goto	u1110
  1701  007CC6                     u1100:
  1702  007CC6  0E00               	movlw	0
  1703  007CC8                     u1110:
  1704  007CC8  6E37               	movwf	___fladd@grs^0,c
  1705  007CCA  0E00               	movlw	0
  1706  007CCC  6E28               	movwf	___fladd@b^0,c
  1707  007CCE  0E00               	movlw	0
  1708  007CD0  6E29               	movwf	(___fladd@b+1)^0,c
  1709  007CD2  0E00               	movlw	0
  1710  007CD4  6E2A               	movwf	(___fladd@b+2)^0,c
  1711  007CD6  0E00               	movlw	0
  1712  007CD8  6E2B               	movwf	(___fladd@b+3)^0,c
  1713  007CDA  C035  F036         	movff	___fladd@aexp,___fladd@bexp
  1714  007CDE  EF97  F03E         	goto	l624
  1715  007CE2                     l626:
  1716  007CE2  A037               	btfss	___fladd@grs^0,0,c
  1717  007CE4  EF76  F03E         	goto	u1121
  1718  007CE8  EF78  F03E         	goto	u1120
  1719  007CEC                     u1121:
  1720  007CEC  EF7E  F03E         	goto	l1407
  1721  007CF0                     u1120:
  1722  007CF0  90D8               	bcf	status,0,c
  1723  007CF2  3037               	rrcf	___fladd@grs^0,w,c
  1724  007CF4  0901               	iorlw	1
  1725  007CF6  6E37               	movwf	___fladd@grs^0,c
  1726  007CF8  EF80  F03E         	goto	l1409
  1727  007CFC                     l1407:
  1728  007CFC  90D8               	bcf	status,0,c
  1729  007CFE  3237               	rrcf	___fladd@grs^0,f,c
  1730  007D00                     l1409:
  1731  007D00  A028               	btfss	___fladd@b^0,0,c
  1732  007D02  EF85  F03E         	goto	u1131
  1733  007D06  EF87  F03E         	goto	u1130
  1734  007D0A                     u1131:
  1735  007D0A  EF88  F03E         	goto	l1413
  1736  007D0E                     u1130:
  1737  007D0E  8E37               	bsf	___fladd@grs^0,7,c
  1738  007D10                     l1413:
  1739  007D10  342B               	rlcf	(___fladd@b+3)^0,w,c
  1740  007D12  322B               	rrcf	(___fladd@b+3)^0,f,c
  1741  007D14  322A               	rrcf	(___fladd@b+2)^0,f,c
  1742  007D16  3229               	rrcf	(___fladd@b+1)^0,f,c
  1743  007D18  3228               	rrcf	___fladd@b^0,f,c
  1744  007D1A  2A36               	incf	___fladd@bexp^0,f,c
  1745  007D1C                     l625:
  1746  007D1C  5035               	movf	___fladd@aexp^0,w,c
  1747  007D1E  5C36               	subwf	___fladd@bexp^0,w,c
  1748  007D20  A0D8               	btfss	status,0,c
  1749  007D22  EF95  F03E         	goto	u1141
  1750  007D26  EF97  F03E         	goto	u1140
  1751  007D2A                     u1141:
  1752  007D2A  EF71  F03E         	goto	l626
  1753  007D2E                     u1140:
  1754  007D2E                     l624:
  1755  007D2E  BC34               	btfsc	___fladd@signs^0,6,c
  1756  007D30  EF9C  F03E         	goto	u1151
  1757  007D34  EF9E  F03E         	goto	u1150
  1758  007D38                     u1151:
  1759  007D38  EFDE  F03E         	goto	l1441
  1760  007D3C                     u1150:
  1761  007D3C  5036               	movf	___fladd@bexp^0,w,c
  1762  007D3E  A4D8               	btfss	status,2,c
  1763  007D40  EFA4  F03E         	goto	u1161
  1764  007D44  EFA6  F03E         	goto	u1160
  1765  007D48                     u1161:
  1766  007D48  EFB0  F03E         	goto	l1423
  1767  007D4C                     u1160:
  1768  007D4C  0E00               	movlw	0
  1769  007D4E  6E28               	movwf	?___fladd^0,c
  1770  007D50  0E00               	movlw	0
  1771  007D52  6E29               	movwf	(?___fladd+1)^0,c
  1772  007D54  0E00               	movlw	0
  1773  007D56  6E2A               	movwf	(?___fladd+2)^0,c
  1774  007D58  0E00               	movlw	0
  1775  007D5A  6E2B               	movwf	(?___fladd+3)^0,c
  1776  007D5C  EFFF  F03F         	goto	l633
  1777  007D60                     l1423:
  1778  007D60  502C               	movf	___fladd@a^0,w,c
  1779  007D62  2628               	addwf	___fladd@b^0,f,c
  1780  007D64  502D               	movf	(___fladd@a+1)^0,w,c
  1781  007D66  2229               	addwfc	(___fladd@b+1)^0,f,c
  1782  007D68  502E               	movf	(___fladd@a+2)^0,w,c
  1783  007D6A  222A               	addwfc	(___fladd@b+2)^0,f,c
  1784  007D6C  502F               	movf	(___fladd@a+3)^0,w,c
  1785  007D6E  222B               	addwfc	(___fladd@b+3)^0,f,c
  1786  007D70  A02B               	btfss	(___fladd@b+3)^0,0,c
  1787  007D72  EFBD  F03E         	goto	u1171
  1788  007D76  EFBF  F03E         	goto	u1170
  1789  007D7A                     u1171:
  1790  007D7A  EF6B  F03F         	goto	l1477
  1791  007D7E                     u1170:
  1792  007D7E  A037               	btfss	___fladd@grs^0,0,c
  1793  007D80  EFC4  F03E         	goto	u1181
  1794  007D84  EFC6  F03E         	goto	u1180
  1795  007D88                     u1181:
  1796  007D88  EFCC  F03E         	goto	l1431
  1797  007D8C                     u1180:
  1798  007D8C  90D8               	bcf	status,0,c
  1799  007D8E  3037               	rrcf	___fladd@grs^0,w,c
  1800  007D90  0901               	iorlw	1
  1801  007D92  6E37               	movwf	___fladd@grs^0,c
  1802  007D94  EFCE  F03E         	goto	l1433
  1803  007D98                     l1431:
  1804  007D98  90D8               	bcf	status,0,c
  1805  007D9A  3237               	rrcf	___fladd@grs^0,f,c
  1806  007D9C                     l1433:
  1807  007D9C  A028               	btfss	___fladd@b^0,0,c
  1808  007D9E  EFD3  F03E         	goto	u1191
  1809  007DA2  EFD5  F03E         	goto	u1190
  1810  007DA6                     u1191:
  1811  007DA6  EFD6  F03E         	goto	l1437
  1812  007DAA                     u1190:
  1813  007DAA  8E37               	bsf	___fladd@grs^0,7,c
  1814  007DAC                     l1437:
  1815  007DAC  342B               	rlcf	(___fladd@b+3)^0,w,c
  1816  007DAE  322B               	rrcf	(___fladd@b+3)^0,f,c
  1817  007DB0  322A               	rrcf	(___fladd@b+2)^0,f,c
  1818  007DB2  3229               	rrcf	(___fladd@b+1)^0,f,c
  1819  007DB4  3228               	rrcf	___fladd@b^0,f,c
  1820  007DB6  2A36               	incf	___fladd@bexp^0,f,c
  1821  007DB8  EF6B  F03F         	goto	l1477
  1822  007DBC                     l1441:
  1823  007DBC  502C               	movf	___fladd@a^0,w,c
  1824  007DBE  5C28               	subwf	___fladd@b^0,w,c
  1825  007DC0  502D               	movf	(___fladd@a+1)^0,w,c
  1826  007DC2  5829               	subwfb	(___fladd@b+1)^0,w,c
  1827  007DC4  502E               	movf	(___fladd@a+2)^0,w,c
  1828  007DC6  582A               	subwfb	(___fladd@b+2)^0,w,c
  1829  007DC8  502B               	movf	(___fladd@b+3)^0,w,c
  1830  007DCA  0A80               	xorlw	128
  1831  007DCC  6E30               	movwf	??___fladd^0,c
  1832  007DCE  502F               	movf	(___fladd@a+3)^0,w,c
  1833  007DD0  0A80               	xorlw	128
  1834  007DD2  5830               	subwfb	??___fladd^0,w,c
  1835  007DD4  B0D8               	btfsc	status,0,c
  1836  007DD6  EFEF  F03E         	goto	u1201
  1837  007DDA  EFF1  F03E         	goto	u1200
  1838  007DDE                     u1201:
  1839  007DDE  EF1C  F03F         	goto	l1451
  1840  007DE2                     u1200:
  1841  007DE2  5028               	movf	___fladd@b^0,w,c
  1842  007DE4  5C2C               	subwf	___fladd@a^0,w,c
  1843  007DE6  6E30               	movwf	??___fladd^0,c
  1844  007DE8  5029               	movf	(___fladd@b+1)^0,w,c
  1845  007DEA  582D               	subwfb	(___fladd@a+1)^0,w,c
  1846  007DEC  6E31               	movwf	(??___fladd+1)^0,c
  1847  007DEE  502A               	movf	(___fladd@b+2)^0,w,c
  1848  007DF0  582E               	subwfb	(___fladd@a+2)^0,w,c
  1849  007DF2  6E32               	movwf	(??___fladd+2)^0,c
  1850  007DF4  502B               	movf	(___fladd@b+3)^0,w,c
  1851  007DF6  582F               	subwfb	(___fladd@a+3)^0,w,c
  1852  007DF8  6E33               	movwf	(??___fladd+3)^0,c
  1853  007DFA  0EFF               	movlw	255
  1854  007DFC  2430               	addwf	??___fladd^0,w,c
  1855  007DFE  6E28               	movwf	___fladd@b^0,c
  1856  007E00  0EFF               	movlw	255
  1857  007E02  2031               	addwfc	(??___fladd+1)^0,w,c
  1858  007E04  6E29               	movwf	(___fladd@b+1)^0,c
  1859  007E06  0EFF               	movlw	255
  1860  007E08  2032               	addwfc	(??___fladd+2)^0,w,c
  1861  007E0A  6E2A               	movwf	(___fladd@b+2)^0,c
  1862  007E0C  0EFF               	movlw	255
  1863  007E0E  2033               	addwfc	(??___fladd+3)^0,w,c
  1864  007E10  6E2B               	movwf	(___fladd@b+3)^0,c
  1865  007E12  0E80               	movlw	128
  1866  007E14  1A34               	xorwf	___fladd@signs^0,f,c
  1867  007E16  6C37               	negf	___fladd@grs^0,c
  1868  007E18  5037               	movf	___fladd@grs^0,w,c
  1869  007E1A  A4D8               	btfss	status,2,c
  1870  007E1C  EF12  F03F         	goto	u1211
  1871  007E20  EF14  F03F         	goto	u1210
  1872  007E24                     u1211:
  1873  007E24  EF24  F03F         	goto	l641
  1874  007E28                     u1210:
  1875  007E28  0E01               	movlw	1
  1876  007E2A  2628               	addwf	___fladd@b^0,f,c
  1877  007E2C  0E00               	movlw	0
  1878  007E2E  2229               	addwfc	(___fladd@b+1)^0,f,c
  1879  007E30  222A               	addwfc	(___fladd@b+2)^0,f,c
  1880  007E32  222B               	addwfc	(___fladd@b+3)^0,f,c
  1881  007E34  EF24  F03F         	goto	l641
  1882  007E38                     l1451:
  1883  007E38  502C               	movf	___fladd@a^0,w,c
  1884  007E3A  5E28               	subwf	___fladd@b^0,f,c
  1885  007E3C  502D               	movf	(___fladd@a+1)^0,w,c
  1886  007E3E  5A29               	subwfb	(___fladd@b+1)^0,f,c
  1887  007E40  502E               	movf	(___fladd@a+2)^0,w,c
  1888  007E42  5A2A               	subwfb	(___fladd@b+2)^0,f,c
  1889  007E44  502F               	movf	(___fladd@a+3)^0,w,c
  1890  007E46  5A2B               	subwfb	(___fladd@b+3)^0,f,c
  1891  007E48                     l641:
  1892  007E48  5028               	movf	___fladd@b^0,w,c
  1893  007E4A  1029               	iorwf	(___fladd@b+1)^0,w,c
  1894  007E4C  102A               	iorwf	(___fladd@b+2)^0,w,c
  1895  007E4E  102B               	iorwf	(___fladd@b+3)^0,w,c
  1896  007E50  A4D8               	btfss	status,2,c
  1897  007E52  EF2D  F03F         	goto	u1221
  1898  007E56  EF2F  F03F         	goto	u1220
  1899  007E5A                     u1221:
  1900  007E5A  EF64  F03F         	goto	l1475
  1901  007E5E                     u1220:
  1902  007E5E  5037               	movf	___fladd@grs^0,w,c
  1903  007E60  A4D8               	btfss	status,2,c
  1904  007E62  EF35  F03F         	goto	u1231
  1905  007E66  EF37  F03F         	goto	u1230
  1906  007E6A                     u1231:
  1907  007E6A  EF64  F03F         	goto	l1475
  1908  007E6E                     u1230:
  1909  007E6E  0E00               	movlw	0
  1910  007E70  6E28               	movwf	?___fladd^0,c
  1911  007E72  0E00               	movlw	0
  1912  007E74  6E29               	movwf	(?___fladd+1)^0,c
  1913  007E76  0E00               	movlw	0
  1914  007E78  6E2A               	movwf	(?___fladd+2)^0,c
  1915  007E7A  0E00               	movlw	0
  1916  007E7C  6E2B               	movwf	(?___fladd+3)^0,c
  1917  007E7E  EFFF  F03F         	goto	l633
  1918  007E82                     l1459:
  1919  007E82  90D8               	bcf	status,0,c
  1920  007E84  3628               	rlcf	___fladd@b^0,f,c
  1921  007E86  3629               	rlcf	(___fladd@b+1)^0,f,c
  1922  007E88  362A               	rlcf	(___fladd@b+2)^0,f,c
  1923  007E8A  362B               	rlcf	(___fladd@b+3)^0,f,c
  1924  007E8C  AE37               	btfss	___fladd@grs^0,7,c
  1925  007E8E  EF4B  F03F         	goto	u1241
  1926  007E92  EF4D  F03F         	goto	u1240
  1927  007E96                     u1241:
  1928  007E96  EF4E  F03F         	goto	l1465
  1929  007E9A                     u1240:
  1930  007E9A  8028               	bsf	___fladd@b^0,0,c
  1931  007E9C                     l1465:
  1932  007E9C  A037               	btfss	___fladd@grs^0,0,c
  1933  007E9E  EF53  F03F         	goto	u1251
  1934  007EA2  EF55  F03F         	goto	u1250
  1935  007EA6                     u1251:
  1936  007EA6  EF59  F03F         	goto	l1469
  1937  007EAA                     u1250:
  1938  007EAA  80D8               	bsf	status,0,c
  1939  007EAC  3637               	rlcf	___fladd@grs^0,f,c
  1940  007EAE  EF5B  F03F         	goto	l1471
  1941  007EB2                     l1469:
  1942  007EB2  90D8               	bcf	status,0,c
  1943  007EB4  3637               	rlcf	___fladd@grs^0,f,c
  1944  007EB6                     l1471:
  1945  007EB6  5036               	movf	___fladd@bexp^0,w,c
  1946  007EB8  B4D8               	btfsc	status,2,c
  1947  007EBA  EF61  F03F         	goto	u1261
  1948  007EBE  EF63  F03F         	goto	u1260
  1949  007EC2                     u1261:
  1950  007EC2  EF64  F03F         	goto	l1475
  1951  007EC6                     u1260:
  1952  007EC6  0636               	decf	___fladd@bexp^0,f,c
  1953  007EC8                     l1475:
  1954  007EC8  AE2A               	btfss	(___fladd@b+2)^0,7,c
  1955  007ECA  EF69  F03F         	goto	u1271
  1956  007ECE  EF6B  F03F         	goto	u1270
  1957  007ED2                     u1271:
  1958  007ED2  EF41  F03F         	goto	l1459
  1959  007ED6                     u1270:
  1960  007ED6                     l1477:
  1961  007ED6  0E00               	movlw	0
  1962  007ED8  6E35               	movwf	___fladd@aexp^0,c
  1963  007EDA  AE37               	btfss	___fladd@grs^0,7,c
  1964  007EDC  EF72  F03F         	goto	u1281
  1965  007EE0  EF74  F03F         	goto	u1280
  1966  007EE4                     u1281:
  1967  007EE4  EF8C  F03F         	goto	l650
  1968  007EE8                     u1280:
  1969  007EE8  C037  F030         	movff	___fladd@grs,??___fladd
  1970  007EEC  0E7F               	movlw	127
  1971  007EEE  1630               	andwf	??___fladd^0,f,c
  1972  007EF0  B4D8               	btfsc	status,2,c
  1973  007EF2  EF7D  F03F         	goto	u1291
  1974  007EF6  EF7F  F03F         	goto	u1290
  1975  007EFA                     u1291:
  1976  007EFA  EF83  F03F         	goto	l651
  1977  007EFE                     u1290:
  1978  007EFE                     l1483:
  1979  007EFE  0E01               	movlw	1
  1980  007F00  6E35               	movwf	___fladd@aexp^0,c
  1981  007F02  EF8C  F03F         	goto	l650
  1982  007F06                     l651:
  1983  007F06  A028               	btfss	___fladd@b^0,0,c
  1984  007F08  EF88  F03F         	goto	u1301
  1985  007F0C  EF8A  F03F         	goto	u1300
  1986  007F10                     u1301:
  1987  007F10  EF8C  F03F         	goto	l650
  1988  007F14                     u1300:
  1989  007F14  EF7F  F03F         	goto	l1483
  1990  007F18                     l650:
  1991  007F18  5035               	movf	___fladd@aexp^0,w,c
  1992  007F1A  B4D8               	btfsc	status,2,c
  1993  007F1C  EF92  F03F         	goto	u1311
  1994  007F20  EF94  F03F         	goto	u1310
  1995  007F24                     u1311:
  1996  007F24  EFBF  F03F         	goto	l1495
  1997  007F28                     u1310:
  1998  007F28  0E01               	movlw	1
  1999  007F2A  2628               	addwf	___fladd@b^0,f,c
  2000  007F2C  0E00               	movlw	0
  2001  007F2E  2229               	addwfc	(___fladd@b+1)^0,f,c
  2002  007F30  222A               	addwfc	(___fladd@b+2)^0,f,c
  2003  007F32  222B               	addwfc	(___fladd@b+3)^0,f,c
  2004  007F34  A02B               	btfss	(___fladd@b+3)^0,0,c
  2005  007F36  EF9F  F03F         	goto	u1321
  2006  007F3A  EFA1  F03F         	goto	u1320
  2007  007F3E                     u1321:
  2008  007F3E  EFBF  F03F         	goto	l1495
  2009  007F42                     u1320:
  2010  007F42  C028  F030         	movff	___fladd@b,??___fladd
  2011  007F46  C029  F031         	movff	___fladd@b+1,??___fladd+1
  2012  007F4A  C02A  F032         	movff	___fladd@b+2,??___fladd+2
  2013  007F4E  C02B  F033         	movff	___fladd@b+3,??___fladd+3
  2014  007F52  3433               	rlcf	(??___fladd+3)^0,w,c
  2015  007F54  3233               	rrcf	(??___fladd+3)^0,f,c
  2016  007F56  3232               	rrcf	(??___fladd+2)^0,f,c
  2017  007F58  3231               	rrcf	(??___fladd+1)^0,f,c
  2018  007F5A  3230               	rrcf	??___fladd^0,f,c
  2019  007F5C  C030  F028         	movff	??___fladd,___fladd@b
  2020  007F60  C031  F029         	movff	??___fladd+1,___fladd@b+1
  2021  007F64  C032  F02A         	movff	??___fladd+2,___fladd@b+2
  2022  007F68  C033  F02B         	movff	??___fladd+3,___fladd@b+3
  2023  007F6C  2836               	incf	___fladd@bexp^0,w,c
  2024  007F6E  B4D8               	btfsc	status,2,c
  2025  007F70  EFBC  F03F         	goto	u1331
  2026  007F74  EFBE  F03F         	goto	u1330
  2027  007F78                     u1331:
  2028  007F78  EFBF  F03F         	goto	l1495
  2029  007F7C                     u1330:
  2030  007F7C  2A36               	incf	___fladd@bexp^0,f,c
  2031  007F7E                     l1495:
  2032  007F7E  2836               	incf	___fladd@bexp^0,w,c
  2033  007F80  B4D8               	btfsc	status,2,c
  2034  007F82  EFC5  F03F         	goto	u1341
  2035  007F86  EFC7  F03F         	goto	u1340
  2036  007F8A                     u1341:
  2037  007F8A  EFCF  F03F         	goto	l1499
  2038  007F8E                     u1340:
  2039  007F8E  5036               	movf	___fladd@bexp^0,w,c
  2040  007F90  A4D8               	btfss	status,2,c
  2041  007F92  EFCD  F03F         	goto	u1351
  2042  007F96  EFCF  F03F         	goto	u1350
  2043  007F9A                     u1351:
  2044  007F9A  EFE1  F03F         	goto	l1503
  2045  007F9E                     u1350:
  2046  007F9E                     l1499:
  2047  007F9E  0E00               	movlw	0
  2048  007FA0  6E28               	movwf	___fladd@b^0,c
  2049  007FA2  0E00               	movlw	0
  2050  007FA4  6E29               	movwf	(___fladd@b+1)^0,c
  2051  007FA6  0E00               	movlw	0
  2052  007FA8  6E2A               	movwf	(___fladd@b+2)^0,c
  2053  007FAA  0E00               	movlw	0
  2054  007FAC  6E2B               	movwf	(___fladd@b+3)^0,c
  2055  007FAE  5036               	movf	___fladd@bexp^0,w,c
  2056  007FB0  A4D8               	btfss	status,2,c
  2057  007FB2  EFDD  F03F         	goto	u1361
  2058  007FB6  EFDF  F03F         	goto	u1360
  2059  007FBA                     u1361:
  2060  007FBA  EFE1  F03F         	goto	l1503
  2061  007FBE                     u1360:
  2062  007FBE  0E00               	movlw	0
  2063  007FC0  6E34               	movwf	___fladd@signs^0,c
  2064  007FC2                     l1503:
  2065  007FC2  A036               	btfss	___fladd@bexp^0,0,c
  2066  007FC4  EFE6  F03F         	goto	u1371
  2067  007FC8  EFE8  F03F         	goto	u1370
  2068  007FCC                     u1371:
  2069  007FCC  EFEB  F03F         	goto	l1507
  2070  007FD0                     u1370:
  2071  007FD0  8E2A               	bsf	(___fladd@b+2)^0,7,c
  2072  007FD2  EFEC  F03F         	goto	l1509
  2073  007FD6                     l1507:
  2074  007FD6  9E2A               	bcf	(___fladd@b+2)^0,7,c
  2075  007FD8                     l1509:
  2076  007FD8  90D8               	bcf	status,0,c
  2077  007FDA  3036               	rrcf	___fladd@bexp^0,w,c
  2078  007FDC  6E2B               	movwf	(___fladd@b+3)^0,c
  2079  007FDE  AE34               	btfss	___fladd@signs^0,7,c
  2080  007FE0  EFF4  F03F         	goto	u1381
  2081  007FE4  EFF6  F03F         	goto	u1380
  2082  007FE8                     u1381:
  2083  007FE8  EFF7  F03F         	goto	l1515
  2084  007FEC                     u1380:
  2085  007FEC  8E2B               	bsf	(___fladd@b+3)^0,7,c
  2086  007FEE                     l1515:
  2087  007FEE  C028  F028         	movff	___fladd@b,?___fladd
  2088  007FF2  C029  F029         	movff	___fladd@b+1,?___fladd+1
  2089  007FF6  C02A  F02A         	movff	___fladd@b+2,?___fladd+2
  2090  007FFA  C02B  F02B         	movff	___fladd@b+3,?___fladd+3
  2091  007FFE                     l633:
  2092  007FFE  0012               	return		;funcret
  2093  008000                     __end_of___fladd:
  2094                           	callstack 0
  2095                           
  2096 ;; *************** function _Keypad_Init *****************
  2097 ;; Defined at:
  2098 ;;		line 23 in file "./keypad.h"
  2099 ;; Parameters:    Size  Location     Type
  2100 ;;		None
  2101 ;; Auto vars:     Size  Location     Type
  2102 ;;		None
  2103 ;; Return value:  Size  Location     Type
  2104 ;;                  1    wreg      void 
  2105 ;; Registers used:
  2106 ;;		wreg, status,2
  2107 ;; Tracked objects:
  2108 ;;		On entry : 0/0
  2109 ;;		On exit  : 0/0
  2110 ;;		Unchanged: 0/0
  2111 ;; Data sizes:     COMRAM   BANK0   BANK1   BANK2   BANK3   BANK4   BANK5   BANK6   BANK7
  2112 ;;      Params:         0       0       0       0       0       0       0       0       0
  2113 ;;      Locals:         0       0       0       0       0       0       0       0       0
  2114 ;;      Temps:          0       0       0       0       0       0       0       0       0
  2115 ;;      Totals:         0       0       0       0       0       0       0       0       0
  2116 ;;Total ram usage:        0 bytes
  2117 ;; Hardware stack levels used: 1
  2118 ;; This function calls:
  2119 ;;		Nothing
  2120 ;; This function is called by:
  2121 ;;		_main
  2122 ;; This function uses a non-reentrant model
  2123 ;;
  2124                           
  2125                           	psect	text7
  2126  00722A                     __ptext7:
  2127                           	callstack 0
  2128  00722A                     _Keypad_Init:
  2129                           	callstack 30
  2130  00722A                     
  2131                           ;./keypad.h: 24:     TRISD = 0x0F;
  2132  00722A  0E0F               	movlw	15
  2133  00722C  6E95               	movwf	149,c	;volatile
  2134  00722E  0012               	return		;funcret
  2135  007230                     __end_of_Keypad_Init:
  2136                           	callstack 0
  2137                           
  2138 ;; *************** function _Key_Press *****************
  2139 ;; Defined at:
  2140 ;;		line 27 in file "./keypad.h"
  2141 ;; Parameters:    Size  Location     Type
  2142 ;;		None
  2143 ;; Auto vars:     Size  Location     Type
  2144 ;;  Key             1    0[COMRAM] unsigned char 
  2145 ;; Return value:  Size  Location     Type
  2146 ;;                  1    wreg      unsigned char 
  2147 ;; Registers used:
  2148 ;;		wreg, status,2
  2149 ;; Tracked objects:
  2150 ;;		On entry : 0/0
  2151 ;;		On exit  : 0/0
  2152 ;;		Unchanged: 0/0
  2153 ;; Data sizes:     COMRAM   BANK0   BANK1   BANK2   BANK3   BANK4   BANK5   BANK6   BANK7
  2154 ;;      Params:         0       0       0       0       0       0       0       0       0
  2155 ;;      Locals:         1       0       0       0       0       0       0       0       0
  2156 ;;      Temps:          0       0       0       0       0       0       0       0       0
  2157 ;;      Totals:         1       0       0       0       0       0       0       0       0
  2158 ;;Total ram usage:        1 bytes
  2159 ;; Hardware stack levels used: 1
  2160 ;; This function calls:
  2161 ;;		Nothing
  2162 ;; This function is called by:
  2163 ;;		_main
  2164 ;; This function uses a non-reentrant model
  2165 ;;
  2166                           
  2167                           	psect	text8
  2168  007400                     __ptext8:
  2169                           	callstack 0
  2170  007400                     _Key_Press:
  2171                           	callstack 30
  2172  007400                     
  2173                           ;./keypad.h: 28:     char Key=0;
  2174  007400  0E00               	movlw	0
  2175  007402  6E01               	movwf	Key_Press@Key^0,c
  2176                           
  2177                           ;./keypad.h: 29:     PORTD = 0b00010000;
  2178  007404  0E10               	movlw	16
  2179  007406  6E83               	movwf	131,c	;volatile
  2180  007408                     
  2181                           ;./keypad.h: 30:     if(PORTDbits.RD0){
  2182  007408  A083               	btfss	131,0,c	;volatile
  2183  00740A  EF09  F03A         	goto	u801
  2184  00740E  EF0B  F03A         	goto	u800
  2185  007412                     u801:
  2186  007412  EF0D  F03A         	goto	l1207
  2187  007416                     u800:
  2188  007416                     
  2189                           ;./keypad.h: 31:         Key=1;
  2190  007416  0E01               	movlw	1
  2191  007418  6E01               	movwf	Key_Press@Key^0,c
  2192  00741A                     l1207:
  2193                           
  2194                           ;./keypad.h: 33:     if(PORTDbits.RD1){
  2195  00741A  A283               	btfss	131,1,c	;volatile
  2196  00741C  EF12  F03A         	goto	u811
  2197  007420  EF14  F03A         	goto	u810
  2198  007424                     u811:
  2199  007424  EF16  F03A         	goto	l1211
  2200  007428                     u810:
  2201  007428                     
  2202                           ;./keypad.h: 34:         Key=4;
  2203  007428  0E04               	movlw	4
  2204  00742A  6E01               	movwf	Key_Press@Key^0,c
  2205  00742C                     l1211:
  2206                           
  2207                           ;./keypad.h: 36:     if(PORTDbits.RD2){
  2208  00742C  A483               	btfss	131,2,c	;volatile
  2209  00742E  EF1B  F03A         	goto	u821
  2210  007432  EF1D  F03A         	goto	u820
  2211  007436                     u821:
  2212  007436  EF1F  F03A         	goto	l1215
  2213  00743A                     u820:
  2214  00743A                     
  2215                           ;./keypad.h: 37:         Key=7;
  2216  00743A  0E07               	movlw	7
  2217  00743C  6E01               	movwf	Key_Press@Key^0,c
  2218  00743E                     l1215:
  2219                           
  2220                           ;./keypad.h: 39:     if(PORTDbits.RD3){
  2221  00743E  A683               	btfss	131,3,c	;volatile
  2222  007440  EF24  F03A         	goto	u831
  2223  007444  EF26  F03A         	goto	u830
  2224  007448                     u831:
  2225  007448  EF28  F03A         	goto	l27
  2226  00744C                     u830:
  2227  00744C                     
  2228                           ;./keypad.h: 40:         Key='*';
  2229  00744C  0E2A               	movlw	42
  2230  00744E  6E01               	movwf	Key_Press@Key^0,c
  2231  007450                     l27:
  2232                           
  2233                           ;./keypad.h: 43:     PORTD = 0b00100000;
  2234  007450  0E20               	movlw	32
  2235  007452  6E83               	movwf	131,c	;volatile
  2236  007454                     
  2237                           ;./keypad.h: 44:     if(PORTDbits.RD0){
  2238  007454  A083               	btfss	131,0,c	;volatile
  2239  007456  EF2F  F03A         	goto	u841
  2240  00745A  EF31  F03A         	goto	u840
  2241  00745E                     u841:
  2242  00745E  EF33  F03A         	goto	l1223
  2243  007462                     u840:
  2244  007462                     
  2245                           ;./keypad.h: 45:         Key=2;
  2246  007462  0E02               	movlw	2
  2247  007464  6E01               	movwf	Key_Press@Key^0,c
  2248  007466                     l1223:
  2249                           
  2250                           ;./keypad.h: 47:     if(PORTDbits.RD1){
  2251  007466  A283               	btfss	131,1,c	;volatile
  2252  007468  EF38  F03A         	goto	u851
  2253  00746C  EF3A  F03A         	goto	u850
  2254  007470                     u851:
  2255  007470  EF3C  F03A         	goto	l1227
  2256  007474                     u850:
  2257  007474                     
  2258                           ;./keypad.h: 48:         Key=5;
  2259  007474  0E05               	movlw	5
  2260  007476  6E01               	movwf	Key_Press@Key^0,c
  2261  007478                     l1227:
  2262                           
  2263                           ;./keypad.h: 50:     if(PORTDbits.RD2){
  2264  007478  A483               	btfss	131,2,c	;volatile
  2265  00747A  EF41  F03A         	goto	u861
  2266  00747E  EF43  F03A         	goto	u860
  2267  007482                     u861:
  2268  007482  EF45  F03A         	goto	l1231
  2269  007486                     u860:
  2270  007486                     
  2271                           ;./keypad.h: 51:         Key=8;
  2272  007486  0E08               	movlw	8
  2273  007488  6E01               	movwf	Key_Press@Key^0,c
  2274  00748A                     l1231:
  2275                           
  2276                           ;./keypad.h: 53:     if(PORTDbits.RD3){
  2277  00748A  A683               	btfss	131,3,c	;volatile
  2278  00748C  EF4A  F03A         	goto	u871
  2279  007490  EF4C  F03A         	goto	u870
  2280  007494                     u871:
  2281  007494  EF4E  F03A         	goto	l31
  2282  007498                     u870:
  2283  007498                     
  2284                           ;./keypad.h: 54:         Key=0;
  2285  007498  0E00               	movlw	0
  2286  00749A  6E01               	movwf	Key_Press@Key^0,c
  2287  00749C                     l31:
  2288                           
  2289                           ;./keypad.h: 57:     PORTD = 0b01000000;
  2290  00749C  0E40               	movlw	64
  2291  00749E  6E83               	movwf	131,c	;volatile
  2292  0074A0                     
  2293                           ;./keypad.h: 58:     if(PORTDbits.RD0){
  2294  0074A0  A083               	btfss	131,0,c	;volatile
  2295  0074A2  EF55  F03A         	goto	u881
  2296  0074A6  EF57  F03A         	goto	u880
  2297  0074AA                     u881:
  2298  0074AA  EF59  F03A         	goto	l1239
  2299  0074AE                     u880:
  2300  0074AE                     
  2301                           ;./keypad.h: 59:         Key=3;
  2302  0074AE  0E03               	movlw	3
  2303  0074B0  6E01               	movwf	Key_Press@Key^0,c
  2304  0074B2                     l1239:
  2305                           
  2306                           ;./keypad.h: 61:     if(PORTDbits.RD1){
  2307  0074B2  A283               	btfss	131,1,c	;volatile
  2308  0074B4  EF5E  F03A         	goto	u891
  2309  0074B8  EF60  F03A         	goto	u890
  2310  0074BC                     u891:
  2311  0074BC  EF62  F03A         	goto	l1243
  2312  0074C0                     u890:
  2313  0074C0                     
  2314                           ;./keypad.h: 62:         Key=6;
  2315  0074C0  0E06               	movlw	6
  2316  0074C2  6E01               	movwf	Key_Press@Key^0,c
  2317  0074C4                     l1243:
  2318                           
  2319                           ;./keypad.h: 64:     if(PORTDbits.RD2){
  2320  0074C4  A483               	btfss	131,2,c	;volatile
  2321  0074C6  EF67  F03A         	goto	u901
  2322  0074CA  EF69  F03A         	goto	u900
  2323  0074CE                     u901:
  2324  0074CE  EF6B  F03A         	goto	l1247
  2325  0074D2                     u900:
  2326  0074D2                     
  2327                           ;./keypad.h: 65:         Key=9;
  2328  0074D2  0E09               	movlw	9
  2329  0074D4  6E01               	movwf	Key_Press@Key^0,c
  2330  0074D6                     l1247:
  2331                           
  2332                           ;./keypad.h: 67:     if(PORTDbits.RD3){
  2333  0074D6  A683               	btfss	131,3,c	;volatile
  2334  0074D8  EF70  F03A         	goto	u911
  2335  0074DC  EF72  F03A         	goto	u910
  2336  0074E0                     u911:
  2337  0074E0  EF74  F03A         	goto	l35
  2338  0074E4                     u910:
  2339  0074E4                     
  2340                           ;./keypad.h: 68:         Key='#';
  2341  0074E4  0E23               	movlw	35
  2342  0074E6  6E01               	movwf	Key_Press@Key^0,c
  2343  0074E8                     l35:
  2344                           
  2345                           ;./keypad.h: 71:     return Key;
  2346  0074E8  5001               	movf	Key_Press@Key^0,w,c
  2347  0074EA  0012               	return		;funcret
  2348  0074EC                     __end_of_Key_Press:
  2349                           	callstack 0
  2350  0000                     
  2351                           	psect	rparam
  2352  0000                     
  2353                           	psect	idloc
  2354                           
  2355                           ;Config register IDLOC0 @ 0x200000
  2356                           ;	unspecified, using default values
  2357  200000                     	org	2097152
  2358  200000  FF                 	db	255
  2359                           
  2360                           ;Config register IDLOC1 @ 0x200001
  2361                           ;	unspecified, using default values
  2362  200001                     	org	2097153
  2363  200001  FF                 	db	255
  2364                           
  2365                           ;Config register IDLOC2 @ 0x200002
  2366                           ;	unspecified, using default values
  2367  200002                     	org	2097154
  2368  200002  FF                 	db	255
  2369                           
  2370                           ;Config register IDLOC3 @ 0x200003
  2371                           ;	unspecified, using default values
  2372  200003                     	org	2097155
  2373  200003  FF                 	db	255
  2374                           
  2375                           ;Config register IDLOC4 @ 0x200004
  2376                           ;	unspecified, using default values
  2377  200004                     	org	2097156
  2378  200004  FF                 	db	255
  2379                           
  2380                           ;Config register IDLOC5 @ 0x200005
  2381                           ;	unspecified, using default values
  2382  200005                     	org	2097157
  2383  200005  FF                 	db	255
  2384                           
  2385                           ;Config register IDLOC6 @ 0x200006
  2386                           ;	unspecified, using default values
  2387  200006                     	org	2097158
  2388  200006  FF                 	db	255
  2389                           
  2390                           ;Config register IDLOC7 @ 0x200007
  2391                           ;	unspecified, using default values
  2392  200007                     	org	2097159
  2393  200007  FF                 	db	255
  2394                           
  2395                           	psect	config
  2396                           
  2397                           ;Config register CONFIG1L @ 0x300000
  2398                           ;	PLL Prescaler Selection bits
  2399                           ;	PLLDIV = 1, No prescale (4 MHz oscillator input drives PLL directly)
  2400                           ;	System Clock Postscaler Selection bits
  2401                           ;	CPUDIV = OSC1_PLL2, [Primary Oscillator Src: /1][96 MHz PLL Src: /2]
  2402                           ;	USB Clock Selection bit (used in Full-Speed USB mode only; UCFG:FSEN = 1)
  2403                           ;	USBDIV = 1, USB clock source comes directly from the primary oscillator block with no 
      +                          postscale
  2404  300000                     	org	3145728
  2405  300000  00                 	db	0
  2406                           
  2407                           ;Config register CONFIG1H @ 0x300001
  2408                           ;	Oscillator Selection bits
  2409                           ;	FOSC = INTOSC_EC, Internal oscillator, CLKO function on RA6, EC used by USB (INTCKO)
  2410                           ;	Fail-Safe Clock Monitor Enable bit
  2411                           ;	FCMEN = OFF, Fail-Safe Clock Monitor disabled
  2412                           ;	Internal/External Oscillator Switchover bit
  2413                           ;	IESO = OFF, Oscillator Switchover mode disabled
  2414  300001                     	org	3145729
  2415  300001  09                 	db	9
  2416                           
  2417                           ;Config register CONFIG2L @ 0x300002
  2418                           ;	Power-up Timer Enable bit
  2419                           ;	PWRT = OFF, PWRT disabled
  2420                           ;	Brown-out Reset Enable bits
  2421                           ;	BOR = ON, Brown-out Reset enabled in hardware only (SBOREN is disabled)
  2422                           ;	Brown-out Reset Voltage bits
  2423                           ;	BORV = 3, Minimum setting 2.05V
  2424                           ;	USB Voltage Regulator Enable bit
  2425                           ;	VREGEN = OFF, USB voltage regulator disabled
  2426  300002                     	org	3145730
  2427  300002  1F                 	db	31
  2428                           
  2429                           ;Config register CONFIG2H @ 0x300003
  2430                           ;	Watchdog Timer Enable bit
  2431                           ;	WDT = OFF, WDT disabled (control is placed on the SWDTEN bit)
  2432                           ;	Watchdog Timer Postscale Select bits
  2433                           ;	WDTPS = 32768, 1:32768
  2434  300003                     	org	3145731
  2435  300003  1E                 	db	30
  2436                           
  2437                           ; Padding undefined space
  2438  300004                     	org	3145732
  2439  300004  FF                 	db	255
  2440                           
  2441                           ;Config register CONFIG3H @ 0x300005
  2442                           ;	CCP2 MUX bit
  2443                           ;	CCP2MX = ON, CCP2 input/output is multiplexed with RC1
  2444                           ;	PORTB A/D Enable bit
  2445                           ;	PBADEN = OFF, PORTB<4:0> pins are configured as digital I/O on Reset
  2446                           ;	Low-Power Timer 1 Oscillator Enable bit
  2447                           ;	LPT1OSC = OFF, Timer1 configured for higher power operation
  2448                           ;	MCLR Pin Enable bit
  2449                           ;	MCLRE = ON, MCLR pin enabled; RE3 input pin disabled
  2450  300005                     	org	3145733
  2451  300005  81                 	db	129
  2452                           
  2453                           ;Config register CONFIG4L @ 0x300006
  2454                           ;	Stack Full/Underflow Reset Enable bit
  2455                           ;	STVREN = ON, Stack full/underflow will cause Reset
  2456                           ;	Single-Supply ICSP Enable bit
  2457                           ;	LVP = OFF, Single-Supply ICSP disabled
  2458                           ;	Dedicated In-Circuit Debug/Programming Port (ICPORT) Enable bit
  2459                           ;	ICPRT = OFF, ICPORT disabled
  2460                           ;	Extended Instruction Set Enable bit
  2461                           ;	XINST = OFF, Instruction set extension and Indexed Addressing mode disabled (Legacy mo
      +                          de)
  2462                           ;	Background Debugger Enable bit
  2463                           ;	DEBUG = 0x1, unprogrammed default
  2464  300006                     	org	3145734
  2465  300006  81                 	db	129
  2466                           
  2467                           ; Padding undefined space
  2468  300007                     	org	3145735
  2469  300007  FF                 	db	255
  2470                           
  2471                           ;Config register CONFIG5L @ 0x300008
  2472                           ;	Code Protection bit
  2473                           ;	CP0 = OFF, Block 0 (000800-001FFFh) is not code-protected
  2474                           ;	Code Protection bit
  2475                           ;	CP1 = OFF, Block 1 (002000-003FFFh) is not code-protected
  2476                           ;	Code Protection bit
  2477                           ;	CP2 = OFF, Block 2 (004000-005FFFh) is not code-protected
  2478                           ;	Code Protection bit
  2479                           ;	CP3 = OFF, Block 3 (006000-007FFFh) is not code-protected
  2480  300008                     	org	3145736
  2481  300008  0F                 	db	15
  2482                           
  2483                           ;Config register CONFIG5H @ 0x300009
  2484                           ;	Boot Block Code Protection bit
  2485                           ;	CPB = OFF, Boot block (000000-0007FFh) is not code-protected
  2486                           ;	Data EEPROM Code Protection bit
  2487                           ;	CPD = OFF, Data EEPROM is not code-protected
  2488  300009                     	org	3145737
  2489  300009  C0                 	db	192
  2490                           
  2491                           ;Config register CONFIG6L @ 0x30000A
  2492                           ;	Write Protection bit
  2493                           ;	WRT0 = OFF, Block 0 (000800-001FFFh) is not write-protected
  2494                           ;	Write Protection bit
  2495                           ;	WRT1 = OFF, Block 1 (002000-003FFFh) is not write-protected
  2496                           ;	Write Protection bit
  2497                           ;	WRT2 = OFF, Block 2 (004000-005FFFh) is not write-protected
  2498                           ;	Write Protection bit
  2499                           ;	WRT3 = OFF, Block 3 (006000-007FFFh) is not write-protected
  2500  30000A                     	org	3145738
  2501  30000A  0F                 	db	15
  2502                           
  2503                           ;Config register CONFIG6H @ 0x30000B
  2504                           ;	Configuration Register Write Protection bit
  2505                           ;	WRTC = OFF, Configuration registers (300000-3000FFh) are not write-protected
  2506                           ;	Boot Block Write Protection bit
  2507                           ;	WRTB = OFF, Boot block (000000-0007FFh) is not write-protected
  2508                           ;	Data EEPROM Write Protection bit
  2509                           ;	WRTD = OFF, Data EEPROM is not write-protected
  2510  30000B                     	org	3145739
  2511  30000B  E0                 	db	224
  2512                           
  2513                           ;Config register CONFIG7L @ 0x30000C
  2514                           ;	Table Read Protection bit
  2515                           ;	EBTR0 = OFF, Block 0 (000800-001FFFh) is not protected from table reads executed in ot
      +                          her blocks
  2516                           ;	Table Read Protection bit
  2517                           ;	EBTR1 = OFF, Block 1 (002000-003FFFh) is not protected from table reads executed in ot
      +                          her blocks
  2518                           ;	Table Read Protection bit
  2519                           ;	EBTR2 = OFF, Block 2 (004000-005FFFh) is not protected from table reads executed in ot
      +                          her blocks
  2520                           ;	Table Read Protection bit
  2521                           ;	EBTR3 = OFF, Block 3 (006000-007FFFh) is not protected from table reads executed in ot
      +                          her blocks
  2522  30000C                     	org	3145740
  2523  30000C  0F                 	db	15
  2524                           
  2525                           ;Config register CONFIG7H @ 0x30000D
  2526                           ;	Boot Block Table Read Protection bit
  2527                           ;	EBTRB = OFF, Boot block (000000-0007FFh) is not protected from table reads executed in
      +                           other blocks
  2528  30000D                     	org	3145741
  2529  30000D  40                 	db	64
  2530                           tosu	equ	0xFFF
  2531                           tosh	equ	0xFFE
  2532                           tosl	equ	0xFFD
  2533                           stkptr	equ	0xFFC
  2534                           pclatu	equ	0xFFB
  2535                           pclath	equ	0xFFA
  2536                           pcl	equ	0xFF9
  2537                           tblptru	equ	0xFF8
  2538                           tblptrh	equ	0xFF7
  2539                           tblptrl	equ	0xFF6
  2540                           tablat	equ	0xFF5
  2541                           prodh	equ	0xFF4
  2542                           prodl	equ	0xFF3
  2543                           indf0	equ	0xFEF
  2544                           postinc0	equ	0xFEE
  2545                           postdec0	equ	0xFED
  2546                           preinc0	equ	0xFEC
  2547                           plusw0	equ	0xFEB
  2548                           fsr0h	equ	0xFEA
  2549                           fsr0l	equ	0xFE9
  2550                           wreg	equ	0xFE8
  2551                           indf1	equ	0xFE7
  2552                           postinc1	equ	0xFE6
  2553                           postdec1	equ	0xFE5
  2554                           preinc1	equ	0xFE4
  2555                           plusw1	equ	0xFE3
  2556                           fsr1h	equ	0xFE2
  2557                           fsr1l	equ	0xFE1
  2558                           bsr	equ	0xFE0
  2559                           indf2	equ	0xFDF
  2560                           postinc2	equ	0xFDE
  2561                           postdec2	equ	0xFDD
  2562                           preinc2	equ	0xFDC
  2563                           plusw2	equ	0xFDB
  2564                           fsr2h	equ	0xFDA
  2565                           fsr2l	equ	0xFD9
  2566                           status	equ	0xFD8

Data Sizes:
    Strings     0
    Constant    0
    Data        0
    BSS         0
    Persistent  0
    Stack       0

Auto Spaces:
    Space          Size  Autos    Used
    COMRAM           95     71      71
    BANK0           160      0       0
    BANK1           256      0       0
    BANK2           256      0       0
    BANK3           256      0       0
    BANK4           256      0       0
    BANK5           256      0       0
    BANK6           256      0       0
    BANK7           256      0       0

Pointer List with Targets:

    None.

Critical Paths under _main in COMRAM

    _main->_USART_Init
    _USART_Init->___fltol
    ___fltol->___fladd
    ___fldiv->___xxtofl
    ___fladd->___fldiv

Critical Paths under _main in BANK0

    None.

Critical Paths under _main in BANK1

    None.

Critical Paths under _main in BANK2

    None.

Critical Paths under _main in BANK3

    None.

Critical Paths under _main in BANK4

    None.

Critical Paths under _main in BANK5

    None.

Critical Paths under _main in BANK6

    None.

Critical Paths under _main in BANK7

    None.

Call Graph Tables:

 ---------------------------------------------------------------------------------
 (Depth) Function   	        Calls       Base Space   Used Autos Params    Refs
 ---------------------------------------------------------------------------------
 (0) _main                                                 2     2      0    5137
                                             69 COMRAM     2     2      0
                          _Key_Press
                        _Keypad_Init
                         _USART_Init
                       _USART_TxChar
 ---------------------------------------------------------------------------------
 (1) _USART_TxChar                                         1     1      0      15
                                              0 COMRAM     1     1      0
 ---------------------------------------------------------------------------------
 (1) _USART_Init                                           8     4      4    4991
                                             65 COMRAM     4     0      4
                            ___fladd
                            ___fldiv
                            ___fltol
                           ___xxtofl
 ---------------------------------------------------------------------------------
 (2) ___xxtofl                                            14    10      4     474
                                              0 COMRAM    14    10      4
 ---------------------------------------------------------------------------------
 (2) ___fltol                                             10     6      4     305
                                             55 COMRAM    10     6      4
                            ___fladd (ARG)
                            ___fldiv (ARG)
                           ___xxtofl (ARG)
 ---------------------------------------------------------------------------------
 (2) ___fldiv                                             25    17      8    1551
                                             14 COMRAM    25    17      8
                           ___xxtofl (ARG)
 ---------------------------------------------------------------------------------
 (2) ___fladd                                             16     8      8    2540
                                             39 COMRAM    16     8      8
                            ___fldiv (ARG)
                           ___xxtofl (ARG)
 ---------------------------------------------------------------------------------
 (1) _Keypad_Init                                          0     0      0       0
 ---------------------------------------------------------------------------------
 (1) _Key_Press                                            1     1      0      15
                                              0 COMRAM     1     1      0
 ---------------------------------------------------------------------------------
 Estimated maximum stack depth 2
 ---------------------------------------------------------------------------------

 Call Graph Graphs:

 _main (ROOT)
   _Key_Press
   _Keypad_Init
   _USART_Init
     ___fladd
       ___fldiv (ARG)
         ___xxtofl (ARG)
       ___xxtofl (ARG)
     ___fldiv
     ___fltol
       ___fladd (ARG)
       ___fldiv (ARG)
       ___xxtofl (ARG)
     ___xxtofl
   _USART_TxChar

 Address spaces:
Name               Size   Autos  Total    Cost      Usage
BITCOMRAM           5F      0       0       0        0.0%
EEDATA             100      0       0       0        0.0%
NULL                 0      0       0       0        0.0%
CODE                 0      0       0       0        0.0%
COMRAM              5F     47      47       1       74.7%
STACK                0      0       0       2        0.0%
DATA                 0      0       0       3        0.0%
BITBANK0            A0      0       0       4        0.0%
BANK0               A0      0       0       5        0.0%
BITBANK1           100      0       0       6        0.0%
BANK1              100      0       0       7        0.0%
BITBANK2           100      0       0       8        0.0%
BANK2              100      0       0       9        0.0%
BITBANK3           100      0       0      10        0.0%
BANK3              100      0       0      11        0.0%
BITBANK4           100      0       0      12        0.0%
BANK4              100      0       0      13        0.0%
BITBANK5           100      0       0      14        0.0%
BANK5              100      0       0      15        0.0%
BITBANK6           100      0       0      16        0.0%
BANK6              100      0       0      17        0.0%
BITBANK7           100      0       0      18        0.0%
BANK7              100      0       0      19        0.0%
BITBIGSFRhh         2C      0       0      20        0.0%
BITBIGSFRhlh        11      0       0      21        0.0%
BITBIGSFRhllh       11      0       0      22        0.0%
BITBIGSFRhllllh      C      0       0      23        0.0%
BITBIGSFRhlllll      8      0       0      24        0.0%
BITBIGSFRlhl         F      0       0      25        0.0%
BITBIGSFRllh         1      0       0      26        0.0%
BITBIGSFRlll        21      0       0      27        0.0%
ABS                  0      0       0      28        0.0%
BIGRAM             7FF      0       0      29        0.0%
BIGSFR               0      0       0     200        0.0%
BITSFR               0      0       0     200        0.0%
SFR                  0      0       0     200        0.0%


Microchip Technology PIC18 Macro Assembler V2.36 build 20220127204148 
Symbol Table                                                                                   Fri Mar 11 14:16:03 2022

           ___fldiv@aexp 0027             ___fldiv@bexp 0026             ___fldiv@sign 001F  
                     l21 722E                       l31 749C                       l50 7314  
                     l35 74E8                       l27 7450                       l36 74EA  
                     l81 724A                       l75 73FE                       l78 7238  
                    l624 7D2E                      l641 7E48                      l633 7FFE  
                    l625 7D1C                      l393 75F0                      l650 7F18  
                    l626 7CE2                      l651 7F06                      l751 7648  
                    l680 799E                      l754 77A4                      l691 7A5C  
                    l683 7962                      l692 7A4A                      l765 773C  
                    l678 7B3E                      l758 76E0                      l689 79E4  
                    u800 7416                      u801 7412                      u810 7428  
                    u811 7424                      u900 74D2                      u820 743A  
                    u901 74CE                      u821 7436                      u910 74E4  
                    u830 744C                      u911 74E0                      u831 7448  
                    u840 7462                      u920 7246                      u841 745E  
                    u921 7242                      u850 7474                      u851 7470  
                    u860 7486                      u861 7482                      u870 7498  
                    u871 7494                      u880 74AE                      u881 74AA  
                    u890 74C0                      u891 74BC                      wreg 000FE8  
           ___fltol@exp1 0041                     l1201 7400                     l1211 742C  
                   l1203 7408                     l1221 7462                     l1213 743A  
                   l1205 7416                     l1231 748A                     l1223 7466  
                   l1215 743E                     l1207 741A                     l1241 74C0  
                   l1233 7498                     l1225 7474                     l1217 744C  
                   l1209 7428                     l1401 7CCA                     l1321 7B5A  
                   l1243 74C4                     l1235 74A0                     l1227 7478  
                   l1219 7454                     l1411 7D0E                     l1403 7CDA  
                   l1331 7B8E                     l1323 7B5C                     l1245 74D2  
                   l1237 74AE                     l1229 7486                     l1501 7FBE  
                   l1413 7D10                     l1405 7CF0                     l1341 7BC0  
                   l1325 7B6C                     l1333 7B96                     l1317 7B40  
                   l1261 7238                     l1247 74D6                     l1239 74B2  
                   l1511 7FDE                     l1503 7FC2                     l1431 7D98  
                   l1423 7D60                     l1415 7D1A                     l1407 7CFC  
                   l1351 7BF6                     l1343 7BC6                     l1335 7BA6  
                   l1327 7B7C                     l1319 7B4C                     l1263 7246  
                   l1249 74E4                     l1513 7FEC                     l1505 7FD0  
                   l1433 7D9C                     l1425 7D70                     l1417 7D3C  
                   l1441 7DBC                     l1409 7D00                     l1361 7C32  
                   l1353 7C06                     l1345 7BD4                     l1337 7BAC  
                   l1329 7B8C                     l1601 799C                     l1521 77B2  
                   l1515 7FEE                     l1507 7FD6                     l1443 7DE2  
                   l1451 7E38                     l1435 7DAA                     l1427 7D7E  
                   l1419 7D4C                     l1371 7C50                     l1363 7C40  
                   l1355 7C08                     l1347 7BD6                     l1339 7BBE  
                   l1611 79E2                     l1603 79AE                     l1531 77F2  
                   l1523 77C0                     l1509 7FD8                     l1461 7E8C  
                   l1453 7E5E                     l1445 7E16                     l1437 7DAC  
                   l1429 7D8C                     l1381 7C64                     l1373 7C54  
                   l1365 7C44                     l1349 7BE6                     l1357 7C10  
                   l1621 7A42                     l1605 79C4                     l1613 79F4  
                   l1541 7818                     l1533 77F4                     l1525 77C2  
                   l1701 75F4                     l1199 722A                     l1471 7EB6  
                   l1463 7E9A                     l1455 7E6E                     l1447 7E18  
                   l1439 7DB6                     l1391 7C78                     l1383 7C68  
                   l1375 7C58                     l1367 7C48                     l1359 7C20  
                   l1631 7AB0                     l1615 7A02                     l1607 79CA  
                   l1551 7858                     l1543 7826                     l1527 77D2  
                   l1535 77FC                     l1519 77A6                     l1703 7604  
                   l1481 7EE8                     l1473 7EC6                     l1465 7E9C  
                   l1449 7E28                     l1393 7C7C                     l1385 7C6C  
                   l1377 7C5C                     l1369 7C4C                     l1641 7B1A  
                   l1625 7A6C                     l1633 7AB4                     l1617 7A06  
                   l1609 79D4                     l1561 7898                     l1553 785A  
                   l1545 7828                     l1537 780C                     l1529 77E2  
                   l1721 76CA                     l1713 7682                     l1705 7612  
                   l1491 7F42                     l1483 7EFE                     l1467 7EAA  
                   l1459 7E82                     l1475 7EC8                     l1387 7C70  
                   l1379 7C60                     l1395 7C80                     l1643 7B1E  
                   l1635 7ACE                     l1627 7A78                     l1619 7A14  
                   l1571 78C8                     l1563 78A0                     l1547 7838  
                   l1555 7862                     l1539 7812                     l1731 774A  
                   l1723 76D6                     l1715 768A                     l1707 7658  
                   l1493 7F7C                     l1469 7EB2                     l1477 7ED6  
                   l1397 7C84                     l1389 7C74                     l1645 7B2C  
                   l1637 7AE4                     l1629 7A86                     l1581 7906  
                   l1573 78C8                     l1565 78A4                     l1557 7872  
                   l1549 7848                     l1741 7792                     l1733 774C  
                   l1725 7712                     l1717 7696                     l1709 766E  
                   l1487 7F28                     l1495 7F7E                     l1479 7EDA  
                   l1399 7CAE                     l1647 7B32                     l1639 7AFE  
                   l1591 7952                     l1583 7916                     l1559 7888  
                   l1671 7556                     l1663 7516                     l1743 7794  
                   l1735 7750                     l1727 771E                     l1719 76C8  
                   l1751 73F6                     l1497 7F8E                     l1489 7F34  
                   l1649 7B34                     l1593 7960                     l1585 7926  
                   l1577 78DC                     l1569 78B8                     l1681 7586  
                   l1673 7564                     l1665 7540                     l1657 74EC  
                   l1737 7774                     l1729 772C                     l1753 73FA  
                   l1761 7274                     l1499 7F9E                     l1595 796C  
                   l1587 792E                     l1579 78F6                     l1691 75B0  
                   l1683 7590                     l1667 7542                     l1659 7502  
                   l1739 7784                     l1747 731E                     l1771 72AA  
                   l1763 727A                     l1755 724C                     l1597 798A  
                   l1589 793E                     l1693 75C0                     l1669 7552  
                   l1749 7322                     l1781 72D8                     l1773 72AE  
                   l1765 728A                     l1757 725C                     l1599 798C  
                   l1695 75D0                     l1679 757C                     l1791 730E  
                   l1783 72EA                     l1775 72B8                     l1767 728E  
                   l1759 7270                     l1697 75E0                     l1689 75A4  
                   l1785 72EE                     l1777 72CA                     l1769 7298  
                   l1787 72F8                     l1779 72CE                     l1789 72FE  
                   u1000 7B5A                     u1001 7B56                     u1010 7B6C  
                   u1011 7B68                     u1100 7CC6                     u1020 7B7C  
                   u1101 7CC0                     u1021 7B78                     u1110 7CC8  
                   u1030 7BBE                     u1031 7BBA                     u1200 7DE2  
                   u1120 7CF0                     u1040 7BD4                     u1201 7DDE  
                   u1121 7CEC                     u1041 7BD0                     u1210 7E28  
                   u1130 7D0E                     u1050 7BE6                     u1211 7E24  
                   u1131 7D0A                     u1051 7BE2                     u1300 7F14  
                   u1220 7E5E                     u1140 7D2E                     u1060 7BF6  
                   u1301 7F10                     u1221 7E5A                     u1141 7D2A  
                   u1061 7BF2                     u1310 7F28                     u1230 7E6E  
                   u1150 7D3C                     u1070 7C32                     u1311 7F24  
                   u1231 7E6A                     u1151 7D38                     u1071 7C2E  
                   u1320 7F42                     u1240 7E9A                     u1160 7D4C  
                   u1080 7C40                     u1400 77D2                     u1321 7F3E  
                   u1241 7E96                     u1161 7D48                     u1081 7C3C  
                   u1401 77CE                     u1330 7F7C                     u1250 7EAA  
                   u1170 7D7E                     u1090 7CAE                     u1410 77E2  
                   u1331 7F78                     u1251 7EA6                     u1171 7D7A  
                   u1091 7CAA                     u1411 77DE                     u1340 7F8E  
                   u1260 7EC6                     u1180 7D8C                     u1500 79AE  
                   u1420 7826                     u1341 7F8A                     u1261 7EC2  
                   u1181 7D88                     u1501 79AA                     u1421 7822  
                   u1350 7F9E                     u1270 7ED6                     u1190 7DAA  
                   u1510 79C4                     u1430 7838                     u1351 7F9A  
                   u1271 7ED2                     u1191 7DA6                     u1511 79C0  
                   u1431 7834                     u1360 7FBE                     u1280 7EE8  
                   u1600 7AFE                     u1520 79E2                     u1440 7848  
                   u1361 7FBA                     u1281 7EE4                     u1601 7AFA  
                   u1521 79DE                     u1441 7844                     u1370 7FD0  
                   u1290 7EFE                     u1610 7B2C                     u1530 7A02  
                   u1450 7888                     u1371 7FCC                     u1291 7EFA  
                   u1611 7B28                     u1531 79FE                     u1451 7884  
                   u1380 7FEC                     u1540 7A14                     u1460 78C8  
                   u1620 7502                     u1700 7612                     u1381 7FE8  
                   u1541 7A10                     u1461 78C4                     u1621 74FE  
                   u1701 760E                     u1550 7A42                     u1470 793E  
                   u1390 77C0                     u1630 7536                     u1710 766E  
                   u1551 7A3E                     u1471 793A                     u1391 77BC  
                   u1711 766A                     u1560 7A58                     u1480 7960  
                   u1640 7564                     u1720 76C4                     u1800 72AA  
                   u1561 7A54                     u1481 795C                     u1641 7560  
                   u1721 76C0                     u1801 72A6                     u1570 7A6C  
                   u1490 798A                     u1650 7578                     u1730 770E  
                   u1810 72CA                     u1571 7A68                     u1491 7986  
                   u1651 7574                     u1635 752C                     u1731 770A  
                   u1811 72C6                     u1580 7A86                     u1660 75A0  
                   u1740 772C                     u1820 72EA                     u1581 7A82  
                   u1661 759C                     u1741 7728                     u1821 72E6  
                   u1590 7ACE                     u1670 75C0                     u1750 773C  
                   u1830 730E                     u1591 7ACA                     u1671 75BC  
                   u1751 7738                     u1831 730A                     u1680 75D0  
                   u1760 774A                     u1681 75CC                     u1761 7746  
                   u1770 7784                     u1690 7604                     u1771 7780  
                   u1691 7600                     u1780 7792                     u1781 778E  
                   u1790 728A                     u1791 7286                     _RCIF 007CF5  
                   _TXIF 007CF4                     _main 724C                     start 0000  
        ___fldiv@new_exp 0020             ___param_bank 000000            ___fltol@sign1 0040  
        __end_of___fladd 8000                    ?_main 0001          __end_of___fldiv 7B40  
        __end_of___fltol 75F2                    _RCREG 000FAE            ??_Keypad_Init 0001  
                  _RCSTA 000FAB                    _SPBRG 000FAF                    _PORTD 000F83  
                  _TRISB 000F93                    _TRISD 000F95             main@auxvalor 0046  
                  _TXREG 000FAD                    _TXSTA 000FAC                    status 000FD8  
            ?_USART_Init 0042          __initialization 7230             __end_of_main 731E  
           Key_Press@Key 0001                   ??_main 0046            __activetblptr 000000  
                 _ADCON1 000FC1      __end_of_Keypad_Init 7230                   _OSCCON 000FD3  
                 _TRISC6 007CA6                   _TRISC7 007CA7         __end_of___xxtofl 77A6  
              ??___fladd 0030                ??___fldiv 0017                ??___fltol 003C  
                 isa$std 000001             ___xxtofl@arg 000B             ___xxtofl@exp 000A  
           ___xxtofl@val 0001               __accesstop 0060  __end_of__initialization 7230  
          ___rparam_used 000001               ___fltol@f1 0038           __pcstackCOMRAM 0001  
      __end_of_Key_Press 74EC              _Keypad_Init 722A                ?___xxtofl 0001  
           ??_USART_Init 0046                  __Hparam 0000                  __Lparam 0000  
                ___fladd 7B40                  ___fldiv 77A6                  ___fltol 74EC  
                __pcinit 7230                  __ramtop 0800                  __ptext0 724C  
                __ptext1 7236                  __ptext2 731E                  __ptext3 75F2  
                __ptext4 74EC                  __ptext5 77A6                  __ptext6 7B40  
                __ptext7 722A                  __ptext8 7400               ??___xxtofl 0005  
     __end_of_USART_Init 7400     end_of_initialization 7230                _PORTBbits 000F81  
              _PORTDbits 000F83              ___fladd@grs 0037            ___xxtofl@sign 0009  
            ___fldiv@grs 0022              ___fldiv@rem 001B      USART_Init@baud_rate 0042  
          ?_USART_TxChar 0001             ?_Keypad_Init 0001      start_initialization 7230  
              _Key_Press 7400           ??_USART_TxChar 0001                ___fladd@a 002C  
              ___fladd@b 0028                ___fldiv@a 0013                ___fldiv@b 000F  
             ?_Key_Press 0001                 ?___fladd 0028                 ?___fldiv 000F  
               ?___fltol 0038     __end_of_USART_TxChar 724C                main@tecla 0047  
            ??_Key_Press 0001                 __Hrparam 0000                 __Lrparam 0000  
               ___xxtofl 75F2                 isa$xinst 000000          USART_TxChar@out 0001  
          ___fladd@signs 0034             ___fladd@aexp 0035             ___fladd@bexp 0036  
           _USART_TxChar 7236               _USART_Init 731E  
