

Microchip MPLAB XC8 Assembler V2.36 build 20220127204148 
                                                                                               Fri Mar 11 14:46:53 2022

Microchip MPLAB XC8 C Compiler v2.36 (Free license) build 20220127204148 Og1 
     1                           	processor	18F4550
     2                           	fnconf	rparam,??,?,0
     3                           	pagewidth 120
     4                           	opt	flic
     5                           	psect	cinit,global,reloc=2,class=CODE,delta=1
     6                           	psect	bssCOMRAM,global,class=COMRAM,space=1,delta=1,lowdata,noexec
     7                           	psect	cstackCOMRAM,global,class=COMRAM,space=1,delta=1,lowdata,noexec
     8                           	psect	text0,global,reloc=2,class=CODE,delta=1
     9                           	psect	text1,global,reloc=2,class=CODE,delta=1
    10                           	psect	text2,global,reloc=2,class=CODE,delta=1
    11                           	psect	text3,global,reloc=2,class=CODE,delta=1
    12                           	psect	text4,global,reloc=2,class=CODE,delta=1,group=1
    13                           	psect	text5,global,reloc=2,class=CODE,delta=1,group=1
    14                           	psect	text6,global,reloc=2,class=CODE,delta=1,group=1
    15                           	psect	text7,global,reloc=2,class=CODE,delta=1,group=1
    16                           	psect	text8,global,reloc=2,class=CODE,delta=1
    17                           	psect	text9,global,reloc=2,class=CODE,delta=1
    18                           	psect	text10,global,reloc=2,class=CODE,delta=1
    19                           	psect	text11,global,reloc=2,class=CODE,delta=1
    20                           	psect	text12,global,reloc=2,class=CODE,delta=1
    21                           	psect	text13,global,reloc=2,class=CODE,delta=1
    22                           	psect	text14,global,reloc=2,class=CODE,delta=1
    23                           	psect	text15,global,reloc=2,class=CODE,delta=1
    24                           	psect	text16,global,reloc=2,class=CODE,delta=1
    25                           	psect	text17,global,reloc=2,class=CODE,delta=1
    26                           	psect	intsave_regs,global,class=BIGRAM,space=1,delta=1,noexec
    27                           	psect	rparam,global,class=COMRAM,space=1,delta=1,noexec
    28                           	psect	idloc,global,abs,ovrld,class=IDLOC,space=5,delta=1,noexec
    29                           	psect	config,global,abs,ovrld,class=CONFIG,space=4,delta=1,noexec
    30  0000                     
    31                           ; Version 2.40
    32                           ; Generated 17/11/2021 GMT
    33                           ; 
    34                           ; Copyright © 2021, Microchip Technology Inc. and its subsidiaries ("Microchip")
    35                           ; All rights reserved.
    36                           ; 
    37                           ; This software is developed by Microchip Technology Inc. and its subsidiaries ("Microch
      +                          ip").
    38                           ; 
    39                           ; Redistribution and use in source and binary forms, with or without modification, are
    40                           ; permitted provided that the following conditions are met:
    41                           ; 
    42                           ;     1. Redistributions of source code must retain the above copyright notice, this lis
      +                          t of
    43                           ;        conditions and the following disclaimer.
    44                           ; 
    45                           ;     2. Redistributions in binary form must reproduce the above copyright notice, this 
      +                          list
    46                           ;        of conditions and the following disclaimer in the documentation and/or other
    47                           ;        materials provided with the distribution. Publication is not required when
    48                           ;        this file is used in an embedded application.
    49                           ; 
    50                           ;     3. Microchip's name may not be used to endorse or promote products derived from th
      +                          is
    51                           ;        software without specific prior written permission.
    52                           ; 
    53                           ; THIS SOFTWARE IS PROVIDED BY MICROCHIP "AS IS" AND ANY EXPRESS OR IMPLIED WARRANTIES,
    54                           ; INCLUDING, BUT NOT LIMITED TO, THE IMPLIED WARRANTIES OF MERCHANTABILITY AND FITNESS F
      +                          OR
    55                           ; PURPOSE ARE DISCLAIMED.  IN NO EVENT SHALL MICROCHIP BE LIABLE FOR ANY DIRECT, INDIREC
      +                          T,
    56                           ; INCIDENTAL, SPECIAL, EXEMPLARY, OR CONSEQUENTIAL DAMAGES (INCLUDING BUT NOT LIMITED TO
    57                           ; PROCUREMENT OF SUBSTITUTE GOODS OR SERVICES; LOSS OF USE, DATA OR PROFITS; OR BUSINESS
    58                           ; INTERRUPTION) HOWSOEVER CAUSED AND ON ANY THEORY OF LIABILITY, WHETHER IN CONTRACT, ST
      +                          RICT
    59                           ; LIABILITY, OR TORT (INCLUDING NEGLIGENCE OR OTHERWISE) ARISING IN ANY WAY OUT OF THE U
      +                          SE OF
    60                           ; THIS SOFTWARE, EVEN IF ADVISED OF THE POSSIBILITY OF SUCH DAMAGE.
    61                           ; 
    62                           ; 
    63                           ; Code-generator required, PIC18F4550 Definitions
    64                           ; 
    65                           ; SFR Addresses
    66  0000                     _RCREG	set	4014
    67  0000                     _TXREG	set	4013
    68  0000                     _SSPADD	set	4040
    69  0000                     _SSPCON1	set	4038
    70  0000                     _SSPBUF	set	4041
    71  0000                     _SSPSTATbits	set	4039
    72  0000                     _SSPCON2bits	set	4037
    73  0000                     _SSPCON2	set	4037
    74  0000                     _SSPSTAT	set	4039
    75  0000                     _LATBbits	set	3978
    76  0000                     _RCIF	set	31989
    77  0000                     _TXIF	set	31988
    78  0000                     _TRISC7	set	31911
    79  0000                     _ACKEN	set	32300
    80  0000                     _ACKDT	set	32301
    81  0000                     _PEN	set	32298
    82  0000                     _RSEN	set	32297
    83  0000                     _ACKSTAT	set	32302
    84  0000                     _TRISB1	set	31897
    85  0000                     _TRISB0	set	31896
    86  0000                     _PORTAbits	set	3968
    87  0000                     _LATB	set	3978
    88  0000                     _TRISAbits	set	3986
    89  0000                     _ADCON1	set	4033
    90  0000                     _OSCCON	set	4051
    91  0000                     _RCEN	set	32299
    92  0000                     _TRISB	set	3987
    93  0000                     _TRISC6	set	31910
    94  0000                     _SSPIE	set	31979
    95  0000                     _RCSTA	set	4011
    96  0000                     _TXSTA	set	4012
    97  0000                     _SPBRG	set	4015
    98  0000                     _SSPIF	set	31987
    99                           
   100                           ; #config settings
   101                           
   102                           	psect	cinit
   103  0070FA                     __pcinit:
   104                           	callstack 0
   105  0070FA                     start_initialization:
   106                           	callstack 0
   107  0070FA                     __initialization:
   108                           	callstack 0
   109                           
   110                           ; Clear objects allocated to COMRAM (14 bytes)
   111  0070FA  EE00  F04A         	lfsr	0,__pbssCOMRAM
   112  0070FE  0E0E               	movlw	14
   113  007100                     clear_0:
   114  007100  6AEE               	clrf	postinc0,c
   115  007102  06E8               	decf	wreg,f,c
   116  007104  E1FD               	bnz	clear_0
   117  007106                     end_of_initialization:
   118                           	callstack 0
   119  007106                     __end_of__initialization:
   120                           	callstack 0
   121  007106  0100               	movlb	0
   122  007108  EF30  F03A         	goto	_main	;jump to C main() function
   123                           
   124                           	psect	bssCOMRAM
   125  00004A                     __pbssCOMRAM:
   126                           	callstack 0
   127  00004A                     _Year:
   128                           	callstack 0
   129  00004A                     	ds	2
   130  00004C                     _Month:
   131                           	callstack 0
   132  00004C                     	ds	2
   133  00004E                     _Date:
   134                           	callstack 0
   135  00004E                     	ds	2
   136  000050                     _Day:
   137                           	callstack 0
   138  000050                     	ds	2
   139  000052                     _hour:
   140                           	callstack 0
   141  000052                     	ds	2
   142  000054                     _min:
   143                           	callstack 0
   144  000054                     	ds	2
   145  000056                     _sec:
   146                           	callstack 0
   147  000056                     	ds	2
   148                           
   149                           	psect	cstackCOMRAM
   150  000001                     __pcstackCOMRAM:
   151                           	callstack 0
   152  000001                     ?___xxtofl:
   153                           	callstack 0
   154  000001                     I2C_Read@flag:
   155                           	callstack 0
   156  000001                     I2C_Write@data:
   157                           	callstack 0
   158  000001                     USART_TransmitChar@out:
   159                           	callstack 0
   160  000001                     ___xxtofl@val:
   161                           	callstack 0
   162                           
   163                           ; 4 bytes @ 0x0
   164  000001                     	ds	1
   165  000002                     I2C_Read@buffer:
   166                           	callstack 0
   167  000002                     I2C_Start@slave_write_address:
   168                           	callstack 0
   169  000002                     I2C_Repeated_Start@slave_read_address:
   170                           	callstack 0
   171                           
   172                           ; 1 bytes @ 0x1
   173  000002                     	ds	1
   174  000003                     ?_RTC_Read_Hour:
   175                           	callstack 0
   176                           
   177                           ; 2 bytes @ 0x2
   178  000003                     	ds	2
   179  000005                     ??_RTC_Read_Hour:
   180  000005                     ??___xxtofl:
   181                           
   182                           ; 1 bytes @ 0x4
   183  000005                     	ds	1
   184  000006                     RTC_Read_Hour@read_clock_address:
   185                           	callstack 0
   186                           
   187                           ; 1 bytes @ 0x5
   188  000006                     	ds	3
   189  000009                     ___xxtofl@sign:
   190                           	callstack 0
   191                           
   192                           ; 1 bytes @ 0x8
   193  000009                     	ds	1
   194  00000A                     ___xxtofl@exp:
   195                           	callstack 0
   196                           
   197                           ; 1 bytes @ 0x9
   198  00000A                     	ds	1
   199  00000B                     ___xxtofl@arg:
   200                           	callstack 0
   201                           
   202                           ; 4 bytes @ 0xA
   203  00000B                     	ds	4
   204  00000F                     ?___fldiv:
   205                           	callstack 0
   206  00000F                     ___fldiv@b:
   207                           	callstack 0
   208                           
   209                           ; 4 bytes @ 0xE
   210  00000F                     	ds	4
   211  000013                     ___fldiv@a:
   212                           	callstack 0
   213                           
   214                           ; 4 bytes @ 0x12
   215  000013                     	ds	4
   216  000017                     ??___fldiv:
   217                           
   218                           ; 1 bytes @ 0x16
   219  000017                     	ds	4
   220  00001B                     ___fldiv@rem:
   221                           	callstack 0
   222                           
   223                           ; 4 bytes @ 0x1A
   224  00001B                     	ds	4
   225  00001F                     ___fldiv@sign:
   226                           	callstack 0
   227                           
   228                           ; 1 bytes @ 0x1E
   229  00001F                     	ds	1
   230  000020                     ___fldiv@new_exp:
   231                           	callstack 0
   232                           
   233                           ; 2 bytes @ 0x1F
   234  000020                     	ds	2
   235  000022                     ___fldiv@grs:
   236                           	callstack 0
   237                           
   238                           ; 4 bytes @ 0x21
   239  000022                     	ds	4
   240  000026                     ___fldiv@bexp:
   241                           	callstack 0
   242                           
   243                           ; 1 bytes @ 0x25
   244  000026                     	ds	1
   245  000027                     ___fldiv@aexp:
   246                           	callstack 0
   247                           
   248                           ; 1 bytes @ 0x26
   249  000027                     	ds	1
   250  000028                     ?___fladd:
   251                           	callstack 0
   252  000028                     ___fladd@b:
   253                           	callstack 0
   254                           
   255                           ; 4 bytes @ 0x27
   256  000028                     	ds	4
   257  00002C                     ___fladd@a:
   258                           	callstack 0
   259                           
   260                           ; 4 bytes @ 0x2B
   261  00002C                     	ds	4
   262  000030                     ??___fladd:
   263                           
   264                           ; 1 bytes @ 0x2F
   265  000030                     	ds	4
   266  000034                     ___fladd@signs:
   267                           	callstack 0
   268                           
   269                           ; 1 bytes @ 0x33
   270  000034                     	ds	1
   271  000035                     ___fladd@aexp:
   272                           	callstack 0
   273                           
   274                           ; 1 bytes @ 0x34
   275  000035                     	ds	1
   276  000036                     ___fladd@bexp:
   277                           	callstack 0
   278                           
   279                           ; 1 bytes @ 0x35
   280  000036                     	ds	1
   281  000037                     ___fladd@grs:
   282                           	callstack 0
   283                           
   284                           ; 1 bytes @ 0x36
   285  000037                     	ds	1
   286  000038                     ?___fltol:
   287                           	callstack 0
   288  000038                     ___fltol@f1:
   289                           	callstack 0
   290                           
   291                           ; 4 bytes @ 0x37
   292  000038                     	ds	4
   293  00003C                     ??___fltol:
   294                           
   295                           ; 1 bytes @ 0x3B
   296  00003C                     	ds	4
   297  000040                     ___fltol@sign1:
   298                           	callstack 0
   299                           
   300                           ; 1 bytes @ 0x3F
   301  000040                     	ds	1
   302  000041                     ___fltol@exp1:
   303                           	callstack 0
   304                           
   305                           ; 1 bytes @ 0x40
   306  000041                     	ds	1
   307  000042                     USART_Init@baud_rate:
   308                           	callstack 0
   309                           
   310                           ; 4 bytes @ 0x41
   311  000042                     	ds	4
   312  000046                     main@hour:
   313                           	callstack 0
   314                           
   315                           ; 2 bytes @ 0x45
   316  000046                     	ds	2
   317  000048                     main@estado:
   318                           	callstack 0
   319                           
   320                           ; 1 bytes @ 0x47
   321  000048                     	ds	1
   322  000049                     main@data_in:
   323                           	callstack 0
   324                           
   325                           ; 1 bytes @ 0x48
   326  000049                     	ds	1
   327                           
   328 ;;
   329 ;;Main: autosize = 0, tempsize = 0, incstack = 0, save=0
   330 ;;
   331 ;; *************** function _main *****************
   332 ;; Defined at:
   333 ;;		line 18 in file "PIC.c"
   334 ;; Parameters:    Size  Location     Type
   335 ;;		None
   336 ;; Auto vars:     Size  Location     Type
   337 ;;  hour            2   69[COMRAM] int 
   338 ;;  data_in         1   72[COMRAM] unsigned char 
   339 ;;  estado          1   71[COMRAM] unsigned char 
   340 ;; Return value:  Size  Location     Type
   341 ;;                  1    wreg      void 
   342 ;; Registers used:
   343 ;;		wreg, status,2, status,0, cstack
   344 ;; Tracked objects:
   345 ;;		On entry : 0/0
   346 ;;		On exit  : 0/0
   347 ;;		Unchanged: 0/0
   348 ;; Data sizes:     COMRAM   BANK0   BANK1   BANK2   BANK3   BANK4   BANK5   BANK6   BANK7
   349 ;;      Params:         0       0       0       0       0       0       0       0       0
   350 ;;      Locals:         4       0       0       0       0       0       0       0       0
   351 ;;      Temps:          0       0       0       0       0       0       0       0       0
   352 ;;      Totals:         4       0       0       0       0       0       0       0       0
   353 ;;Total ram usage:        4 bytes
   354 ;; Hardware stack levels required when called: 4
   355 ;; This function calls:
   356 ;;		_I2C_Init
   357 ;;		_I2C_Stop
   358 ;;		_RTC_Read_Hour
   359 ;;		_USART_Init
   360 ;;		_USART_ReceiveChar
   361 ;;		_USART_TransmitChar
   362 ;; This function is called by:
   363 ;;		Startup code after reset
   364 ;; This function uses a non-reentrant model
   365 ;;
   366                           
   367                           	psect	text0
   368  007460                     __ptext0:
   369                           	callstack 0
   370  007460                     _main:
   371                           	callstack 27
   372  007460                     
   373                           ;PIC.c: 19:     char data_in;;PIC.c: 20:     char estado;;PIC.c: 21:     OSCCON = 0x72;
   374  007460  0E72               	movlw	114
   375  007462  6ED3               	movwf	211,c	;volatile
   376                           
   377                           ;PIC.c: 22:     ADCON1 = 0x0F;
   378  007464  0E0F               	movlw	15
   379  007466  6EC1               	movwf	193,c	;volatile
   380  007468                     
   381                           ;PIC.c: 23:     USART_Init(9600);
   382  007468  0E80               	movlw	128
   383  00746A  6E42               	movwf	USART_Init@baud_rate^0,c
   384  00746C  0E25               	movlw	37
   385  00746E  6E43               	movwf	(USART_Init@baud_rate+1)^0,c
   386  007470  0E00               	movlw	0
   387  007472  6E44               	movwf	(USART_Init@baud_rate+2)^0,c
   388  007474  0E00               	movlw	0
   389  007476  6E45               	movwf	(USART_Init@baud_rate+3)^0,c
   390  007478  EC3C  F039         	call	_USART_Init	;wreg free
   391  00747C                     
   392                           ;PIC.c: 24:     I2C_Init();
   393  00747C  ECAF  F038         	call	_I2C_Init	;wreg free
   394  007480                     
   395                           ;PIC.c: 25:     TRISAbits.TRISA0 = 1;
   396  007480  8092               	bsf	146,0,c	;volatile
   397  007482                     
   398                           ;PIC.c: 26:     TRISB = 0;
   399  007482  0E00               	movlw	0
   400  007484  6E93               	movwf	147,c	;volatile
   401  007486                     
   402                           ;PIC.c: 27:     LATB = 1;
   403  007486  0E01               	movlw	1
   404  007488  6E8A               	movwf	138,c	;volatile
   405  00748A                     l2010:
   406                           
   407                           ;PIC.c: 30:         data_in = USART_ReceiveChar();
   408  00748A  EC74  F038         	call	_USART_ReceiveChar	;wreg free
   409  00748E  6E49               	movwf	main@data_in^0,c
   410  007490                     
   411                           ;PIC.c: 31:         if(data_in=='1'||data_in=='2'||data_in=='3'||data_in=='4'){
   412  007490  0E31               	movlw	49
   413  007492  1849               	xorwf	main@data_in^0,w,c
   414  007494  B4D8               	btfsc	status,2,c
   415  007496  EF4F  F03A         	goto	u1911
   416  00749A  EF51  F03A         	goto	u1910
   417  00749E                     u1911:
   418  00749E  EF6C  F03A         	goto	l34
   419  0074A2                     u1910:
   420  0074A2  0E32               	movlw	50
   421  0074A4  1849               	xorwf	main@data_in^0,w,c
   422  0074A6  B4D8               	btfsc	status,2,c
   423  0074A8  EF58  F03A         	goto	u1921
   424  0074AC  EF5A  F03A         	goto	u1920
   425  0074B0                     u1921:
   426  0074B0  EF6C  F03A         	goto	l34
   427  0074B4                     u1920:
   428  0074B4  0E33               	movlw	51
   429  0074B6  1849               	xorwf	main@data_in^0,w,c
   430  0074B8  B4D8               	btfsc	status,2,c
   431  0074BA  EF61  F03A         	goto	u1931
   432  0074BE  EF63  F03A         	goto	u1930
   433  0074C2                     u1931:
   434  0074C2  EF6C  F03A         	goto	l34
   435  0074C6                     u1930:
   436  0074C6  0E34               	movlw	52
   437  0074C8  1849               	xorwf	main@data_in^0,w,c
   438  0074CA  A4D8               	btfss	status,2,c
   439  0074CC  EF6A  F03A         	goto	u1941
   440  0074D0  EF6C  F03A         	goto	u1940
   441  0074D4                     u1941:
   442  0074D4  EF6E  F03A         	goto	l2020
   443  0074D8                     u1940:
   444  0074D8                     l34:
   445                           
   446                           ;PIC.c: 32:             estado = data_in;
   447  0074D8  C049  F048         	movff	main@data_in,main@estado
   448  0074DC                     l2020:
   449                           
   450                           ;PIC.c: 34:         if(estado == '1'){
   451  0074DC  0E31               	movlw	49
   452  0074DE  1848               	xorwf	main@estado^0,w,c
   453  0074E0  A4D8               	btfss	status,2,c
   454  0074E2  EF75  F03A         	goto	u1951
   455  0074E6  EF77  F03A         	goto	u1950
   456  0074EA                     u1951:
   457  0074EA  EF7A  F03A         	goto	l2024
   458  0074EE                     u1950:
   459  0074EE                     
   460                           ;PIC.c: 35:             LATBbits.LATB2 = 1;
   461  0074EE  848A               	bsf	138,2,c	;volatile
   462                           
   463                           ;PIC.c: 36:         }
   464  0074F0  EF45  F03A         	goto	l2010
   465  0074F4                     l2024:
   466  0074F4  0E32               	movlw	50
   467  0074F6  1848               	xorwf	main@estado^0,w,c
   468  0074F8  A4D8               	btfss	status,2,c
   469  0074FA  EF81  F03A         	goto	u1961
   470  0074FE  EF83  F03A         	goto	u1960
   471  007502                     u1961:
   472  007502  EF86  F03A         	goto	l2028
   473  007506                     u1960:
   474  007506                     
   475                           ;PIC.c: 38:             LATBbits.LATB2 = 0;
   476  007506  948A               	bcf	138,2,c	;volatile
   477                           
   478                           ;PIC.c: 39:         }
   479  007508  EF45  F03A         	goto	l2010
   480  00750C                     l2028:
   481  00750C  0E33               	movlw	51
   482  00750E  1848               	xorwf	main@estado^0,w,c
   483  007510  A4D8               	btfss	status,2,c
   484  007512  EF8D  F03A         	goto	u1971
   485  007516  EF8F  F03A         	goto	u1970
   486  00751A                     u1971:
   487  00751A  EF9C  F03A         	goto	l2034
   488  00751E                     u1970:
   489  00751E                     
   490                           ;PIC.c: 41:             if(PORTAbits.RA0 == 1){
   491  00751E  A080               	btfss	128,0,c	;volatile
   492  007520  EF94  F03A         	goto	u1981
   493  007524  EF96  F03A         	goto	u1980
   494  007528                     u1981:
   495  007528  EF99  F03A         	goto	l40
   496  00752C                     u1980:
   497  00752C                     
   498                           ;PIC.c: 42:                 LATBbits.LATB2 = 1;
   499  00752C  848A               	bsf	138,2,c	;volatile
   500                           
   501                           ;PIC.c: 43:             } else {
   502  00752E  EF45  F03A         	goto	l2010
   503  007532                     l40:
   504                           
   505                           ;PIC.c: 44:                 LATBbits.LATB2 = 0;
   506  007532  948A               	bcf	138,2,c	;volatile
   507  007534  EF45  F03A         	goto	l2010
   508  007538                     l2034:
   509  007538  0E34               	movlw	52
   510  00753A  1848               	xorwf	main@estado^0,w,c
   511  00753C  A4D8               	btfss	status,2,c
   512  00753E  EFA3  F03A         	goto	u1991
   513  007542  EFA5  F03A         	goto	u1990
   514  007546                     u1991:
   515  007546  EFF5  F03A         	goto	l36
   516  00754A                     u1990:
   517  00754A                     
   518                           ;PIC.c: 48:             int hour = RTC_Read_Hour(0);
   519  00754A  0E00               	movlw	0
   520  00754C  EC18  F039         	call	_RTC_Read_Hour
   521  007550  C003  F046         	movff	?_RTC_Read_Hour,main@hour
   522  007554  C004  F047         	movff	?_RTC_Read_Hour+1,main@hour+1
   523  007558                     
   524                           ;PIC.c: 49:             I2C_Stop();
   525  007558  EC86  F038         	call	_I2C_Stop	;wreg free
   526  00755C                     
   527                           ;PIC.c: 50:             USART_TransmitChar(hour & 0x1f);
   528  00755C  5046               	movf	main@hour^0,w,c
   529  00755E  0B1F               	andlw	31
   530  007560  ECA4  F038         	call	_USART_TransmitChar
   531  007564                     
   532                           ;PIC.c: 51:             if(((RTC_Read_Hour(0) >= 0x14) && (RTC_Read_Hour(0) <= 0x23))||(
      +                          (RTC_Read_Hour(0) >= 0x00) && (RTC_Read_Hour(0) <= 0x06))){
   533  007564  0E00               	movlw	0
   534  007566  EC18  F039         	call	_RTC_Read_Hour
   535  00756A  BE04               	btfsc	(?_RTC_Read_Hour+1)^0,7,c
   536  00756C  EFC1  F03A         	goto	u2001
   537  007570  5004               	movf	(?_RTC_Read_Hour+1)^0,w,c
   538  007572  E109               	bnz	u2000
   539  007574  0E14               	movlw	20
   540  007576  5C03               	subwf	?_RTC_Read_Hour^0,w,c
   541  007578  A0D8               	btfss	status,0,c
   542  00757A  EFC1  F03A         	goto	u2001
   543  00757E  EFC3  F03A         	goto	u2000
   544  007582                     u2001:
   545  007582  EFD4  F03A         	goto	l2046
   546  007586                     u2000:
   547  007586  0E00               	movlw	0
   548  007588  EC18  F039         	call	_RTC_Read_Hour
   549  00758C  BE04               	btfsc	(?_RTC_Read_Hour+1)^0,7,c
   550  00758E  EFD2  F03A         	goto	u2011
   551  007592  5004               	movf	(?_RTC_Read_Hour+1)^0,w,c
   552  007594  E109               	bnz	u2010
   553  007596  0E24               	movlw	36
   554  007598  5C03               	subwf	?_RTC_Read_Hour^0,w,c
   555  00759A  A0D8               	btfss	status,0,c
   556  00759C  EFD2  F03A         	goto	u2011
   557  0075A0  EFD4  F03A         	goto	u2010
   558  0075A4                     u2011:
   559  0075A4  EFEF  F03A         	goto	l46
   560  0075A8                     u2010:
   561  0075A8                     l2046:
   562  0075A8  0E00               	movlw	0
   563  0075AA  EC18  F039         	call	_RTC_Read_Hour
   564  0075AE  BE04               	btfsc	(?_RTC_Read_Hour+1)^0,7,c
   565  0075B0  EFDC  F03A         	goto	u2021
   566  0075B4  EFDE  F03A         	goto	u2020
   567  0075B8                     u2021:
   568  0075B8  EFF2  F03A         	goto	l44
   569  0075BC                     u2020:
   570  0075BC  0E00               	movlw	0
   571  0075BE  EC18  F039         	call	_RTC_Read_Hour
   572  0075C2  BE04               	btfsc	(?_RTC_Read_Hour+1)^0,7,c
   573  0075C4  EFEF  F03A         	goto	u2030
   574  0075C8  5004               	movf	(?_RTC_Read_Hour+1)^0,w,c
   575  0075CA  E107               	bnz	u2031
   576  0075CC  0E07               	movlw	7
   577  0075CE  5C03               	subwf	?_RTC_Read_Hour^0,w,c
   578  0075D0  B0D8               	btfsc	status,0,c
   579  0075D2  EFED  F03A         	goto	u2031
   580  0075D6  EFEF  F03A         	goto	u2030
   581  0075DA                     u2031:
   582  0075DA  EFF2  F03A         	goto	l44
   583  0075DE                     u2030:
   584  0075DE                     l46:
   585                           
   586                           ;PIC.c: 52:                 LATBbits.LATB2 = 1;
   587  0075DE  848A               	bsf	138,2,c	;volatile
   588                           
   589                           ;PIC.c: 53:             }else {
   590  0075E0  EF45  F03A         	goto	l2010
   591  0075E4                     l44:
   592                           
   593                           ;PIC.c: 54:                 LATBbits.LATB2 = 0;
   594  0075E4  948A               	bcf	138,2,c	;volatile
   595  0075E6  EF45  F03A         	goto	l2010
   596  0075EA                     l36:
   597  0075EA  EF45  F03A         	goto	l2010
   598  0075EE  EF00  F000         	goto	start
   599  0075F2                     __end_of_main:
   600                           	callstack 0
   601                           
   602 ;; *************** function _USART_TransmitChar *****************
   603 ;; Defined at:
   604 ;;		line 20 in file "USART_Source_File.c"
   605 ;; Parameters:    Size  Location     Type
   606 ;;  out             1    wreg     unsigned char 
   607 ;; Auto vars:     Size  Location     Type
   608 ;;  out             1    0[COMRAM] unsigned char 
   609 ;; Return value:  Size  Location     Type
   610 ;;                  1    wreg      void 
   611 ;; Registers used:
   612 ;;		wreg
   613 ;; Tracked objects:
   614 ;;		On entry : 0/0
   615 ;;		On exit  : 0/0
   616 ;;		Unchanged: 0/0
   617 ;; Data sizes:     COMRAM   BANK0   BANK1   BANK2   BANK3   BANK4   BANK5   BANK6   BANK7
   618 ;;      Params:         0       0       0       0       0       0       0       0       0
   619 ;;      Locals:         1       0       0       0       0       0       0       0       0
   620 ;;      Temps:          0       0       0       0       0       0       0       0       0
   621 ;;      Totals:         1       0       0       0       0       0       0       0       0
   622 ;;Total ram usage:        1 bytes
   623 ;; Hardware stack levels used: 1
   624 ;; This function calls:
   625 ;;		Nothing
   626 ;; This function is called by:
   627 ;;		_main
   628 ;;		_USART_SendString
   629 ;; This function uses a non-reentrant model
   630 ;;
   631                           
   632                           	psect	text1
   633  007148                     __ptext1:
   634                           	callstack 0
   635  007148                     _USART_TransmitChar:
   636                           	callstack 30
   637                           
   638                           ;incstack = 0
   639                           ;USART_TransmitChar@out stored from wreg
   640  007148  6E01               	movwf	USART_TransmitChar@out^0,c
   641  00714A                     l221:
   642  00714A  A89E               	btfss	3998,4,c	;volatile
   643  00714C  EFAA  F038         	goto	u921
   644  007150  EFAC  F038         	goto	u920
   645  007154                     u921:
   646  007154  EFA5  F038         	goto	l221
   647  007158                     u920:
   648  007158                     
   649                           ;USART_Source_File.c: 23:         TXREG=out;
   650  007158  C001  FFAD         	movff	USART_TransmitChar@out,4013	;volatile
   651  00715C  0012               	return		;funcret
   652  00715E                     __end_of_USART_TransmitChar:
   653                           	callstack 0
   654                           
   655 ;; *************** function _USART_ReceiveChar *****************
   656 ;; Defined at:
   657 ;;		line 27 in file "USART_Source_File.c"
   658 ;; Parameters:    Size  Location     Type
   659 ;;		None
   660 ;; Auto vars:     Size  Location     Type
   661 ;;		None
   662 ;; Return value:  Size  Location     Type
   663 ;;                  1    wreg      unsigned char 
   664 ;; Registers used:
   665 ;;		wreg, status,2
   666 ;; Tracked objects:
   667 ;;		On entry : 0/0
   668 ;;		On exit  : 0/0
   669 ;;		Unchanged: 0/0
   670 ;; Data sizes:     COMRAM   BANK0   BANK1   BANK2   BANK3   BANK4   BANK5   BANK6   BANK7
   671 ;;      Params:         0       0       0       0       0       0       0       0       0
   672 ;;      Locals:         0       0       0       0       0       0       0       0       0
   673 ;;      Temps:          0       0       0       0       0       0       0       0       0
   674 ;;      Totals:         0       0       0       0       0       0       0       0       0
   675 ;;Total ram usage:        0 bytes
   676 ;; Hardware stack levels used: 1
   677 ;; This function calls:
   678 ;;		Nothing
   679 ;; This function is called by:
   680 ;;		_main
   681 ;; This function uses a non-reentrant model
   682 ;;
   683                           
   684                           	psect	text2
   685  0070E8                     __ptext2:
   686                           	callstack 0
   687  0070E8                     _USART_ReceiveChar:
   688                           	callstack 30
   689  0070E8                     l227:
   690  0070E8  AA9E               	btfss	3998,5,c	;volatile
   691  0070EA  EF79  F038         	goto	u901
   692  0070EE  EF7B  F038         	goto	u900
   693  0070F2                     u901:
   694  0070F2  EF74  F038         	goto	l227
   695  0070F6                     u900:
   696  0070F6                     
   697                           ;USART_Source_File.c: 31:     return(RCREG);
   698  0070F6  50AE               	movf	174,w,c	;volatile
   699  0070F8  0012               	return		;funcret
   700  0070FA                     __end_of_USART_ReceiveChar:
   701                           	callstack 0
   702                           
   703 ;; *************** function _USART_Init *****************
   704 ;; Defined at:
   705 ;;		line 9 in file "USART_Source_File.c"
   706 ;; Parameters:    Size  Location     Type
   707 ;;  baud_rate       4   65[COMRAM] long 
   708 ;; Auto vars:     Size  Location     Type
   709 ;;  temp            4    0        float 
   710 ;; Return value:  Size  Location     Type
   711 ;;                  1    wreg      void 
   712 ;; Registers used:
   713 ;;		wreg, status,2, status,0, cstack
   714 ;; Tracked objects:
   715 ;;		On entry : 0/0
   716 ;;		On exit  : 0/0
   717 ;;		Unchanged: 0/0
   718 ;; Data sizes:     COMRAM   BANK0   BANK1   BANK2   BANK3   BANK4   BANK5   BANK6   BANK7
   719 ;;      Params:         4       0       0       0       0       0       0       0       0
   720 ;;      Locals:         0       0       0       0       0       0       0       0       0
   721 ;;      Temps:          0       0       0       0       0       0       0       0       0
   722 ;;      Totals:         4       0       0       0       0       0       0       0       0
   723 ;;Total ram usage:        4 bytes
   724 ;; Hardware stack levels used: 1
   725 ;; Hardware stack levels required when called: 1
   726 ;; This function calls:
   727 ;;		___fladd
   728 ;;		___fldiv
   729 ;;		___fltol
   730 ;;		___xxtofl
   731 ;; This function is called by:
   732 ;;		_main
   733 ;; This function uses a non-reentrant model
   734 ;;
   735                           
   736                           	psect	text3
   737  007278                     __ptext3:
   738                           	callstack 0
   739  007278                     _USART_Init:
   740                           	callstack 29
   741  007278                     
   742                           ;USART_Source_File.c: 9: void USART_Init(long baud_rate);USART_Source_File.c: 10: {;USAR
      +                          T_Source_File.c: 11:     float temp;;USART_Source_File.c: 12:     TRISC6=0;
   743  007278  9C94               	bcf	3988,6,c	;volatile
   744                           
   745                           ;USART_Source_File.c: 13:     TRISC7=1;
   746  00727A  8E94               	bsf	3988,7,c	;volatile
   747  00727C  C042  F001         	movff	USART_Init@baud_rate,___xxtofl@val
   748  007280  C043  F002         	movff	USART_Init@baud_rate+1,___xxtofl@val+1
   749  007284  C044  F003         	movff	USART_Init@baud_rate+2,___xxtofl@val+2
   750  007288  C045  F004         	movff	USART_Init@baud_rate+3,___xxtofl@val+3
   751  00728C  0E01               	movlw	1
   752  00728E  ECF9  F03A         	call	___xxtofl
   753  007292  C001  F013         	movff	?___xxtofl,___fldiv@a
   754  007296  C002  F014         	movff	?___xxtofl+1,___fldiv@a+1
   755  00729A  C003  F015         	movff	?___xxtofl+2,___fldiv@a+2
   756  00729E  C004  F016         	movff	?___xxtofl+3,___fldiv@a+3
   757  0072A2  0E00               	movlw	0
   758  0072A4  6E0F               	movwf	___fldiv@b^0,c
   759  0072A6  0E24               	movlw	36
   760  0072A8  6E10               	movwf	(___fldiv@b+1)^0,c
   761  0072AA  0EF4               	movlw	244
   762  0072AC  6E11               	movwf	(___fldiv@b+2)^0,c
   763  0072AE  0E47               	movlw	71
   764  0072B0  6E12               	movwf	(___fldiv@b+3)^0,c
   765  0072B2  ECD3  F03B         	call	___fldiv	;wreg free
   766  0072B6  C00F  F028         	movff	?___fldiv,___fladd@b
   767  0072BA  C010  F029         	movff	?___fldiv+1,___fladd@b+1
   768  0072BE  C011  F02A         	movff	?___fldiv+2,___fladd@b+2
   769  0072C2  C012  F02B         	movff	?___fldiv+3,___fladd@b+3
   770  0072C6  0E00               	movlw	0
   771  0072C8  6E2C               	movwf	___fladd@a^0,c
   772  0072CA  0E00               	movlw	0
   773  0072CC  6E2D               	movwf	(___fladd@a+1)^0,c
   774  0072CE  0E80               	movlw	128
   775  0072D0  6E2E               	movwf	(___fladd@a+2)^0,c
   776  0072D2  0EBF               	movlw	191
   777  0072D4  6E2F               	movwf	(___fladd@a+3)^0,c
   778  0072D6  ECA0  F03D         	call	___fladd	;wreg free
   779                           
   780                           ;USART_Source_File.c: 15:     SPBRG = (((float)(8000000/64)/(float)baud_rate)-1);
   781  0072DA  0E00               	movlw	0
   782  0072DC  6E2C               	movwf	___fladd@a^0,c
   783  0072DE  0E00               	movlw	0
   784  0072E0  6E2D               	movwf	(___fladd@a+1)^0,c
   785  0072E2  0E80               	movlw	128
   786  0072E4  6E2E               	movwf	(___fladd@a+2)^0,c
   787  0072E6  0EBF               	movlw	191
   788  0072E8  6E2F               	movwf	(___fladd@a+3)^0,c
   789  0072EA  C042  F001         	movff	USART_Init@baud_rate,___xxtofl@val
   790  0072EE  C043  F002         	movff	USART_Init@baud_rate+1,___xxtofl@val+1
   791  0072F2  C044  F003         	movff	USART_Init@baud_rate+2,___xxtofl@val+2
   792  0072F6  C045  F004         	movff	USART_Init@baud_rate+3,___xxtofl@val+3
   793  0072FA  0E01               	movlw	1
   794  0072FC  ECF9  F03A         	call	___xxtofl
   795  007300  C001  F013         	movff	?___xxtofl,___fldiv@a
   796  007304  C002  F014         	movff	?___xxtofl+1,___fldiv@a+1
   797  007308  C003  F015         	movff	?___xxtofl+2,___fldiv@a+2
   798  00730C  C004  F016         	movff	?___xxtofl+3,___fldiv@a+3
   799  007310  0E00               	movlw	0
   800  007312  6E0F               	movwf	___fldiv@b^0,c
   801  007314  0E24               	movlw	36
   802  007316  6E10               	movwf	(___fldiv@b+1)^0,c
   803  007318  0EF4               	movlw	244
   804  00731A  6E11               	movwf	(___fldiv@b+2)^0,c
   805  00731C  0E47               	movlw	71
   806  00731E  6E12               	movwf	(___fldiv@b+3)^0,c
   807  007320  ECD3  F03B         	call	___fldiv	;wreg free
   808  007324  C00F  F028         	movff	?___fldiv,___fladd@b
   809  007328  C010  F029         	movff	?___fldiv+1,___fladd@b+1
   810  00732C  C011  F02A         	movff	?___fldiv+2,___fladd@b+2
   811  007330  C012  F02B         	movff	?___fldiv+3,___fladd@b+3
   812  007334  ECA0  F03D         	call	___fladd	;wreg free
   813  007338  C028  F038         	movff	?___fladd,___fltol@f1
   814  00733C  C029  F039         	movff	?___fladd+1,___fltol@f1+1
   815  007340  C02A  F03A         	movff	?___fladd+2,___fltol@f1+2
   816  007344  C02B  F03B         	movff	?___fladd+3,___fltol@f1+3
   817  007348  ECAD  F039         	call	___fltol	;wreg free
   818  00734C  5038               	movf	?___fltol^0,w,c
   819  00734E  6EAF               	movwf	175,c	;volatile
   820  007350                     
   821                           ;USART_Source_File.c: 16:     TXSTA=0x20;
   822  007350  0E20               	movlw	32
   823  007352  6EAC               	movwf	172,c	;volatile
   824  007354                     
   825                           ;USART_Source_File.c: 17:     RCSTA=0x90;
   826  007354  0E90               	movlw	144
   827  007356  6EAB               	movwf	171,c	;volatile
   828  007358  0012               	return		;funcret
   829  00735A                     __end_of_USART_Init:
   830                           	callstack 0
   831                           
   832 ;; *************** function ___xxtofl *****************
   833 ;; Defined at:
   834 ;;		line 10 in file "D:\mplab\pic\sources\c99\common\xxtofl.c"
   835 ;; Parameters:    Size  Location     Type
   836 ;;  sign            1    wreg     unsigned char 
   837 ;;  val             4    0[COMRAM] long 
   838 ;; Auto vars:     Size  Location     Type
   839 ;;  sign            1    8[COMRAM] unsigned char 
   840 ;;  arg             4   10[COMRAM] unsigned long 
   841 ;;  exp             1    9[COMRAM] unsigned char 
   842 ;; Return value:  Size  Location     Type
   843 ;;                  4    0[COMRAM] unsigned char 
   844 ;; Registers used:
   845 ;;		wreg, status,2, status,0
   846 ;; Tracked objects:
   847 ;;		On entry : 0/0
   848 ;;		On exit  : 0/0
   849 ;;		Unchanged: 0/0
   850 ;; Data sizes:     COMRAM   BANK0   BANK1   BANK2   BANK3   BANK4   BANK5   BANK6   BANK7
   851 ;;      Params:         4       0       0       0       0       0       0       0       0
   852 ;;      Locals:         6       0       0       0       0       0       0       0       0
   853 ;;      Temps:          4       0       0       0       0       0       0       0       0
   854 ;;      Totals:        14       0       0       0       0       0       0       0       0
   855 ;;Total ram usage:       14 bytes
   856 ;; Hardware stack levels used: 1
   857 ;; This function calls:
   858 ;;		Nothing
   859 ;; This function is called by:
   860 ;;		_USART_Init
   861 ;; This function uses a non-reentrant model
   862 ;;
   863                           
   864                           	psect	text4
   865  0075F2                     __ptext4:
   866                           	callstack 0
   867  0075F2                     ___xxtofl:
   868                           	callstack 29
   869                           
   870                           ;incstack = 0
   871                           ;___xxtofl@sign stored from wreg
   872  0075F2  6E09               	movwf	___xxtofl@sign^0,c
   873  0075F4  5009               	movf	___xxtofl@sign^0,w,c
   874  0075F6  B4D8               	btfsc	status,2,c
   875  0075F8  EF00  F03B         	goto	u1811
   876  0075FC  EF02  F03B         	goto	u1810
   877  007600                     u1811:
   878  007600  EF24  F03B         	goto	l902
   879  007604                     u1810:
   880  007604  BE04               	btfsc	(___xxtofl@val+3)^0,7,c
   881  007606  EF09  F03B         	goto	u1820
   882  00760A  EF07  F03B         	goto	u1821
   883  00760E                     u1821:
   884  00760E  EF24  F03B         	goto	l902
   885  007612                     u1820:
   886  007612  C001  F005         	movff	___xxtofl@val,??___xxtofl
   887  007616  C002  F006         	movff	___xxtofl@val+1,??___xxtofl+1
   888  00761A  C003  F007         	movff	___xxtofl@val+2,??___xxtofl+2
   889  00761E  C004  F008         	movff	___xxtofl@val+3,??___xxtofl+3
   890  007622  1E05               	comf	??___xxtofl^0,f,c
   891  007624  1E06               	comf	(??___xxtofl+1)^0,f,c
   892  007626  1E07               	comf	(??___xxtofl+2)^0,f,c
   893  007628  1E08               	comf	(??___xxtofl+3)^0,f,c
   894  00762A  2A05               	incf	??___xxtofl^0,f,c
   895  00762C  0E00               	movlw	0
   896  00762E  2206               	addwfc	(??___xxtofl+1)^0,f,c
   897  007630  2207               	addwfc	(??___xxtofl+2)^0,f,c
   898  007632  2208               	addwfc	(??___xxtofl+3)^0,f,c
   899  007634  C005  F00B         	movff	??___xxtofl,___xxtofl@arg
   900  007638  C006  F00C         	movff	??___xxtofl+1,___xxtofl@arg+1
   901  00763C  C007  F00D         	movff	??___xxtofl+2,___xxtofl@arg+2
   902  007640  C008  F00E         	movff	??___xxtofl+3,___xxtofl@arg+3
   903  007644  EF2C  F03B         	goto	l1938
   904  007648                     l902:
   905  007648  C001  F00B         	movff	___xxtofl@val,___xxtofl@arg
   906  00764C  C002  F00C         	movff	___xxtofl@val+1,___xxtofl@arg+1
   907  007650  C003  F00D         	movff	___xxtofl@val+2,___xxtofl@arg+2
   908  007654  C004  F00E         	movff	___xxtofl@val+3,___xxtofl@arg+3
   909  007658                     l1938:
   910  007658  5001               	movf	___xxtofl@val^0,w,c
   911  00765A  1002               	iorwf	(___xxtofl@val+1)^0,w,c
   912  00765C  1003               	iorwf	(___xxtofl@val+2)^0,w,c
   913  00765E  1004               	iorwf	(___xxtofl@val+3)^0,w,c
   914  007660  A4D8               	btfss	status,2,c
   915  007662  EF35  F03B         	goto	u1831
   916  007666  EF37  F03B         	goto	u1830
   917  00766A                     u1831:
   918  00766A  EF41  F03B         	goto	l1944
   919  00766E                     u1830:
   920  00766E  0E00               	movlw	0
   921  007670  6E01               	movwf	?___xxtofl^0,c
   922  007672  0E00               	movlw	0
   923  007674  6E02               	movwf	(?___xxtofl+1)^0,c
   924  007676  0E00               	movlw	0
   925  007678  6E03               	movwf	(?___xxtofl+2)^0,c
   926  00767A  0E00               	movlw	0
   927  00767C  6E04               	movwf	(?___xxtofl+3)^0,c
   928  00767E  EFD2  F03B         	goto	l905
   929  007682                     l1944:
   930  007682  0E96               	movlw	150
   931  007684  6E0A               	movwf	___xxtofl@exp^0,c
   932  007686  EF4B  F03B         	goto	l1948
   933  00768A                     l1946:
   934  00768A  2A0A               	incf	___xxtofl@exp^0,f,c
   935  00768C  90D8               	bcf	status,0,c
   936  00768E  320E               	rrcf	(___xxtofl@arg+3)^0,f,c
   937  007690  320D               	rrcf	(___xxtofl@arg+2)^0,f,c
   938  007692  320C               	rrcf	(___xxtofl@arg+1)^0,f,c
   939  007694  320B               	rrcf	___xxtofl@arg^0,f,c
   940  007696                     l1948:
   941  007696  0E00               	movlw	0
   942  007698  140B               	andwf	___xxtofl@arg^0,w,c
   943  00769A  6E05               	movwf	??___xxtofl^0,c
   944  00769C  0E00               	movlw	0
   945  00769E  140C               	andwf	(___xxtofl@arg+1)^0,w,c
   946  0076A0  6E06               	movwf	(??___xxtofl+1)^0,c
   947  0076A2  0E00               	movlw	0
   948  0076A4  140D               	andwf	(___xxtofl@arg+2)^0,w,c
   949  0076A6  6E07               	movwf	(??___xxtofl+2)^0,c
   950  0076A8  0EFE               	movlw	254
   951  0076AA  140E               	andwf	(___xxtofl@arg+3)^0,w,c
   952  0076AC  6E08               	movwf	(??___xxtofl+3)^0,c
   953  0076AE  5005               	movf	??___xxtofl^0,w,c
   954  0076B0  1006               	iorwf	(??___xxtofl+1)^0,w,c
   955  0076B2  1007               	iorwf	(??___xxtofl+2)^0,w,c
   956  0076B4  1008               	iorwf	(??___xxtofl+3)^0,w,c
   957  0076B6  A4D8               	btfss	status,2,c
   958  0076B8  EF60  F03B         	goto	u1841
   959  0076BC  EF62  F03B         	goto	u1840
   960  0076C0                     u1841:
   961  0076C0  EF45  F03B         	goto	l1946
   962  0076C4                     u1840:
   963  0076C4  EF70  F03B         	goto	l909
   964  0076C8                     l1950:
   965  0076C8  2A0A               	incf	___xxtofl@exp^0,f,c
   966  0076CA  0E01               	movlw	1
   967  0076CC  260B               	addwf	___xxtofl@arg^0,f,c
   968  0076CE  0E00               	movlw	0
   969  0076D0  220C               	addwfc	(___xxtofl@arg+1)^0,f,c
   970  0076D2  220D               	addwfc	(___xxtofl@arg+2)^0,f,c
   971  0076D4  220E               	addwfc	(___xxtofl@arg+3)^0,f,c
   972  0076D6  90D8               	bcf	status,0,c
   973  0076D8  320E               	rrcf	(___xxtofl@arg+3)^0,f,c
   974  0076DA  320D               	rrcf	(___xxtofl@arg+2)^0,f,c
   975  0076DC  320C               	rrcf	(___xxtofl@arg+1)^0,f,c
   976  0076DE  320B               	rrcf	___xxtofl@arg^0,f,c
   977  0076E0                     l909:
   978  0076E0  0E00               	movlw	0
   979  0076E2  140B               	andwf	___xxtofl@arg^0,w,c
   980  0076E4  6E05               	movwf	??___xxtofl^0,c
   981  0076E6  0E00               	movlw	0
   982  0076E8  140C               	andwf	(___xxtofl@arg+1)^0,w,c
   983  0076EA  6E06               	movwf	(??___xxtofl+1)^0,c
   984  0076EC  0E00               	movlw	0
   985  0076EE  140D               	andwf	(___xxtofl@arg+2)^0,w,c
   986  0076F0  6E07               	movwf	(??___xxtofl+2)^0,c
   987  0076F2  0EFF               	movlw	255
   988  0076F4  140E               	andwf	(___xxtofl@arg+3)^0,w,c
   989  0076F6  6E08               	movwf	(??___xxtofl+3)^0,c
   990  0076F8  5005               	movf	??___xxtofl^0,w,c
   991  0076FA  1006               	iorwf	(??___xxtofl+1)^0,w,c
   992  0076FC  1007               	iorwf	(??___xxtofl+2)^0,w,c
   993  0076FE  1008               	iorwf	(??___xxtofl+3)^0,w,c
   994  007700  A4D8               	btfss	status,2,c
   995  007702  EF85  F03B         	goto	u1851
   996  007706  EF87  F03B         	goto	u1850
   997  00770A                     u1851:
   998  00770A  EF64  F03B         	goto	l1950
   999  00770E                     u1850:
  1000  00770E  EF8F  F03B         	goto	l1958
  1001  007712                     l1956:
  1002  007712  060A               	decf	___xxtofl@exp^0,f,c
  1003  007714  90D8               	bcf	status,0,c
  1004  007716  360B               	rlcf	___xxtofl@arg^0,f,c
  1005  007718  360C               	rlcf	(___xxtofl@arg+1)^0,f,c
  1006  00771A  360D               	rlcf	(___xxtofl@arg+2)^0,f,c
  1007  00771C  360E               	rlcf	(___xxtofl@arg+3)^0,f,c
  1008  00771E                     l1958:
  1009  00771E  BE0D               	btfsc	(___xxtofl@arg+2)^0,7,c
  1010  007720  EF94  F03B         	goto	u1861
  1011  007724  EF96  F03B         	goto	u1860
  1012  007728                     u1861:
  1013  007728  EF9E  F03B         	goto	l916
  1014  00772C                     u1860:
  1015  00772C  0E02               	movlw	2
  1016  00772E  600A               	cpfslt	___xxtofl@exp^0,c
  1017  007730  EF9C  F03B         	goto	u1871
  1018  007734  EF9E  F03B         	goto	u1870
  1019  007738                     u1871:
  1020  007738  EF89  F03B         	goto	l1956
  1021  00773C                     u1870:
  1022  00773C                     l916:
  1023  00773C  B00A               	btfsc	___xxtofl@exp^0,0,c
  1024  00773E  EFA3  F03B         	goto	u1881
  1025  007742  EFA5  F03B         	goto	u1880
  1026  007746                     u1881:
  1027  007746  EFA6  F03B         	goto	l1964
  1028  00774A                     u1880:
  1029  00774A  9E0D               	bcf	(___xxtofl@arg+2)^0,7,c
  1030  00774C                     l1964:
  1031  00774C  90D8               	bcf	status,0,c
  1032  00774E  320A               	rrcf	___xxtofl@exp^0,f,c
  1033  007750  C00A  F005         	movff	___xxtofl@exp,??___xxtofl
  1034  007754  6A06               	clrf	(??___xxtofl+1)^0,c
  1035  007756  6A07               	clrf	(??___xxtofl+2)^0,c
  1036  007758  6A08               	clrf	(??___xxtofl+3)^0,c
  1037  00775A  C005  F008         	movff	??___xxtofl,??___xxtofl+3
  1038  00775E  6A07               	clrf	(??___xxtofl+2)^0,c
  1039  007760  6A06               	clrf	(??___xxtofl+1)^0,c
  1040  007762  6A05               	clrf	??___xxtofl^0,c
  1041  007764  5005               	movf	??___xxtofl^0,w,c
  1042  007766  120B               	iorwf	___xxtofl@arg^0,f,c
  1043  007768  5006               	movf	(??___xxtofl+1)^0,w,c
  1044  00776A  120C               	iorwf	(___xxtofl@arg+1)^0,f,c
  1045  00776C  5007               	movf	(??___xxtofl+2)^0,w,c
  1046  00776E  120D               	iorwf	(___xxtofl@arg+2)^0,f,c
  1047  007770  5008               	movf	(??___xxtofl+3)^0,w,c
  1048  007772  120E               	iorwf	(___xxtofl@arg+3)^0,f,c
  1049  007774  5009               	movf	___xxtofl@sign^0,w,c
  1050  007776  B4D8               	btfsc	status,2,c
  1051  007778  EFC0  F03B         	goto	u1891
  1052  00777C  EFC2  F03B         	goto	u1890
  1053  007780                     u1891:
  1054  007780  EFCA  F03B         	goto	l1974
  1055  007784                     u1890:
  1056  007784  BE04               	btfsc	(___xxtofl@val+3)^0,7,c
  1057  007786  EFC9  F03B         	goto	u1900
  1058  00778A  EFC7  F03B         	goto	u1901
  1059  00778E                     u1901:
  1060  00778E  EFCA  F03B         	goto	l1974
  1061  007792                     u1900:
  1062  007792  8E0E               	bsf	(___xxtofl@arg+3)^0,7,c
  1063  007794                     l1974:
  1064  007794  C00B  F001         	movff	___xxtofl@arg,?___xxtofl
  1065  007798  C00C  F002         	movff	___xxtofl@arg+1,?___xxtofl+1
  1066  00779C  C00D  F003         	movff	___xxtofl@arg+2,?___xxtofl+2
  1067  0077A0  C00E  F004         	movff	___xxtofl@arg+3,?___xxtofl+3
  1068  0077A4                     l905:
  1069  0077A4  0012               	return		;funcret
  1070  0077A6                     __end_of___xxtofl:
  1071                           	callstack 0
  1072                           
  1073 ;; *************** function ___fltol *****************
  1074 ;; Defined at:
  1075 ;;		line 43 in file "D:\mplab\pic\sources\c99\common\fltol.c"
  1076 ;; Parameters:    Size  Location     Type
  1077 ;;  f1              4   55[COMRAM] unsigned char 
  1078 ;; Auto vars:     Size  Location     Type
  1079 ;;  exp1            1   64[COMRAM] unsigned char 
  1080 ;;  sign1           1   63[COMRAM] unsigned char 
  1081 ;; Return value:  Size  Location     Type
  1082 ;;                  4   55[COMRAM] long 
  1083 ;; Registers used:
  1084 ;;		wreg, status,2, status,0
  1085 ;; Tracked objects:
  1086 ;;		On entry : 0/0
  1087 ;;		On exit  : 0/0
  1088 ;;		Unchanged: 0/0
  1089 ;; Data sizes:     COMRAM   BANK0   BANK1   BANK2   BANK3   BANK4   BANK5   BANK6   BANK7
  1090 ;;      Params:         4       0       0       0       0       0       0       0       0
  1091 ;;      Locals:         2       0       0       0       0       0       0       0       0
  1092 ;;      Temps:          4       0       0       0       0       0       0       0       0
  1093 ;;      Totals:        10       0       0       0       0       0       0       0       0
  1094 ;;Total ram usage:       10 bytes
  1095 ;; Hardware stack levels used: 1
  1096 ;; This function calls:
  1097 ;;		Nothing
  1098 ;; This function is called by:
  1099 ;;		_USART_Init
  1100 ;; This function uses a non-reentrant model
  1101 ;;
  1102                           
  1103                           	psect	text5
  1104  00735A                     __ptext5:
  1105                           	callstack 0
  1106  00735A                     ___fltol:
  1107                           	callstack 29
  1108  00735A  343A               	rlcf	(___fltol@f1+2)^0,w,c
  1109  00735C  343B               	rlcf	(___fltol@f1+3)^0,w,c
  1110  00735E  6E41               	movwf	___fltol@exp1^0,c
  1111  007360  5041               	movf	___fltol@exp1^0,w,c
  1112  007362  A4D8               	btfss	status,2,c
  1113  007364  EFB6  F039         	goto	u1741
  1114  007368  EFB8  F039         	goto	u1740
  1115  00736C                     u1741:
  1116  00736C  EFC2  F039         	goto	l1894
  1117  007370                     u1740:
  1118  007370                     l1890:
  1119  007370  0E00               	movlw	0
  1120  007372  6E38               	movwf	?___fltol^0,c
  1121  007374  0E00               	movlw	0
  1122  007376  6E39               	movwf	(?___fltol+1)^0,c
  1123  007378  0E00               	movlw	0
  1124  00737A  6E3A               	movwf	(?___fltol+2)^0,c
  1125  00737C  0E00               	movlw	0
  1126  00737E  6E3B               	movwf	(?___fltol+3)^0,c
  1127  007380  EF2F  F03A         	goto	l544
  1128  007384                     l1894:
  1129  007384  C038  F03C         	movff	___fltol@f1,??___fltol
  1130  007388  C039  F03D         	movff	___fltol@f1+1,??___fltol+1
  1131  00738C  C03A  F03E         	movff	___fltol@f1+2,??___fltol+2
  1132  007390  C03B  F03F         	movff	___fltol@f1+3,??___fltol+3
  1133  007394  0E20               	movlw	32
  1134  007396  EFD2  F039         	goto	u1750
  1135  00739A                     u1755:
  1136  00739A  90D8               	bcf	status,0,c
  1137  00739C  323F               	rrcf	(??___fltol+3)^0,f,c
  1138  00739E  323E               	rrcf	(??___fltol+2)^0,f,c
  1139  0073A0  323D               	rrcf	(??___fltol+1)^0,f,c
  1140  0073A2  323C               	rrcf	??___fltol^0,f,c
  1141  0073A4                     u1750:
  1142  0073A4  2EE8               	decfsz	wreg,f,c
  1143  0073A6  EFCD  F039         	goto	u1755
  1144  0073AA  503C               	movf	??___fltol^0,w,c
  1145  0073AC  6E40               	movwf	___fltol@sign1^0,c
  1146  0073AE  8E3A               	bsf	(___fltol@f1+2)^0,7,c
  1147  0073B0  0EFF               	movlw	255
  1148  0073B2  1638               	andwf	___fltol@f1^0,f,c
  1149  0073B4  0EFF               	movlw	255
  1150  0073B6  1639               	andwf	(___fltol@f1+1)^0,f,c
  1151  0073B8  0EFF               	movlw	255
  1152  0073BA  163A               	andwf	(___fltol@f1+2)^0,f,c
  1153  0073BC  0E00               	movlw	0
  1154  0073BE  163B               	andwf	(___fltol@f1+3)^0,f,c
  1155  0073C0  0E96               	movlw	150
  1156  0073C2  5E41               	subwf	___fltol@exp1^0,f,c
  1157  0073C4  BE41               	btfsc	___fltol@exp1^0,7,c
  1158  0073C6  EFE9  F039         	goto	u1760
  1159  0073CA  EFE7  F039         	goto	u1761
  1160  0073CE                     u1761:
  1161  0073CE  EFFF  F039         	goto	l1914
  1162  0073D2                     u1760:
  1163  0073D2  5041               	movf	___fltol@exp1^0,w,c
  1164  0073D4  0A80               	xorlw	128
  1165  0073D6  0F97               	addlw	151
  1166  0073D8  B0D8               	btfsc	status,0,c
  1167  0073DA  EFF1  F039         	goto	u1771
  1168  0073DE  EFF3  F039         	goto	u1770
  1169  0073E2                     u1771:
  1170  0073E2  EFF5  F039         	goto	l1910
  1171  0073E6                     u1770:
  1172  0073E6  EFB8  F039         	goto	l1890
  1173  0073EA                     l1910:
  1174  0073EA  90D8               	bcf	status,0,c
  1175  0073EC  323B               	rrcf	(___fltol@f1+3)^0,f,c
  1176  0073EE  323A               	rrcf	(___fltol@f1+2)^0,f,c
  1177  0073F0  3239               	rrcf	(___fltol@f1+1)^0,f,c
  1178  0073F2  3238               	rrcf	___fltol@f1^0,f,c
  1179  0073F4  3E41               	incfsz	___fltol@exp1^0,f,c
  1180  0073F6  EFF5  F039         	goto	l1910
  1181  0073FA  EF17  F03A         	goto	l1924
  1182  0073FE                     l1914:
  1183  0073FE  0E1F               	movlw	31
  1184  007400  6441               	cpfsgt	___fltol@exp1^0,c
  1185  007402  EF05  F03A         	goto	u1781
  1186  007406  EF07  F03A         	goto	u1780
  1187  00740A                     u1781:
  1188  00740A  EF0F  F03A         	goto	l1922
  1189  00740E                     u1780:
  1190  00740E  EFB8  F039         	goto	l1890
  1191  007412                     l1920:
  1192  007412  90D8               	bcf	status,0,c
  1193  007414  3638               	rlcf	___fltol@f1^0,f,c
  1194  007416  3639               	rlcf	(___fltol@f1+1)^0,f,c
  1195  007418  363A               	rlcf	(___fltol@f1+2)^0,f,c
  1196  00741A  363B               	rlcf	(___fltol@f1+3)^0,f,c
  1197  00741C  0641               	decf	___fltol@exp1^0,f,c
  1198  00741E                     l1922:
  1199  00741E  5041               	movf	___fltol@exp1^0,w,c
  1200  007420  A4D8               	btfss	status,2,c
  1201  007422  EF15  F03A         	goto	u1791
  1202  007426  EF17  F03A         	goto	u1790
  1203  00742A                     u1791:
  1204  00742A  EF09  F03A         	goto	l1920
  1205  00742E                     u1790:
  1206  00742E                     l1924:
  1207  00742E  5040               	movf	___fltol@sign1^0,w,c
  1208  007430  B4D8               	btfsc	status,2,c
  1209  007432  EF1D  F03A         	goto	u1801
  1210  007436  EF1F  F03A         	goto	u1800
  1211  00743A                     u1801:
  1212  00743A  EF27  F03A         	goto	l1928
  1213  00743E                     u1800:
  1214  00743E  1E3B               	comf	(___fltol@f1+3)^0,f,c
  1215  007440  1E3A               	comf	(___fltol@f1+2)^0,f,c
  1216  007442  1E39               	comf	(___fltol@f1+1)^0,f,c
  1217  007444  6C38               	negf	___fltol@f1^0,c
  1218  007446  0E00               	movlw	0
  1219  007448  2239               	addwfc	(___fltol@f1+1)^0,f,c
  1220  00744A  223A               	addwfc	(___fltol@f1+2)^0,f,c
  1221  00744C  223B               	addwfc	(___fltol@f1+3)^0,f,c
  1222  00744E                     l1928:
  1223  00744E  C038  F038         	movff	___fltol@f1,?___fltol
  1224  007452  C039  F039         	movff	___fltol@f1+1,?___fltol+1
  1225  007456  C03A  F03A         	movff	___fltol@f1+2,?___fltol+2
  1226  00745A  C03B  F03B         	movff	___fltol@f1+3,?___fltol+3
  1227  00745E                     l544:
  1228  00745E  0012               	return		;funcret
  1229  007460                     __end_of___fltol:
  1230                           	callstack 0
  1231                           
  1232 ;; *************** function ___fldiv *****************
  1233 ;; Defined at:
  1234 ;;		line 11 in file "D:\mplab\pic\sources\c99\common\sprcdiv.c"
  1235 ;; Parameters:    Size  Location     Type
  1236 ;;  b               4   14[COMRAM] long 
  1237 ;;  a               4   18[COMRAM] long 
  1238 ;; Auto vars:     Size  Location     Type
  1239 ;;  grs             4   33[COMRAM] unsigned long 
  1240 ;;  rem             4   26[COMRAM] unsigned long 
  1241 ;;  new_exp         2   31[COMRAM] short 
  1242 ;;  aexp            1   38[COMRAM] unsigned char 
  1243 ;;  bexp            1   37[COMRAM] unsigned char 
  1244 ;;  sign            1   30[COMRAM] unsigned char 
  1245 ;; Return value:  Size  Location     Type
  1246 ;;                  4   14[COMRAM] unsigned char 
  1247 ;; Registers used:
  1248 ;;		wreg, status,2, status,0
  1249 ;; Tracked objects:
  1250 ;;		On entry : 0/0
  1251 ;;		On exit  : 0/0
  1252 ;;		Unchanged: 0/0
  1253 ;; Data sizes:     COMRAM   BANK0   BANK1   BANK2   BANK3   BANK4   BANK5   BANK6   BANK7
  1254 ;;      Params:         8       0       0       0       0       0       0       0       0
  1255 ;;      Locals:        13       0       0       0       0       0       0       0       0
  1256 ;;      Temps:          4       0       0       0       0       0       0       0       0
  1257 ;;      Totals:        25       0       0       0       0       0       0       0       0
  1258 ;;Total ram usage:       25 bytes
  1259 ;; Hardware stack levels used: 1
  1260 ;; This function calls:
  1261 ;;		Nothing
  1262 ;; This function is called by:
  1263 ;;		_USART_Init
  1264 ;; This function uses a non-reentrant model
  1265 ;;
  1266                           
  1267                           	psect	text6
  1268  0077A6                     __ptext6:
  1269                           	callstack 0
  1270  0077A6                     ___fldiv:
  1271                           	callstack 29
  1272  0077A6  5012               	movf	(___fldiv@b+3)^0,w,c
  1273  0077A8  0B80               	andlw	128
  1274  0077AA  6E1F               	movwf	___fldiv@sign^0,c
  1275  0077AC  5012               	movf	(___fldiv@b+3)^0,w,c
  1276  0077AE  2412               	addwf	(___fldiv@b+3)^0,w,c
  1277  0077B0  6E26               	movwf	___fldiv@bexp^0,c
  1278  0077B2  AE11               	btfss	(___fldiv@b+2)^0,7,c
  1279  0077B4  EFDE  F03B         	goto	u1511
  1280  0077B8  EFE0  F03B         	goto	u1510
  1281  0077BC                     u1511:
  1282  0077BC  EFE1  F03B         	goto	l1756
  1283  0077C0                     u1510:
  1284  0077C0  8026               	bsf	___fldiv@bexp^0,0,c
  1285  0077C2                     l1756:
  1286  0077C2  5026               	movf	___fldiv@bexp^0,w,c
  1287  0077C4  B4D8               	btfsc	status,2,c
  1288  0077C6  EFE7  F03B         	goto	u1521
  1289  0077CA  EFE9  F03B         	goto	u1520
  1290  0077CE                     u1521:
  1291  0077CE  EFFE  F03B         	goto	l1766
  1292  0077D2                     u1520:
  1293  0077D2  2826               	incf	___fldiv@bexp^0,w,c
  1294  0077D4  A4D8               	btfss	status,2,c
  1295  0077D6  EFEF  F03B         	goto	u1531
  1296  0077DA  EFF1  F03B         	goto	u1530
  1297  0077DE                     u1531:
  1298  0077DE  EFF9  F03B         	goto	l1762
  1299  0077E2                     u1530:
  1300  0077E2  0E00               	movlw	0
  1301  0077E4  6E0F               	movwf	___fldiv@b^0,c
  1302  0077E6  0E00               	movlw	0
  1303  0077E8  6E10               	movwf	(___fldiv@b+1)^0,c
  1304  0077EA  0E00               	movlw	0
  1305  0077EC  6E11               	movwf	(___fldiv@b+2)^0,c
  1306  0077EE  0E00               	movlw	0
  1307  0077F0  6E12               	movwf	(___fldiv@b+3)^0,c
  1308  0077F2                     l1762:
  1309  0077F2  8E11               	bsf	(___fldiv@b+2)^0,7,c
  1310  0077F4  0E00               	movlw	0
  1311  0077F6  6E12               	movwf	(___fldiv@b+3)^0,c
  1312  0077F8  EF06  F03C         	goto	l1768
  1313  0077FC                     l1766:
  1314  0077FC  0E00               	movlw	0
  1315  0077FE  6E0F               	movwf	___fldiv@b^0,c
  1316  007800  0E00               	movlw	0
  1317  007802  6E10               	movwf	(___fldiv@b+1)^0,c
  1318  007804  0E00               	movlw	0
  1319  007806  6E11               	movwf	(___fldiv@b+2)^0,c
  1320  007808  0E00               	movlw	0
  1321  00780A  6E12               	movwf	(___fldiv@b+3)^0,c
  1322  00780C                     l1768:
  1323  00780C  5016               	movf	(___fldiv@a+3)^0,w,c
  1324  00780E  0B80               	andlw	128
  1325  007810  1A1F               	xorwf	___fldiv@sign^0,f,c
  1326  007812  5016               	movf	(___fldiv@a+3)^0,w,c
  1327  007814  2416               	addwf	(___fldiv@a+3)^0,w,c
  1328  007816  6E27               	movwf	___fldiv@aexp^0,c
  1329  007818  AE15               	btfss	(___fldiv@a+2)^0,7,c
  1330  00781A  EF11  F03C         	goto	u1541
  1331  00781E  EF13  F03C         	goto	u1540
  1332  007822                     u1541:
  1333  007822  EF14  F03C         	goto	l1776
  1334  007826                     u1540:
  1335  007826  8027               	bsf	___fldiv@aexp^0,0,c
  1336  007828                     l1776:
  1337  007828  5027               	movf	___fldiv@aexp^0,w,c
  1338  00782A  B4D8               	btfsc	status,2,c
  1339  00782C  EF1A  F03C         	goto	u1551
  1340  007830  EF1C  F03C         	goto	u1550
  1341  007834                     u1551:
  1342  007834  EF31  F03C         	goto	l1786
  1343  007838                     u1550:
  1344  007838  2827               	incf	___fldiv@aexp^0,w,c
  1345  00783A  A4D8               	btfss	status,2,c
  1346  00783C  EF22  F03C         	goto	u1561
  1347  007840  EF24  F03C         	goto	u1560
  1348  007844                     u1561:
  1349  007844  EF2C  F03C         	goto	l1782
  1350  007848                     u1560:
  1351  007848  0E00               	movlw	0
  1352  00784A  6E13               	movwf	___fldiv@a^0,c
  1353  00784C  0E00               	movlw	0
  1354  00784E  6E14               	movwf	(___fldiv@a+1)^0,c
  1355  007850  0E00               	movlw	0
  1356  007852  6E15               	movwf	(___fldiv@a+2)^0,c
  1357  007854  0E00               	movlw	0
  1358  007856  6E16               	movwf	(___fldiv@a+3)^0,c
  1359  007858                     l1782:
  1360  007858  8E15               	bsf	(___fldiv@a+2)^0,7,c
  1361  00785A  0E00               	movlw	0
  1362  00785C  6E16               	movwf	(___fldiv@a+3)^0,c
  1363  00785E  EF39  F03C         	goto	l1788
  1364  007862                     l1786:
  1365  007862  0E00               	movlw	0
  1366  007864  6E13               	movwf	___fldiv@a^0,c
  1367  007866  0E00               	movlw	0
  1368  007868  6E14               	movwf	(___fldiv@a+1)^0,c
  1369  00786A  0E00               	movlw	0
  1370  00786C  6E15               	movwf	(___fldiv@a+2)^0,c
  1371  00786E  0E00               	movlw	0
  1372  007870  6E16               	movwf	(___fldiv@a+3)^0,c
  1373  007872                     l1788:
  1374  007872  5013               	movf	___fldiv@a^0,w,c
  1375  007874  1014               	iorwf	(___fldiv@a+1)^0,w,c
  1376  007876  1015               	iorwf	(___fldiv@a+2)^0,w,c
  1377  007878  1016               	iorwf	(___fldiv@a+3)^0,w,c
  1378  00787A  A4D8               	btfss	status,2,c
  1379  00787C  EF42  F03C         	goto	u1571
  1380  007880  EF44  F03C         	goto	u1570
  1381  007884                     u1571:
  1382  007884  EF5C  F03C         	goto	l1800
  1383  007888                     u1570:
  1384  007888  0E00               	movlw	0
  1385  00788A  6E0F               	movwf	___fldiv@b^0,c
  1386  00788C  0E00               	movlw	0
  1387  00788E  6E10               	movwf	(___fldiv@b+1)^0,c
  1388  007890  0E00               	movlw	0
  1389  007892  6E11               	movwf	(___fldiv@b+2)^0,c
  1390  007894  0E00               	movlw	0
  1391  007896  6E12               	movwf	(___fldiv@b+3)^0,c
  1392  007898  0E80               	movlw	128
  1393  00789A  1211               	iorwf	(___fldiv@b+2)^0,f,c
  1394  00789C  0E7F               	movlw	127
  1395  00789E  1212               	iorwf	(___fldiv@b+3)^0,f,c
  1396  0078A0                     l1794:
  1397  0078A0  501F               	movf	___fldiv@sign^0,w,c
  1398  0078A2  1212               	iorwf	(___fldiv@b+3)^0,f,c
  1399  0078A4  C00F  F00F         	movff	___fldiv@b,?___fldiv
  1400  0078A8  C010  F010         	movff	___fldiv@b+1,?___fldiv+1
  1401  0078AC  C011  F011         	movff	___fldiv@b+2,?___fldiv+2
  1402  0078B0  C012  F012         	movff	___fldiv@b+3,?___fldiv+3
  1403  0078B4  EF9F  F03D         	goto	l829
  1404  0078B8                     l1800:
  1405  0078B8  5026               	movf	___fldiv@bexp^0,w,c
  1406  0078BA  A4D8               	btfss	status,2,c
  1407  0078BC  EF62  F03C         	goto	u1581
  1408  0078C0  EF64  F03C         	goto	u1580
  1409  0078C4                     u1581:
  1410  0078C4  EF6E  F03C         	goto	l1808
  1411  0078C8                     u1580:
  1412  0078C8  0E00               	movlw	0
  1413  0078CA  6E0F               	movwf	?___fldiv^0,c
  1414  0078CC  0E00               	movlw	0
  1415  0078CE  6E10               	movwf	(?___fldiv+1)^0,c
  1416  0078D0  0E00               	movlw	0
  1417  0078D2  6E11               	movwf	(?___fldiv+2)^0,c
  1418  0078D4  0E00               	movlw	0
  1419  0078D6  6E12               	movwf	(?___fldiv+3)^0,c
  1420  0078D8  EF9F  F03D         	goto	l829
  1421  0078DC                     l1808:
  1422  0078DC  5027               	movf	___fldiv@aexp^0,w,c
  1423  0078DE  C026  F017         	movff	___fldiv@bexp,??___fldiv
  1424  0078E2  6A18               	clrf	(??___fldiv+1)^0,c
  1425  0078E4  5E17               	subwf	??___fldiv^0,f,c
  1426  0078E6  0E00               	movlw	0
  1427  0078E8  5A18               	subwfb	(??___fldiv+1)^0,f,c
  1428  0078EA  0E7F               	movlw	127
  1429  0078EC  2417               	addwf	??___fldiv^0,w,c
  1430  0078EE  6E20               	movwf	___fldiv@new_exp^0,c
  1431  0078F0  0E00               	movlw	0
  1432  0078F2  2018               	addwfc	(??___fldiv+1)^0,w,c
  1433  0078F4  6E21               	movwf	(___fldiv@new_exp+1)^0,c
  1434  0078F6  C00F  F01B         	movff	___fldiv@b,___fldiv@rem
  1435  0078FA  C010  F01C         	movff	___fldiv@b+1,___fldiv@rem+1
  1436  0078FE  C011  F01D         	movff	___fldiv@b+2,___fldiv@rem+2
  1437  007902  C012  F01E         	movff	___fldiv@b+3,___fldiv@rem+3
  1438  007906  0E00               	movlw	0
  1439  007908  6E0F               	movwf	___fldiv@b^0,c
  1440  00790A  0E00               	movlw	0
  1441  00790C  6E10               	movwf	(___fldiv@b+1)^0,c
  1442  00790E  0E00               	movlw	0
  1443  007910  6E11               	movwf	(___fldiv@b+2)^0,c
  1444  007912  0E00               	movlw	0
  1445  007914  6E12               	movwf	(___fldiv@b+3)^0,c
  1446  007916  0E00               	movlw	0
  1447  007918  6E22               	movwf	___fldiv@grs^0,c
  1448  00791A  0E00               	movlw	0
  1449  00791C  6E23               	movwf	(___fldiv@grs+1)^0,c
  1450  00791E  0E00               	movlw	0
  1451  007920  6E24               	movwf	(___fldiv@grs+2)^0,c
  1452  007922  0E00               	movlw	0
  1453  007924  6E25               	movwf	(___fldiv@grs+3)^0,c
  1454  007926  0E00               	movlw	0
  1455  007928  6E27               	movwf	___fldiv@aexp^0,c
  1456  00792A  EFCF  F03C         	goto	l831
  1457  00792E                     l1818:
  1458  00792E  5027               	movf	___fldiv@aexp^0,w,c
  1459  007930  B4D8               	btfsc	status,2,c
  1460  007932  EF9D  F03C         	goto	u1591
  1461  007936  EF9F  F03C         	goto	u1590
  1462  00793A                     u1591:
  1463  00793A  EFB6  F03C         	goto	l1826
  1464  00793E                     u1590:
  1465  00793E  90D8               	bcf	status,0,c
  1466  007940  361B               	rlcf	___fldiv@rem^0,f,c
  1467  007942  361C               	rlcf	(___fldiv@rem+1)^0,f,c
  1468  007944  361D               	rlcf	(___fldiv@rem+2)^0,f,c
  1469  007946  361E               	rlcf	(___fldiv@rem+3)^0,f,c
  1470  007948  90D8               	bcf	status,0,c
  1471  00794A  360F               	rlcf	___fldiv@b^0,f,c
  1472  00794C  3610               	rlcf	(___fldiv@b+1)^0,f,c
  1473  00794E  3611               	rlcf	(___fldiv@b+2)^0,f,c
  1474  007950  3612               	rlcf	(___fldiv@b+3)^0,f,c
  1475  007952  AE25               	btfss	(___fldiv@grs+3)^0,7,c
  1476  007954  EFAE  F03C         	goto	u1601
  1477  007958  EFB0  F03C         	goto	u1600
  1478  00795C                     u1601:
  1479  00795C  EFB1  F03C         	goto	l834
  1480  007960                     u1600:
  1481  007960  800F               	bsf	___fldiv@b^0,0,c
  1482  007962                     l834:
  1483  007962  90D8               	bcf	status,0,c
  1484  007964  3622               	rlcf	___fldiv@grs^0,f,c
  1485  007966  3623               	rlcf	(___fldiv@grs+1)^0,f,c
  1486  007968  3624               	rlcf	(___fldiv@grs+2)^0,f,c
  1487  00796A  3625               	rlcf	(___fldiv@grs+3)^0,f,c
  1488  00796C                     l1826:
  1489  00796C  5013               	movf	___fldiv@a^0,w,c
  1490  00796E  5C1B               	subwf	___fldiv@rem^0,w,c
  1491  007970  5014               	movf	(___fldiv@a+1)^0,w,c
  1492  007972  581C               	subwfb	(___fldiv@rem+1)^0,w,c
  1493  007974  5015               	movf	(___fldiv@a+2)^0,w,c
  1494  007976  581D               	subwfb	(___fldiv@rem+2)^0,w,c
  1495  007978  5016               	movf	(___fldiv@a+3)^0,w,c
  1496  00797A  581E               	subwfb	(___fldiv@rem+3)^0,w,c
  1497  00797C  A0D8               	btfss	status,0,c
  1498  00797E  EFC3  F03C         	goto	u1611
  1499  007982  EFC5  F03C         	goto	u1610
  1500  007986                     u1611:
  1501  007986  EFCE  F03C         	goto	l1832
  1502  00798A                     u1610:
  1503  00798A  8C25               	bsf	(___fldiv@grs+3)^0,6,c
  1504  00798C  5013               	movf	___fldiv@a^0,w,c
  1505  00798E  5E1B               	subwf	___fldiv@rem^0,f,c
  1506  007990  5014               	movf	(___fldiv@a+1)^0,w,c
  1507  007992  5A1C               	subwfb	(___fldiv@rem+1)^0,f,c
  1508  007994  5015               	movf	(___fldiv@a+2)^0,w,c
  1509  007996  5A1D               	subwfb	(___fldiv@rem+2)^0,f,c
  1510  007998  5016               	movf	(___fldiv@a+3)^0,w,c
  1511  00799A  5A1E               	subwfb	(___fldiv@rem+3)^0,f,c
  1512  00799C                     l1832:
  1513  00799C  2A27               	incf	___fldiv@aexp^0,f,c
  1514  00799E                     l831:
  1515  00799E  0E19               	movlw	25
  1516  0079A0  6427               	cpfsgt	___fldiv@aexp^0,c
  1517  0079A2  EFD5  F03C         	goto	u1621
  1518  0079A6  EFD7  F03C         	goto	u1620
  1519  0079AA                     u1621:
  1520  0079AA  EF97  F03C         	goto	l1818
  1521  0079AE                     u1620:
  1522  0079AE  501B               	movf	___fldiv@rem^0,w,c
  1523  0079B0  101C               	iorwf	(___fldiv@rem+1)^0,w,c
  1524  0079B2  101D               	iorwf	(___fldiv@rem+2)^0,w,c
  1525  0079B4  101E               	iorwf	(___fldiv@rem+3)^0,w,c
  1526  0079B6  B4D8               	btfsc	status,2,c
  1527  0079B8  EFE0  F03C         	goto	u1631
  1528  0079BC  EFE2  F03C         	goto	u1630
  1529  0079C0                     u1631:
  1530  0079C0  EFFA  F03C         	goto	l1844
  1531  0079C4                     u1630:
  1532  0079C4  8022               	bsf	___fldiv@grs^0,0,c
  1533  0079C6  EFFA  F03C         	goto	l1844
  1534  0079CA                     l1838:
  1535  0079CA  90D8               	bcf	status,0,c
  1536  0079CC  360F               	rlcf	___fldiv@b^0,f,c
  1537  0079CE  3610               	rlcf	(___fldiv@b+1)^0,f,c
  1538  0079D0  3611               	rlcf	(___fldiv@b+2)^0,f,c
  1539  0079D2  3612               	rlcf	(___fldiv@b+3)^0,f,c
  1540  0079D4  AE25               	btfss	(___fldiv@grs+3)^0,7,c
  1541  0079D6  EFEF  F03C         	goto	u1641
  1542  0079DA  EFF1  F03C         	goto	u1640
  1543  0079DE                     u1641:
  1544  0079DE  EFF2  F03C         	goto	l840
  1545  0079E2                     u1640:
  1546  0079E2  800F               	bsf	___fldiv@b^0,0,c
  1547  0079E4                     l840:
  1548  0079E4  90D8               	bcf	status,0,c
  1549  0079E6  3622               	rlcf	___fldiv@grs^0,f,c
  1550  0079E8  3623               	rlcf	(___fldiv@grs+1)^0,f,c
  1551  0079EA  3624               	rlcf	(___fldiv@grs+2)^0,f,c
  1552  0079EC  3625               	rlcf	(___fldiv@grs+3)^0,f,c
  1553  0079EE  0620               	decf	___fldiv@new_exp^0,f,c
  1554  0079F0  A0D8               	btfss	status,0,c
  1555  0079F2  0621               	decf	(___fldiv@new_exp+1)^0,f,c
  1556  0079F4                     l1844:
  1557  0079F4  AE11               	btfss	(___fldiv@b+2)^0,7,c
  1558  0079F6  EFFF  F03C         	goto	u1651
  1559  0079FA  EF01  F03D         	goto	u1650
  1560  0079FE                     u1651:
  1561  0079FE  EFE5  F03C         	goto	l1838
  1562  007A02                     u1650:
  1563  007A02  0E00               	movlw	0
  1564  007A04  6E27               	movwf	___fldiv@aexp^0,c
  1565  007A06  AE25               	btfss	(___fldiv@grs+3)^0,7,c
  1566  007A08  EF08  F03D         	goto	u1661
  1567  007A0C  EF0A  F03D         	goto	u1660
  1568  007A10                     u1661:
  1569  007A10  EF2E  F03D         	goto	l842
  1570  007A14                     u1660:
  1571  007A14  0EFF               	movlw	255
  1572  007A16  1422               	andwf	___fldiv@grs^0,w,c
  1573  007A18  6E17               	movwf	??___fldiv^0,c
  1574  007A1A  0EFF               	movlw	255
  1575  007A1C  1423               	andwf	(___fldiv@grs+1)^0,w,c
  1576  007A1E  6E18               	movwf	(??___fldiv+1)^0,c
  1577  007A20  0EFF               	movlw	255
  1578  007A22  1424               	andwf	(___fldiv@grs+2)^0,w,c
  1579  007A24  6E19               	movwf	(??___fldiv+2)^0,c
  1580  007A26  0E7F               	movlw	127
  1581  007A28  1425               	andwf	(___fldiv@grs+3)^0,w,c
  1582  007A2A  6E1A               	movwf	(??___fldiv+3)^0,c
  1583  007A2C  5017               	movf	??___fldiv^0,w,c
  1584  007A2E  1018               	iorwf	(??___fldiv+1)^0,w,c
  1585  007A30  1019               	iorwf	(??___fldiv+2)^0,w,c
  1586  007A32  101A               	iorwf	(??___fldiv+3)^0,w,c
  1587  007A34  B4D8               	btfsc	status,2,c
  1588  007A36  EF1F  F03D         	goto	u1671
  1589  007A3A  EF21  F03D         	goto	u1670
  1590  007A3E                     u1671:
  1591  007A3E  EF25  F03D         	goto	l843
  1592  007A42                     u1670:
  1593  007A42                     l1852:
  1594  007A42  0E01               	movlw	1
  1595  007A44  6E27               	movwf	___fldiv@aexp^0,c
  1596  007A46  EF2E  F03D         	goto	l842
  1597  007A4A                     l843:
  1598  007A4A  A00F               	btfss	___fldiv@b^0,0,c
  1599  007A4C  EF2A  F03D         	goto	u1681
  1600  007A50  EF2C  F03D         	goto	u1680
  1601  007A54                     u1681:
  1602  007A54  EF2E  F03D         	goto	l842
  1603  007A58                     u1680:
  1604  007A58  EF21  F03D         	goto	l1852
  1605  007A5C                     l842:
  1606  007A5C  5027               	movf	___fldiv@aexp^0,w,c
  1607  007A5E  B4D8               	btfsc	status,2,c
  1608  007A60  EF34  F03D         	goto	u1691
  1609  007A64  EF36  F03D         	goto	u1690
  1610  007A68                     u1691:
  1611  007A68  EF5A  F03D         	goto	l1864
  1612  007A6C                     u1690:
  1613  007A6C  0E01               	movlw	1
  1614  007A6E  260F               	addwf	___fldiv@b^0,f,c
  1615  007A70  0E00               	movlw	0
  1616  007A72  2210               	addwfc	(___fldiv@b+1)^0,f,c
  1617  007A74  2211               	addwfc	(___fldiv@b+2)^0,f,c
  1618  007A76  2212               	addwfc	(___fldiv@b+3)^0,f,c
  1619  007A78  A012               	btfss	(___fldiv@b+3)^0,0,c
  1620  007A7A  EF41  F03D         	goto	u1701
  1621  007A7E  EF43  F03D         	goto	u1700
  1622  007A82                     u1701:
  1623  007A82  EF5A  F03D         	goto	l1864
  1624  007A86                     u1700:
  1625  007A86  C00F  F017         	movff	___fldiv@b,??___fldiv
  1626  007A8A  C010  F018         	movff	___fldiv@b+1,??___fldiv+1
  1627  007A8E  C011  F019         	movff	___fldiv@b+2,??___fldiv+2
  1628  007A92  C012  F01A         	movff	___fldiv@b+3,??___fldiv+3
  1629  007A96  341A               	rlcf	(??___fldiv+3)^0,w,c
  1630  007A98  321A               	rrcf	(??___fldiv+3)^0,f,c
  1631  007A9A  3219               	rrcf	(??___fldiv+2)^0,f,c
  1632  007A9C  3218               	rrcf	(??___fldiv+1)^0,f,c
  1633  007A9E  3217               	rrcf	??___fldiv^0,f,c
  1634  007AA0  C017  F00F         	movff	??___fldiv,___fldiv@b
  1635  007AA4  C018  F010         	movff	??___fldiv+1,___fldiv@b+1
  1636  007AA8  C019  F011         	movff	??___fldiv+2,___fldiv@b+2
  1637  007AAC  C01A  F012         	movff	??___fldiv+3,___fldiv@b+3
  1638  007AB0  4A20               	infsnz	___fldiv@new_exp^0,f,c
  1639  007AB2  2A21               	incf	(___fldiv@new_exp+1)^0,f,c
  1640  007AB4                     l1864:
  1641  007AB4  BE21               	btfsc	(___fldiv@new_exp+1)^0,7,c
  1642  007AB6  EF65  F03D         	goto	u1711
  1643  007ABA  5021               	movf	(___fldiv@new_exp+1)^0,w,c
  1644  007ABC  E108               	bnz	u1710
  1645  007ABE  2820               	incf	___fldiv@new_exp^0,w,c
  1646  007AC0  A0D8               	btfss	status,0,c
  1647  007AC2  EF65  F03D         	goto	u1711
  1648  007AC6  EF67  F03D         	goto	u1710
  1649  007ACA                     u1711:
  1650  007ACA  EF72  F03D         	goto	l1868
  1651  007ACE                     u1710:
  1652  007ACE  0E00               	movlw	0
  1653  007AD0  6E21               	movwf	(___fldiv@new_exp+1)^0,c
  1654  007AD2  6820               	setf	___fldiv@new_exp^0,c
  1655  007AD4  0E00               	movlw	0
  1656  007AD6  6E0F               	movwf	___fldiv@b^0,c
  1657  007AD8  0E00               	movlw	0
  1658  007ADA  6E10               	movwf	(___fldiv@b+1)^0,c
  1659  007ADC  0E00               	movlw	0
  1660  007ADE  6E11               	movwf	(___fldiv@b+2)^0,c
  1661  007AE0  0E00               	movlw	0
  1662  007AE2  6E12               	movwf	(___fldiv@b+3)^0,c
  1663  007AE4                     l1868:
  1664  007AE4  BE21               	btfsc	(___fldiv@new_exp+1)^0,7,c
  1665  007AE6  EF7F  F03D         	goto	u1720
  1666  007AEA  5021               	movf	(___fldiv@new_exp+1)^0,w,c
  1667  007AEC  E106               	bnz	u1721
  1668  007AEE  0420               	decf	___fldiv@new_exp^0,w,c
  1669  007AF0  B0D8               	btfsc	status,0,c
  1670  007AF2  EF7D  F03D         	goto	u1721
  1671  007AF6  EF7F  F03D         	goto	u1720
  1672  007AFA                     u1721:
  1673  007AFA  EF8D  F03D         	goto	l1872
  1674  007AFE                     u1720:
  1675  007AFE  0E00               	movlw	0
  1676  007B00  6E21               	movwf	(___fldiv@new_exp+1)^0,c
  1677  007B02  0E00               	movlw	0
  1678  007B04  6E20               	movwf	___fldiv@new_exp^0,c
  1679  007B06  0E00               	movlw	0
  1680  007B08  6E0F               	movwf	___fldiv@b^0,c
  1681  007B0A  0E00               	movlw	0
  1682  007B0C  6E10               	movwf	(___fldiv@b+1)^0,c
  1683  007B0E  0E00               	movlw	0
  1684  007B10  6E11               	movwf	(___fldiv@b+2)^0,c
  1685  007B12  0E00               	movlw	0
  1686  007B14  6E12               	movwf	(___fldiv@b+3)^0,c
  1687  007B16  0E00               	movlw	0
  1688  007B18  6E1F               	movwf	___fldiv@sign^0,c
  1689  007B1A                     l1872:
  1690  007B1A  C020  F026         	movff	___fldiv@new_exp,___fldiv@bexp
  1691  007B1E  A026               	btfss	___fldiv@bexp^0,0,c
  1692  007B20  EF94  F03D         	goto	u1731
  1693  007B24  EF96  F03D         	goto	u1730
  1694  007B28                     u1731:
  1695  007B28  EF99  F03D         	goto	l1878
  1696  007B2C                     u1730:
  1697  007B2C  8E11               	bsf	(___fldiv@b+2)^0,7,c
  1698  007B2E  EF9A  F03D         	goto	l1880
  1699  007B32                     l1878:
  1700  007B32  9E11               	bcf	(___fldiv@b+2)^0,7,c
  1701  007B34                     l1880:
  1702  007B34  90D8               	bcf	status,0,c
  1703  007B36  3026               	rrcf	___fldiv@bexp^0,w,c
  1704  007B38  6E12               	movwf	(___fldiv@b+3)^0,c
  1705  007B3A  EF50  F03C         	goto	l1794
  1706  007B3E                     l829:
  1707  007B3E  0012               	return		;funcret
  1708  007B40                     __end_of___fldiv:
  1709                           	callstack 0
  1710                           
  1711 ;; *************** function ___fladd *****************
  1712 ;; Defined at:
  1713 ;;		line 10 in file "D:\mplab\pic\sources\c99\common\sprcadd.c"
  1714 ;; Parameters:    Size  Location     Type
  1715 ;;  b               4   39[COMRAM] unsigned char 
  1716 ;;  a               4   43[COMRAM] unsigned char 
  1717 ;; Auto vars:     Size  Location     Type
  1718 ;;  grs             1   54[COMRAM] unsigned char 
  1719 ;;  bexp            1   53[COMRAM] unsigned char 
  1720 ;;  aexp            1   52[COMRAM] unsigned char 
  1721 ;;  signs           1   51[COMRAM] unsigned char 
  1722 ;; Return value:  Size  Location     Type
  1723 ;;                  4   39[COMRAM] unsigned char 
  1724 ;; Registers used:
  1725 ;;		wreg, status,2, status,0
  1726 ;; Tracked objects:
  1727 ;;		On entry : 0/0
  1728 ;;		On exit  : 0/0
  1729 ;;		Unchanged: 0/0
  1730 ;; Data sizes:     COMRAM   BANK0   BANK1   BANK2   BANK3   BANK4   BANK5   BANK6   BANK7
  1731 ;;      Params:         8       0       0       0       0       0       0       0       0
  1732 ;;      Locals:         4       0       0       0       0       0       0       0       0
  1733 ;;      Temps:          4       0       0       0       0       0       0       0       0
  1734 ;;      Totals:        16       0       0       0       0       0       0       0       0
  1735 ;;Total ram usage:       16 bytes
  1736 ;; Hardware stack levels used: 1
  1737 ;; This function calls:
  1738 ;;		Nothing
  1739 ;; This function is called by:
  1740 ;;		_USART_Init
  1741 ;; This function uses a non-reentrant model
  1742 ;;
  1743                           
  1744                           	psect	text7
  1745  007B40                     __ptext7:
  1746                           	callstack 0
  1747  007B40                     ___fladd:
  1748                           	callstack 29
  1749  007B40  502B               	movf	(___fladd@b+3)^0,w,c
  1750  007B42  0B80               	andlw	128
  1751  007B44  6E34               	movwf	___fladd@signs^0,c
  1752  007B46  502B               	movf	(___fladd@b+3)^0,w,c
  1753  007B48  242B               	addwf	(___fladd@b+3)^0,w,c
  1754  007B4A  6E36               	movwf	___fladd@bexp^0,c
  1755  007B4C  AE2A               	btfss	(___fladd@b+2)^0,7,c
  1756  007B4E  EFAB  F03D         	goto	u1121
  1757  007B52  EFAD  F03D         	goto	u1120
  1758  007B56                     u1121:
  1759  007B56  EFAE  F03D         	goto	l1554
  1760  007B5A                     u1120:
  1761  007B5A  8036               	bsf	___fladd@bexp^0,0,c
  1762  007B5C                     l1554:
  1763  007B5C  5036               	movf	___fladd@bexp^0,w,c
  1764  007B5E  B4D8               	btfsc	status,2,c
  1765  007B60  EFB4  F03D         	goto	u1131
  1766  007B64  EFB6  F03D         	goto	u1130
  1767  007B68                     u1131:
  1768  007B68  EFCB  F03D         	goto	l1564
  1769  007B6C                     u1130:
  1770  007B6C  2836               	incf	___fladd@bexp^0,w,c
  1771  007B6E  A4D8               	btfss	status,2,c
  1772  007B70  EFBC  F03D         	goto	u1141
  1773  007B74  EFBE  F03D         	goto	u1140
  1774  007B78                     u1141:
  1775  007B78  EFC6  F03D         	goto	l1560
  1776  007B7C                     u1140:
  1777  007B7C  0E00               	movlw	0
  1778  007B7E  6E28               	movwf	___fladd@b^0,c
  1779  007B80  0E00               	movlw	0
  1780  007B82  6E29               	movwf	(___fladd@b+1)^0,c
  1781  007B84  0E00               	movlw	0
  1782  007B86  6E2A               	movwf	(___fladd@b+2)^0,c
  1783  007B88  0E00               	movlw	0
  1784  007B8A  6E2B               	movwf	(___fladd@b+3)^0,c
  1785  007B8C                     l1560:
  1786  007B8C  8E2A               	bsf	(___fladd@b+2)^0,7,c
  1787  007B8E  0E00               	movlw	0
  1788  007B90  6E2B               	movwf	(___fladd@b+3)^0,c
  1789  007B92  EFD3  F03D         	goto	l1566
  1790  007B96                     l1564:
  1791  007B96  0E00               	movlw	0
  1792  007B98  6E28               	movwf	___fladd@b^0,c
  1793  007B9A  0E00               	movlw	0
  1794  007B9C  6E29               	movwf	(___fladd@b+1)^0,c
  1795  007B9E  0E00               	movlw	0
  1796  007BA0  6E2A               	movwf	(___fladd@b+2)^0,c
  1797  007BA2  0E00               	movlw	0
  1798  007BA4  6E2B               	movwf	(___fladd@b+3)^0,c
  1799  007BA6                     l1566:
  1800  007BA6  502F               	movf	(___fladd@a+3)^0,w,c
  1801  007BA8  0B80               	andlw	128
  1802  007BAA  6E35               	movwf	___fladd@aexp^0,c
  1803  007BAC  5034               	movf	___fladd@signs^0,w,c
  1804  007BAE  1835               	xorwf	___fladd@aexp^0,w,c
  1805  007BB0  B4D8               	btfsc	status,2,c
  1806  007BB2  EFDD  F03D         	goto	u1151
  1807  007BB6  EFDF  F03D         	goto	u1150
  1808  007BBA                     u1151:
  1809  007BBA  EFE0  F03D         	goto	l1572
  1810  007BBE                     u1150:
  1811  007BBE  8C34               	bsf	___fladd@signs^0,6,c
  1812  007BC0                     l1572:
  1813  007BC0  502F               	movf	(___fladd@a+3)^0,w,c
  1814  007BC2  242F               	addwf	(___fladd@a+3)^0,w,c
  1815  007BC4  6E35               	movwf	___fladd@aexp^0,c
  1816  007BC6  AE2E               	btfss	(___fladd@a+2)^0,7,c
  1817  007BC8  EFE8  F03D         	goto	u1161
  1818  007BCC  EFEA  F03D         	goto	u1160
  1819  007BD0                     u1161:
  1820  007BD0  EFEB  F03D         	goto	l1578
  1821  007BD4                     u1160:
  1822  007BD4  8035               	bsf	___fladd@aexp^0,0,c
  1823  007BD6                     l1578:
  1824  007BD6  5035               	movf	___fladd@aexp^0,w,c
  1825  007BD8  B4D8               	btfsc	status,2,c
  1826  007BDA  EFF1  F03D         	goto	u1171
  1827  007BDE  EFF3  F03D         	goto	u1170
  1828  007BE2                     u1171:
  1829  007BE2  EF08  F03E         	goto	l1588
  1830  007BE6                     u1170:
  1831  007BE6  2835               	incf	___fladd@aexp^0,w,c
  1832  007BE8  A4D8               	btfss	status,2,c
  1833  007BEA  EFF9  F03D         	goto	u1181
  1834  007BEE  EFFB  F03D         	goto	u1180
  1835  007BF2                     u1181:
  1836  007BF2  EF03  F03E         	goto	l1584
  1837  007BF6                     u1180:
  1838  007BF6  0E00               	movlw	0
  1839  007BF8  6E2C               	movwf	___fladd@a^0,c
  1840  007BFA  0E00               	movlw	0
  1841  007BFC  6E2D               	movwf	(___fladd@a+1)^0,c
  1842  007BFE  0E00               	movlw	0
  1843  007C00  6E2E               	movwf	(___fladd@a+2)^0,c
  1844  007C02  0E00               	movlw	0
  1845  007C04  6E2F               	movwf	(___fladd@a+3)^0,c
  1846  007C06                     l1584:
  1847  007C06  8E2E               	bsf	(___fladd@a+2)^0,7,c
  1848  007C08  0E00               	movlw	0
  1849  007C0A  6E2F               	movwf	(___fladd@a+3)^0,c
  1850  007C0C  EF10  F03E         	goto	l1590
  1851  007C10                     l1588:
  1852  007C10  0E00               	movlw	0
  1853  007C12  6E2C               	movwf	___fladd@a^0,c
  1854  007C14  0E00               	movlw	0
  1855  007C16  6E2D               	movwf	(___fladd@a+1)^0,c
  1856  007C18  0E00               	movlw	0
  1857  007C1A  6E2E               	movwf	(___fladd@a+2)^0,c
  1858  007C1C  0E00               	movlw	0
  1859  007C1E  6E2F               	movwf	(___fladd@a+3)^0,c
  1860  007C20                     l1590:
  1861  007C20  5036               	movf	___fladd@bexp^0,w,c
  1862  007C22  5C35               	subwf	___fladd@aexp^0,w,c
  1863  007C24  B0D8               	btfsc	status,0,c
  1864  007C26  EF17  F03E         	goto	u1191
  1865  007C2A  EF19  F03E         	goto	u1190
  1866  007C2E                     u1191:
  1867  007C2E  EF40  F03E         	goto	l1626
  1868  007C32                     u1190:
  1869  007C32  AC34               	btfss	___fladd@signs^0,6,c
  1870  007C34  EF1E  F03E         	goto	u1201
  1871  007C38  EF20  F03E         	goto	u1200
  1872  007C3C                     u1201:
  1873  007C3C  EF22  F03E         	goto	l1596
  1874  007C40                     u1200:
  1875  007C40  0E80               	movlw	128
  1876  007C42  1A34               	xorwf	___fladd@signs^0,f,c
  1877  007C44                     l1596:
  1878  007C44  C036  F037         	movff	___fladd@bexp,___fladd@grs
  1879  007C48  C035  F036         	movff	___fladd@aexp,___fladd@bexp
  1880  007C4C  C037  F035         	movff	___fladd@grs,___fladd@aexp
  1881  007C50  C028  F037         	movff	___fladd@b,___fladd@grs
  1882  007C54  C02C  F028         	movff	___fladd@a,___fladd@b
  1883  007C58  C037  F02C         	movff	___fladd@grs,___fladd@a
  1884  007C5C  C029  F037         	movff	___fladd@b+1,___fladd@grs
  1885  007C60  C02D  F029         	movff	___fladd@a+1,___fladd@b+1
  1886  007C64  C037  F02D         	movff	___fladd@grs,___fladd@a+1
  1887  007C68  C02A  F037         	movff	___fladd@b+2,___fladd@grs
  1888  007C6C  C02E  F02A         	movff	___fladd@a+2,___fladd@b+2
  1889  007C70  C037  F02E         	movff	___fladd@grs,___fladd@a+2
  1890  007C74  C02B  F037         	movff	___fladd@b+3,___fladd@grs
  1891  007C78  C02F  F02B         	movff	___fladd@a+3,___fladd@b+3
  1892  007C7C  C037  F02F         	movff	___fladd@grs,___fladd@a+3
  1893  007C80                     l1626:
  1894  007C80  0E00               	movlw	0
  1895  007C82  6E37               	movwf	___fladd@grs^0,c
  1896  007C84  5036               	movf	___fladd@bexp^0,w,c
  1897  007C86  C035  F030         	movff	___fladd@aexp,??___fladd
  1898  007C8A  6A31               	clrf	(??___fladd+1)^0,c
  1899  007C8C  5E30               	subwf	??___fladd^0,f,c
  1900  007C8E  0E00               	movlw	0
  1901  007C90  5A31               	subwfb	(??___fladd+1)^0,f,c
  1902  007C92  BE31               	btfsc	(??___fladd+1)^0,7,c
  1903  007C94  EF55  F03E         	goto	u1211
  1904  007C98  5031               	movf	(??___fladd+1)^0,w,c
  1905  007C9A  E109               	bnz	u1210
  1906  007C9C  0E1A               	movlw	26
  1907  007C9E  5C30               	subwf	??___fladd^0,w,c
  1908  007CA0  A0D8               	btfss	status,0,c
  1909  007CA2  EF55  F03E         	goto	u1211
  1910  007CA6  EF57  F03E         	goto	u1210
  1911  007CAA                     u1211:
  1912  007CAA  EF8E  F03E         	goto	l776
  1913  007CAE                     u1210:
  1914  007CAE  5028               	movf	___fladd@b^0,w,c
  1915  007CB0  1029               	iorwf	(___fladd@b+1)^0,w,c
  1916  007CB2  102A               	iorwf	(___fladd@b+2)^0,w,c
  1917  007CB4  102B               	iorwf	(___fladd@b+3)^0,w,c
  1918  007CB6  A4D8               	btfss	status,2,c
  1919  007CB8  EF60  F03E         	goto	u1221
  1920  007CBC  EF63  F03E         	goto	u1220
  1921  007CC0                     u1221:
  1922  007CC0  0E01               	movlw	1
  1923  007CC2  EF64  F03E         	goto	u1230
  1924  007CC6                     u1220:
  1925  007CC6  0E00               	movlw	0
  1926  007CC8                     u1230:
  1927  007CC8  6E37               	movwf	___fladd@grs^0,c
  1928  007CCA  0E00               	movlw	0
  1929  007CCC  6E28               	movwf	___fladd@b^0,c
  1930  007CCE  0E00               	movlw	0
  1931  007CD0  6E29               	movwf	(___fladd@b+1)^0,c
  1932  007CD2  0E00               	movlw	0
  1933  007CD4  6E2A               	movwf	(___fladd@b+2)^0,c
  1934  007CD6  0E00               	movlw	0
  1935  007CD8  6E2B               	movwf	(___fladd@b+3)^0,c
  1936  007CDA  C035  F036         	movff	___fladd@aexp,___fladd@bexp
  1937  007CDE  EF97  F03E         	goto	l775
  1938  007CE2                     l777:
  1939  007CE2  A037               	btfss	___fladd@grs^0,0,c
  1940  007CE4  EF76  F03E         	goto	u1241
  1941  007CE8  EF78  F03E         	goto	u1240
  1942  007CEC                     u1241:
  1943  007CEC  EF7E  F03E         	goto	l1638
  1944  007CF0                     u1240:
  1945  007CF0  90D8               	bcf	status,0,c
  1946  007CF2  3037               	rrcf	___fladd@grs^0,w,c
  1947  007CF4  0901               	iorlw	1
  1948  007CF6  6E37               	movwf	___fladd@grs^0,c
  1949  007CF8  EF80  F03E         	goto	l1640
  1950  007CFC                     l1638:
  1951  007CFC  90D8               	bcf	status,0,c
  1952  007CFE  3237               	rrcf	___fladd@grs^0,f,c
  1953  007D00                     l1640:
  1954  007D00  A028               	btfss	___fladd@b^0,0,c
  1955  007D02  EF85  F03E         	goto	u1251
  1956  007D06  EF87  F03E         	goto	u1250
  1957  007D0A                     u1251:
  1958  007D0A  EF88  F03E         	goto	l1644
  1959  007D0E                     u1250:
  1960  007D0E  8E37               	bsf	___fladd@grs^0,7,c
  1961  007D10                     l1644:
  1962  007D10  342B               	rlcf	(___fladd@b+3)^0,w,c
  1963  007D12  322B               	rrcf	(___fladd@b+3)^0,f,c
  1964  007D14  322A               	rrcf	(___fladd@b+2)^0,f,c
  1965  007D16  3229               	rrcf	(___fladd@b+1)^0,f,c
  1966  007D18  3228               	rrcf	___fladd@b^0,f,c
  1967  007D1A  2A36               	incf	___fladd@bexp^0,f,c
  1968  007D1C                     l776:
  1969  007D1C  5035               	movf	___fladd@aexp^0,w,c
  1970  007D1E  5C36               	subwf	___fladd@bexp^0,w,c
  1971  007D20  A0D8               	btfss	status,0,c
  1972  007D22  EF95  F03E         	goto	u1261
  1973  007D26  EF97  F03E         	goto	u1260
  1974  007D2A                     u1261:
  1975  007D2A  EF71  F03E         	goto	l777
  1976  007D2E                     u1260:
  1977  007D2E                     l775:
  1978  007D2E  BC34               	btfsc	___fladd@signs^0,6,c
  1979  007D30  EF9C  F03E         	goto	u1271
  1980  007D34  EF9E  F03E         	goto	u1270
  1981  007D38                     u1271:
  1982  007D38  EFDE  F03E         	goto	l1672
  1983  007D3C                     u1270:
  1984  007D3C  5036               	movf	___fladd@bexp^0,w,c
  1985  007D3E  A4D8               	btfss	status,2,c
  1986  007D40  EFA4  F03E         	goto	u1281
  1987  007D44  EFA6  F03E         	goto	u1280
  1988  007D48                     u1281:
  1989  007D48  EFB0  F03E         	goto	l1654
  1990  007D4C                     u1280:
  1991  007D4C  0E00               	movlw	0
  1992  007D4E  6E28               	movwf	?___fladd^0,c
  1993  007D50  0E00               	movlw	0
  1994  007D52  6E29               	movwf	(?___fladd+1)^0,c
  1995  007D54  0E00               	movlw	0
  1996  007D56  6E2A               	movwf	(?___fladd+2)^0,c
  1997  007D58  0E00               	movlw	0
  1998  007D5A  6E2B               	movwf	(?___fladd+3)^0,c
  1999  007D5C  EFFF  F03F         	goto	l784
  2000  007D60                     l1654:
  2001  007D60  502C               	movf	___fladd@a^0,w,c
  2002  007D62  2628               	addwf	___fladd@b^0,f,c
  2003  007D64  502D               	movf	(___fladd@a+1)^0,w,c
  2004  007D66  2229               	addwfc	(___fladd@b+1)^0,f,c
  2005  007D68  502E               	movf	(___fladd@a+2)^0,w,c
  2006  007D6A  222A               	addwfc	(___fladd@b+2)^0,f,c
  2007  007D6C  502F               	movf	(___fladd@a+3)^0,w,c
  2008  007D6E  222B               	addwfc	(___fladd@b+3)^0,f,c
  2009  007D70  A02B               	btfss	(___fladd@b+3)^0,0,c
  2010  007D72  EFBD  F03E         	goto	u1291
  2011  007D76  EFBF  F03E         	goto	u1290
  2012  007D7A                     u1291:
  2013  007D7A  EF6B  F03F         	goto	l1708
  2014  007D7E                     u1290:
  2015  007D7E  A037               	btfss	___fladd@grs^0,0,c
  2016  007D80  EFC4  F03E         	goto	u1301
  2017  007D84  EFC6  F03E         	goto	u1300
  2018  007D88                     u1301:
  2019  007D88  EFCC  F03E         	goto	l1662
  2020  007D8C                     u1300:
  2021  007D8C  90D8               	bcf	status,0,c
  2022  007D8E  3037               	rrcf	___fladd@grs^0,w,c
  2023  007D90  0901               	iorlw	1
  2024  007D92  6E37               	movwf	___fladd@grs^0,c
  2025  007D94  EFCE  F03E         	goto	l1664
  2026  007D98                     l1662:
  2027  007D98  90D8               	bcf	status,0,c
  2028  007D9A  3237               	rrcf	___fladd@grs^0,f,c
  2029  007D9C                     l1664:
  2030  007D9C  A028               	btfss	___fladd@b^0,0,c
  2031  007D9E  EFD3  F03E         	goto	u1311
  2032  007DA2  EFD5  F03E         	goto	u1310
  2033  007DA6                     u1311:
  2034  007DA6  EFD6  F03E         	goto	l1668
  2035  007DAA                     u1310:
  2036  007DAA  8E37               	bsf	___fladd@grs^0,7,c
  2037  007DAC                     l1668:
  2038  007DAC  342B               	rlcf	(___fladd@b+3)^0,w,c
  2039  007DAE  322B               	rrcf	(___fladd@b+3)^0,f,c
  2040  007DB0  322A               	rrcf	(___fladd@b+2)^0,f,c
  2041  007DB2  3229               	rrcf	(___fladd@b+1)^0,f,c
  2042  007DB4  3228               	rrcf	___fladd@b^0,f,c
  2043  007DB6  2A36               	incf	___fladd@bexp^0,f,c
  2044  007DB8  EF6B  F03F         	goto	l1708
  2045  007DBC                     l1672:
  2046  007DBC  502C               	movf	___fladd@a^0,w,c
  2047  007DBE  5C28               	subwf	___fladd@b^0,w,c
  2048  007DC0  502D               	movf	(___fladd@a+1)^0,w,c
  2049  007DC2  5829               	subwfb	(___fladd@b+1)^0,w,c
  2050  007DC4  502E               	movf	(___fladd@a+2)^0,w,c
  2051  007DC6  582A               	subwfb	(___fladd@b+2)^0,w,c
  2052  007DC8  502B               	movf	(___fladd@b+3)^0,w,c
  2053  007DCA  0A80               	xorlw	128
  2054  007DCC  6E30               	movwf	??___fladd^0,c
  2055  007DCE  502F               	movf	(___fladd@a+3)^0,w,c
  2056  007DD0  0A80               	xorlw	128
  2057  007DD2  5830               	subwfb	??___fladd^0,w,c
  2058  007DD4  B0D8               	btfsc	status,0,c
  2059  007DD6  EFEF  F03E         	goto	u1321
  2060  007DDA  EFF1  F03E         	goto	u1320
  2061  007DDE                     u1321:
  2062  007DDE  EF1C  F03F         	goto	l1682
  2063  007DE2                     u1320:
  2064  007DE2  5028               	movf	___fladd@b^0,w,c
  2065  007DE4  5C2C               	subwf	___fladd@a^0,w,c
  2066  007DE6  6E30               	movwf	??___fladd^0,c
  2067  007DE8  5029               	movf	(___fladd@b+1)^0,w,c
  2068  007DEA  582D               	subwfb	(___fladd@a+1)^0,w,c
  2069  007DEC  6E31               	movwf	(??___fladd+1)^0,c
  2070  007DEE  502A               	movf	(___fladd@b+2)^0,w,c
  2071  007DF0  582E               	subwfb	(___fladd@a+2)^0,w,c
  2072  007DF2  6E32               	movwf	(??___fladd+2)^0,c
  2073  007DF4  502B               	movf	(___fladd@b+3)^0,w,c
  2074  007DF6  582F               	subwfb	(___fladd@a+3)^0,w,c
  2075  007DF8  6E33               	movwf	(??___fladd+3)^0,c
  2076  007DFA  0EFF               	movlw	255
  2077  007DFC  2430               	addwf	??___fladd^0,w,c
  2078  007DFE  6E28               	movwf	___fladd@b^0,c
  2079  007E00  0EFF               	movlw	255
  2080  007E02  2031               	addwfc	(??___fladd+1)^0,w,c
  2081  007E04  6E29               	movwf	(___fladd@b+1)^0,c
  2082  007E06  0EFF               	movlw	255
  2083  007E08  2032               	addwfc	(??___fladd+2)^0,w,c
  2084  007E0A  6E2A               	movwf	(___fladd@b+2)^0,c
  2085  007E0C  0EFF               	movlw	255
  2086  007E0E  2033               	addwfc	(??___fladd+3)^0,w,c
  2087  007E10  6E2B               	movwf	(___fladd@b+3)^0,c
  2088  007E12  0E80               	movlw	128
  2089  007E14  1A34               	xorwf	___fladd@signs^0,f,c
  2090  007E16  6C37               	negf	___fladd@grs^0,c
  2091  007E18  5037               	movf	___fladd@grs^0,w,c
  2092  007E1A  A4D8               	btfss	status,2,c
  2093  007E1C  EF12  F03F         	goto	u1331
  2094  007E20  EF14  F03F         	goto	u1330
  2095  007E24                     u1331:
  2096  007E24  EF24  F03F         	goto	l792
  2097  007E28                     u1330:
  2098  007E28  0E01               	movlw	1
  2099  007E2A  2628               	addwf	___fladd@b^0,f,c
  2100  007E2C  0E00               	movlw	0
  2101  007E2E  2229               	addwfc	(___fladd@b+1)^0,f,c
  2102  007E30  222A               	addwfc	(___fladd@b+2)^0,f,c
  2103  007E32  222B               	addwfc	(___fladd@b+3)^0,f,c
  2104  007E34  EF24  F03F         	goto	l792
  2105  007E38                     l1682:
  2106  007E38  502C               	movf	___fladd@a^0,w,c
  2107  007E3A  5E28               	subwf	___fladd@b^0,f,c
  2108  007E3C  502D               	movf	(___fladd@a+1)^0,w,c
  2109  007E3E  5A29               	subwfb	(___fladd@b+1)^0,f,c
  2110  007E40  502E               	movf	(___fladd@a+2)^0,w,c
  2111  007E42  5A2A               	subwfb	(___fladd@b+2)^0,f,c
  2112  007E44  502F               	movf	(___fladd@a+3)^0,w,c
  2113  007E46  5A2B               	subwfb	(___fladd@b+3)^0,f,c
  2114  007E48                     l792:
  2115  007E48  5028               	movf	___fladd@b^0,w,c
  2116  007E4A  1029               	iorwf	(___fladd@b+1)^0,w,c
  2117  007E4C  102A               	iorwf	(___fladd@b+2)^0,w,c
  2118  007E4E  102B               	iorwf	(___fladd@b+3)^0,w,c
  2119  007E50  A4D8               	btfss	status,2,c
  2120  007E52  EF2D  F03F         	goto	u1341
  2121  007E56  EF2F  F03F         	goto	u1340
  2122  007E5A                     u1341:
  2123  007E5A  EF64  F03F         	goto	l1706
  2124  007E5E                     u1340:
  2125  007E5E  5037               	movf	___fladd@grs^0,w,c
  2126  007E60  A4D8               	btfss	status,2,c
  2127  007E62  EF35  F03F         	goto	u1351
  2128  007E66  EF37  F03F         	goto	u1350
  2129  007E6A                     u1351:
  2130  007E6A  EF64  F03F         	goto	l1706
  2131  007E6E                     u1350:
  2132  007E6E  0E00               	movlw	0
  2133  007E70  6E28               	movwf	?___fladd^0,c
  2134  007E72  0E00               	movlw	0
  2135  007E74  6E29               	movwf	(?___fladd+1)^0,c
  2136  007E76  0E00               	movlw	0
  2137  007E78  6E2A               	movwf	(?___fladd+2)^0,c
  2138  007E7A  0E00               	movlw	0
  2139  007E7C  6E2B               	movwf	(?___fladd+3)^0,c
  2140  007E7E  EFFF  F03F         	goto	l784
  2141  007E82                     l1690:
  2142  007E82  90D8               	bcf	status,0,c
  2143  007E84  3628               	rlcf	___fladd@b^0,f,c
  2144  007E86  3629               	rlcf	(___fladd@b+1)^0,f,c
  2145  007E88  362A               	rlcf	(___fladd@b+2)^0,f,c
  2146  007E8A  362B               	rlcf	(___fladd@b+3)^0,f,c
  2147  007E8C  AE37               	btfss	___fladd@grs^0,7,c
  2148  007E8E  EF4B  F03F         	goto	u1361
  2149  007E92  EF4D  F03F         	goto	u1360
  2150  007E96                     u1361:
  2151  007E96  EF4E  F03F         	goto	l1696
  2152  007E9A                     u1360:
  2153  007E9A  8028               	bsf	___fladd@b^0,0,c
  2154  007E9C                     l1696:
  2155  007E9C  A037               	btfss	___fladd@grs^0,0,c
  2156  007E9E  EF53  F03F         	goto	u1371
  2157  007EA2  EF55  F03F         	goto	u1370
  2158  007EA6                     u1371:
  2159  007EA6  EF59  F03F         	goto	l1700
  2160  007EAA                     u1370:
  2161  007EAA  80D8               	bsf	status,0,c
  2162  007EAC  3637               	rlcf	___fladd@grs^0,f,c
  2163  007EAE  EF5B  F03F         	goto	l1702
  2164  007EB2                     l1700:
  2165  007EB2  90D8               	bcf	status,0,c
  2166  007EB4  3637               	rlcf	___fladd@grs^0,f,c
  2167  007EB6                     l1702:
  2168  007EB6  5036               	movf	___fladd@bexp^0,w,c
  2169  007EB8  B4D8               	btfsc	status,2,c
  2170  007EBA  EF61  F03F         	goto	u1381
  2171  007EBE  EF63  F03F         	goto	u1380
  2172  007EC2                     u1381:
  2173  007EC2  EF64  F03F         	goto	l1706
  2174  007EC6                     u1380:
  2175  007EC6  0636               	decf	___fladd@bexp^0,f,c
  2176  007EC8                     l1706:
  2177  007EC8  AE2A               	btfss	(___fladd@b+2)^0,7,c
  2178  007ECA  EF69  F03F         	goto	u1391
  2179  007ECE  EF6B  F03F         	goto	u1390
  2180  007ED2                     u1391:
  2181  007ED2  EF41  F03F         	goto	l1690
  2182  007ED6                     u1390:
  2183  007ED6                     l1708:
  2184  007ED6  0E00               	movlw	0
  2185  007ED8  6E35               	movwf	___fladd@aexp^0,c
  2186  007EDA  AE37               	btfss	___fladd@grs^0,7,c
  2187  007EDC  EF72  F03F         	goto	u1401
  2188  007EE0  EF74  F03F         	goto	u1400
  2189  007EE4                     u1401:
  2190  007EE4  EF8C  F03F         	goto	l801
  2191  007EE8                     u1400:
  2192  007EE8  C037  F030         	movff	___fladd@grs,??___fladd
  2193  007EEC  0E7F               	movlw	127
  2194  007EEE  1630               	andwf	??___fladd^0,f,c
  2195  007EF0  B4D8               	btfsc	status,2,c
  2196  007EF2  EF7D  F03F         	goto	u1411
  2197  007EF6  EF7F  F03F         	goto	u1410
  2198  007EFA                     u1411:
  2199  007EFA  EF83  F03F         	goto	l802
  2200  007EFE                     u1410:
  2201  007EFE                     l1714:
  2202  007EFE  0E01               	movlw	1
  2203  007F00  6E35               	movwf	___fladd@aexp^0,c
  2204  007F02  EF8C  F03F         	goto	l801
  2205  007F06                     l802:
  2206  007F06  A028               	btfss	___fladd@b^0,0,c
  2207  007F08  EF88  F03F         	goto	u1421
  2208  007F0C  EF8A  F03F         	goto	u1420
  2209  007F10                     u1421:
  2210  007F10  EF8C  F03F         	goto	l801
  2211  007F14                     u1420:
  2212  007F14  EF7F  F03F         	goto	l1714
  2213  007F18                     l801:
  2214  007F18  5035               	movf	___fladd@aexp^0,w,c
  2215  007F1A  B4D8               	btfsc	status,2,c
  2216  007F1C  EF92  F03F         	goto	u1431
  2217  007F20  EF94  F03F         	goto	u1430
  2218  007F24                     u1431:
  2219  007F24  EFBF  F03F         	goto	l1726
  2220  007F28                     u1430:
  2221  007F28  0E01               	movlw	1
  2222  007F2A  2628               	addwf	___fladd@b^0,f,c
  2223  007F2C  0E00               	movlw	0
  2224  007F2E  2229               	addwfc	(___fladd@b+1)^0,f,c
  2225  007F30  222A               	addwfc	(___fladd@b+2)^0,f,c
  2226  007F32  222B               	addwfc	(___fladd@b+3)^0,f,c
  2227  007F34  A02B               	btfss	(___fladd@b+3)^0,0,c
  2228  007F36  EF9F  F03F         	goto	u1441
  2229  007F3A  EFA1  F03F         	goto	u1440
  2230  007F3E                     u1441:
  2231  007F3E  EFBF  F03F         	goto	l1726
  2232  007F42                     u1440:
  2233  007F42  C028  F030         	movff	___fladd@b,??___fladd
  2234  007F46  C029  F031         	movff	___fladd@b+1,??___fladd+1
  2235  007F4A  C02A  F032         	movff	___fladd@b+2,??___fladd+2
  2236  007F4E  C02B  F033         	movff	___fladd@b+3,??___fladd+3
  2237  007F52  3433               	rlcf	(??___fladd+3)^0,w,c
  2238  007F54  3233               	rrcf	(??___fladd+3)^0,f,c
  2239  007F56  3232               	rrcf	(??___fladd+2)^0,f,c
  2240  007F58  3231               	rrcf	(??___fladd+1)^0,f,c
  2241  007F5A  3230               	rrcf	??___fladd^0,f,c
  2242  007F5C  C030  F028         	movff	??___fladd,___fladd@b
  2243  007F60  C031  F029         	movff	??___fladd+1,___fladd@b+1
  2244  007F64  C032  F02A         	movff	??___fladd+2,___fladd@b+2
  2245  007F68  C033  F02B         	movff	??___fladd+3,___fladd@b+3
  2246  007F6C  2836               	incf	___fladd@bexp^0,w,c
  2247  007F6E  B4D8               	btfsc	status,2,c
  2248  007F70  EFBC  F03F         	goto	u1451
  2249  007F74  EFBE  F03F         	goto	u1450
  2250  007F78                     u1451:
  2251  007F78  EFBF  F03F         	goto	l1726
  2252  007F7C                     u1450:
  2253  007F7C  2A36               	incf	___fladd@bexp^0,f,c
  2254  007F7E                     l1726:
  2255  007F7E  2836               	incf	___fladd@bexp^0,w,c
  2256  007F80  B4D8               	btfsc	status,2,c
  2257  007F82  EFC5  F03F         	goto	u1461
  2258  007F86  EFC7  F03F         	goto	u1460
  2259  007F8A                     u1461:
  2260  007F8A  EFCF  F03F         	goto	l1730
  2261  007F8E                     u1460:
  2262  007F8E  5036               	movf	___fladd@bexp^0,w,c
  2263  007F90  A4D8               	btfss	status,2,c
  2264  007F92  EFCD  F03F         	goto	u1471
  2265  007F96  EFCF  F03F         	goto	u1470
  2266  007F9A                     u1471:
  2267  007F9A  EFE1  F03F         	goto	l1734
  2268  007F9E                     u1470:
  2269  007F9E                     l1730:
  2270  007F9E  0E00               	movlw	0
  2271  007FA0  6E28               	movwf	___fladd@b^0,c
  2272  007FA2  0E00               	movlw	0
  2273  007FA4  6E29               	movwf	(___fladd@b+1)^0,c
  2274  007FA6  0E00               	movlw	0
  2275  007FA8  6E2A               	movwf	(___fladd@b+2)^0,c
  2276  007FAA  0E00               	movlw	0
  2277  007FAC  6E2B               	movwf	(___fladd@b+3)^0,c
  2278  007FAE  5036               	movf	___fladd@bexp^0,w,c
  2279  007FB0  A4D8               	btfss	status,2,c
  2280  007FB2  EFDD  F03F         	goto	u1481
  2281  007FB6  EFDF  F03F         	goto	u1480
  2282  007FBA                     u1481:
  2283  007FBA  EFE1  F03F         	goto	l1734
  2284  007FBE                     u1480:
  2285  007FBE  0E00               	movlw	0
  2286  007FC0  6E34               	movwf	___fladd@signs^0,c
  2287  007FC2                     l1734:
  2288  007FC2  A036               	btfss	___fladd@bexp^0,0,c
  2289  007FC4  EFE6  F03F         	goto	u1491
  2290  007FC8  EFE8  F03F         	goto	u1490
  2291  007FCC                     u1491:
  2292  007FCC  EFEB  F03F         	goto	l1738
  2293  007FD0                     u1490:
  2294  007FD0  8E2A               	bsf	(___fladd@b+2)^0,7,c
  2295  007FD2  EFEC  F03F         	goto	l1740
  2296  007FD6                     l1738:
  2297  007FD6  9E2A               	bcf	(___fladd@b+2)^0,7,c
  2298  007FD8                     l1740:
  2299  007FD8  90D8               	bcf	status,0,c
  2300  007FDA  3036               	rrcf	___fladd@bexp^0,w,c
  2301  007FDC  6E2B               	movwf	(___fladd@b+3)^0,c
  2302  007FDE  AE34               	btfss	___fladd@signs^0,7,c
  2303  007FE0  EFF4  F03F         	goto	u1501
  2304  007FE4  EFF6  F03F         	goto	u1500
  2305  007FE8                     u1501:
  2306  007FE8  EFF7  F03F         	goto	l1746
  2307  007FEC                     u1500:
  2308  007FEC  8E2B               	bsf	(___fladd@b+3)^0,7,c
  2309  007FEE                     l1746:
  2310  007FEE  C028  F028         	movff	___fladd@b,?___fladd
  2311  007FF2  C029  F029         	movff	___fladd@b+1,?___fladd+1
  2312  007FF6  C02A  F02A         	movff	___fladd@b+2,?___fladd+2
  2313  007FFA  C02B  F02B         	movff	___fladd@b+3,?___fladd+3
  2314  007FFE                     l784:
  2315  007FFE  0012               	return		;funcret
  2316  008000                     __end_of___fladd:
  2317                           	callstack 0
  2318                           
  2319 ;; *************** function _RTC_Read_Hour *****************
  2320 ;; Defined at:
  2321 ;;		line 18 in file "RTC.c"
  2322 ;; Parameters:    Size  Location     Type
  2323 ;;  read_clock_a    1    wreg     unsigned char 
  2324 ;; Auto vars:     Size  Location     Type
  2325 ;;  read_clock_a    1    5[COMRAM] unsigned char 
  2326 ;; Return value:  Size  Location     Type
  2327 ;;                  2    2[COMRAM] int 
  2328 ;; Registers used:
  2329 ;;		wreg, status,2, status,0, cstack
  2330 ;; Tracked objects:
  2331 ;;		On entry : 0/0
  2332 ;;		On exit  : 0/0
  2333 ;;		Unchanged: 0/0
  2334 ;; Data sizes:     COMRAM   BANK0   BANK1   BANK2   BANK3   BANK4   BANK5   BANK6   BANK7
  2335 ;;      Params:         2       0       0       0       0       0       0       0       0
  2336 ;;      Locals:         1       0       0       0       0       0       0       0       0
  2337 ;;      Temps:          1       0       0       0       0       0       0       0       0
  2338 ;;      Totals:         4       0       0       0       0       0       0       0       0
  2339 ;;Total ram usage:        4 bytes
  2340 ;; Hardware stack levels used: 1
  2341 ;; Hardware stack levels required when called: 3
  2342 ;; This function calls:
  2343 ;;		_I2C_Read
  2344 ;;		_I2C_Repeated_Start
  2345 ;;		_I2C_Start
  2346 ;;		_I2C_Write
  2347 ;; This function is called by:
  2348 ;;		_main
  2349 ;; This function uses a non-reentrant model
  2350 ;;
  2351                           
  2352                           	psect	text8
  2353  007230                     __ptext8:
  2354                           	callstack 0
  2355  007230                     _RTC_Read_Hour:
  2356                           	callstack 27
  2357                           
  2358                           ;incstack = 0
  2359                           ;RTC_Read_Hour@read_clock_address stored from wreg
  2360  007230  6E06               	movwf	RTC_Read_Hour@read_clock_address^0,c
  2361  007232                     
  2362                           ;RTC.c: 18: int RTC_Read_Hour(char read_clock_address);RTC.c: 19: {;RTC.c: 20:     I2C_S
      +                          tart(0xD0);
  2363  007232  0ED0               	movlw	208
  2364  007234  ECE4  F038         	call	_I2C_Start
  2365                           
  2366                           ;RTC.c: 21:     I2C_Write(read_clock_address);
  2367  007238  5006               	movf	RTC_Read_Hour@read_clock_address^0,w,c
  2368  00723A  ECBC  F038         	call	_I2C_Write
  2369                           
  2370                           ;RTC.c: 22:     I2C_Repeated_Start(0xD1);
  2371  00723E  0ED1               	movlw	209
  2372  007240  ECCD  F038         	call	_I2C_Repeated_Start
  2373  007244                     
  2374                           ;RTC.c: 23:     sec = I2C_Read(0);
  2375  007244  0E00               	movlw	0
  2376  007246  ECFB  F038         	call	_I2C_Read
  2377  00724A  6E05               	movwf	??_RTC_Read_Hour^0,c
  2378  00724C  5005               	movf	??_RTC_Read_Hour^0,w,c
  2379  00724E  6E56               	movwf	_sec^0,c
  2380  007250  6A57               	clrf	(_sec+1)^0,c
  2381  007252                     
  2382                           ;RTC.c: 24:     min = I2C_Read(0);
  2383  007252  0E00               	movlw	0
  2384  007254  ECFB  F038         	call	_I2C_Read
  2385  007258  6E05               	movwf	??_RTC_Read_Hour^0,c
  2386  00725A  5005               	movf	??_RTC_Read_Hour^0,w,c
  2387  00725C  6E54               	movwf	_min^0,c
  2388  00725E  6A55               	clrf	(_min+1)^0,c
  2389  007260                     
  2390                           ;RTC.c: 25:     hour= I2C_Read(1);
  2391  007260  0E01               	movlw	1
  2392  007262  ECFB  F038         	call	_I2C_Read
  2393  007266  6E05               	movwf	??_RTC_Read_Hour^0,c
  2394  007268  5005               	movf	??_RTC_Read_Hour^0,w,c
  2395  00726A  6E52               	movwf	_hour^0,c
  2396  00726C  6A53               	clrf	(_hour+1)^0,c
  2397  00726E                     
  2398                           ;RTC.c: 26:     return hour;
  2399  00726E  C052  F003         	movff	_hour,?_RTC_Read_Hour
  2400  007272  C053  F004         	movff	_hour+1,?_RTC_Read_Hour+1
  2401  007276  0012               	return		;funcret
  2402  007278                     __end_of_RTC_Read_Hour:
  2403                           	callstack 0
  2404                           
  2405 ;; *************** function _I2C_Start *****************
  2406 ;; Defined at:
  2407 ;;		line 68 in file "PIC18F4550_I2C_Source_File.c"
  2408 ;; Parameters:    Size  Location     Type
  2409 ;;  slave_write_    1    wreg     unsigned char 
  2410 ;; Auto vars:     Size  Location     Type
  2411 ;;  slave_write_    1    1[COMRAM] unsigned char 
  2412 ;; Return value:  Size  Location     Type
  2413 ;;                  1    wreg      unsigned char 
  2414 ;; Registers used:
  2415 ;;		wreg, status,2, cstack
  2416 ;; Tracked objects:
  2417 ;;		On entry : 0/0
  2418 ;;		On exit  : 0/0
  2419 ;;		Unchanged: 0/0
  2420 ;; Data sizes:     COMRAM   BANK0   BANK1   BANK2   BANK3   BANK4   BANK5   BANK6   BANK7
  2421 ;;      Params:         0       0       0       0       0       0       0       0       0
  2422 ;;      Locals:         1       0       0       0       0       0       0       0       0
  2423 ;;      Temps:          0       0       0       0       0       0       0       0       0
  2424 ;;      Totals:         1       0       0       0       0       0       0       0       0
  2425 ;;Total ram usage:        1 bytes
  2426 ;; Hardware stack levels used: 1
  2427 ;; Hardware stack levels required when called: 2
  2428 ;; This function calls:
  2429 ;;		_I2C_Write
  2430 ;; This function is called by:
  2431 ;;		_RTC_Read_Hour
  2432 ;;		_RTC_Read_Clock
  2433 ;;		_RTC_Read_Calendar
  2434 ;; This function uses a non-reentrant model
  2435 ;;
  2436                           
  2437                           	psect	text9
  2438  0071C8                     __ptext9:
  2439                           	callstack 0
  2440  0071C8                     _I2C_Start:
  2441                           	callstack 27
  2442                           
  2443                           ;incstack = 0
  2444                           ;I2C_Start@slave_write_address stored from wreg
  2445  0071C8  6E02               	movwf	I2C_Start@slave_write_address^0,c
  2446  0071CA                     
  2447                           ;PIC18F4550_I2C_Source_File.c: 68: char I2C_Start(char slave_write_address);PIC18F4550_I
      +                          2C_Source_File.c: 69: {;PIC18F4550_I2C_Source_File.c: 70:     SSPCON2bits.SEN=1;
  2448  0071CA  80C5               	bsf	197,0,c	;volatile
  2449  0071CC                     l127:
  2450  0071CC  B0C5               	btfsc	197,0,c	;volatile
  2451  0071CE  EFEB  F038         	goto	u71
  2452  0071D2  EFED  F038         	goto	u70
  2453  0071D6                     u71:
  2454  0071D6  EFE6  F038         	goto	l127
  2455  0071DA                     u70:
  2456  0071DA                     
  2457                           ;PIC18F4550_I2C_Source_File.c: 72:  SSPIF=0;
  2458  0071DA  969E               	bcf	3998,3,c	;volatile
  2459                           
  2460                           ;PIC18F4550_I2C_Source_File.c: 73:     if(!SSPSTATbits.S)
  2461  0071DC  B6C7               	btfsc	199,3,c	;volatile
  2462  0071DE  EFF3  F038         	goto	u81
  2463  0071E2  EFF5  F038         	goto	u80
  2464  0071E6                     u81:
  2465  0071E6  EFF7  F038         	goto	l958
  2466  0071EA                     u80:
  2467  0071EA  EFFA  F038         	goto	l131
  2468  0071EE                     l958:
  2469                           
  2470                           ;PIC18F4550_I2C_Source_File.c: 75:     return (I2C_Write(slave_write_address));;	Return 
      +                          value of _I2C_Start is never used
  2471  0071EE  5002               	movf	I2C_Start@slave_write_address^0,w,c
  2472  0071F0  ECBC  F038         	call	_I2C_Write
  2473  0071F4                     l131:
  2474  0071F4  0012               	return		;funcret
  2475  0071F6                     __end_of_I2C_Start:
  2476                           	callstack 0
  2477                           
  2478 ;; *************** function _I2C_Repeated_Start *****************
  2479 ;; Defined at:
  2480 ;;		line 79 in file "PIC18F4550_I2C_Source_File.c"
  2481 ;; Parameters:    Size  Location     Type
  2482 ;;  slave_read_a    1    wreg     unsigned char 
  2483 ;; Auto vars:     Size  Location     Type
  2484 ;;  slave_read_a    1    1[COMRAM] unsigned char 
  2485 ;; Return value:  Size  Location     Type
  2486 ;;                  1    wreg      unsigned char 
  2487 ;; Registers used:
  2488 ;;		wreg, status,2, cstack
  2489 ;; Tracked objects:
  2490 ;;		On entry : 0/0
  2491 ;;		On exit  : 0/0
  2492 ;;		Unchanged: 0/0
  2493 ;; Data sizes:     COMRAM   BANK0   BANK1   BANK2   BANK3   BANK4   BANK5   BANK6   BANK7
  2494 ;;      Params:         0       0       0       0       0       0       0       0       0
  2495 ;;      Locals:         1       0       0       0       0       0       0       0       0
  2496 ;;      Temps:          0       0       0       0       0       0       0       0       0
  2497 ;;      Totals:         1       0       0       0       0       0       0       0       0
  2498 ;;Total ram usage:        1 bytes
  2499 ;; Hardware stack levels used: 1
  2500 ;; Hardware stack levels required when called: 2
  2501 ;; This function calls:
  2502 ;;		_I2C_Write
  2503 ;; This function is called by:
  2504 ;;		_RTC_Read_Hour
  2505 ;;		_RTC_Read_Clock
  2506 ;;		_RTC_Read_Calendar
  2507 ;; This function uses a non-reentrant model
  2508 ;;
  2509                           
  2510                           	psect	text10
  2511  00719A                     __ptext10:
  2512                           	callstack 0
  2513  00719A                     _I2C_Repeated_Start:
  2514                           	callstack 27
  2515                           
  2516                           ;incstack = 0
  2517                           ;I2C_Repeated_Start@slave_read_address stored from wreg
  2518  00719A  6E02               	movwf	I2C_Repeated_Start@slave_read_address^0,c
  2519  00719C                     
  2520                           ;PIC18F4550_I2C_Source_File.c: 79: char I2C_Repeated_Start(char slave_read_address);PIC1
      +                          8F4550_I2C_Source_File.c: 80: {;PIC18F4550_I2C_Source_File.c: 81:     RSEN = 1;
  2521  00719C  82C5               	bsf	4037,1,c	;volatile
  2522  00719E                     l134:
  2523  00719E  B2C5               	btfsc	4037,1,c	;volatile
  2524  0071A0  EFD4  F038         	goto	u91
  2525  0071A4  EFD6  F038         	goto	u90
  2526  0071A8                     u91:
  2527  0071A8  EFCF  F038         	goto	l134
  2528  0071AC                     u90:
  2529  0071AC                     
  2530                           ;PIC18F4550_I2C_Source_File.c: 83:     SSPIF = 0;
  2531  0071AC  969E               	bcf	3998,3,c	;volatile
  2532                           
  2533                           ;PIC18F4550_I2C_Source_File.c: 84:  if(!SSPSTATbits.S)
  2534  0071AE  B6C7               	btfsc	199,3,c	;volatile
  2535  0071B0  EFDC  F038         	goto	u101
  2536  0071B4  EFDE  F038         	goto	u100
  2537  0071B8                     u101:
  2538  0071B8  EFE0  F038         	goto	l966
  2539  0071BC                     u100:
  2540  0071BC  EFE3  F038         	goto	l138
  2541  0071C0                     l966:
  2542                           
  2543                           ;PIC18F4550_I2C_Source_File.c: 86:     I2C_Write(slave_read_address);
  2544  0071C0  5002               	movf	I2C_Repeated_Start@slave_read_address^0,w,c
  2545  0071C2  ECBC  F038         	call	_I2C_Write
  2546  0071C6                     l138:
  2547  0071C6  0012               	return		;funcret
  2548  0071C8                     __end_of_I2C_Repeated_Start:
  2549                           	callstack 0
  2550                           
  2551 ;; *************** function _I2C_Write *****************
  2552 ;; Defined at:
  2553 ;;		line 101 in file "PIC18F4550_I2C_Source_File.c"
  2554 ;; Parameters:    Size  Location     Type
  2555 ;;  data            1    wreg     unsigned char 
  2556 ;; Auto vars:     Size  Location     Type
  2557 ;;  data            1    0[COMRAM] unsigned char 
  2558 ;; Return value:  Size  Location     Type
  2559 ;;                  1    wreg      unsigned char 
  2560 ;; Registers used:
  2561 ;;		wreg, cstack
  2562 ;; Tracked objects:
  2563 ;;		On entry : 0/0
  2564 ;;		On exit  : 0/0
  2565 ;;		Unchanged: 0/0
  2566 ;; Data sizes:     COMRAM   BANK0   BANK1   BANK2   BANK3   BANK4   BANK5   BANK6   BANK7
  2567 ;;      Params:         0       0       0       0       0       0       0       0       0
  2568 ;;      Locals:         1       0       0       0       0       0       0       0       0
  2569 ;;      Temps:          0       0       0       0       0       0       0       0       0
  2570 ;;      Totals:         1       0       0       0       0       0       0       0       0
  2571 ;;Total ram usage:        1 bytes
  2572 ;; Hardware stack levels used: 1
  2573 ;; Hardware stack levels required when called: 1
  2574 ;; This function calls:
  2575 ;;		_I2C_Ready
  2576 ;; This function is called by:
  2577 ;;		_I2C_Start
  2578 ;;		_I2C_Repeated_Start
  2579 ;;		_RTC_Read_Hour
  2580 ;;		_I2C_Start_Wait
  2581 ;;		_RTC_Read_Clock
  2582 ;;		_RTC_Read_Calendar
  2583 ;; This function uses a non-reentrant model
  2584 ;;
  2585                           
  2586                           	psect	text11
  2587  007178                     __ptext11:
  2588                           	callstack 0
  2589  007178                     _I2C_Write:
  2590                           	callstack 28
  2591                           
  2592                           ;incstack = 0
  2593                           ;I2C_Write@data stored from wreg
  2594  007178  6E01               	movwf	I2C_Write@data^0,c
  2595  00717A                     
  2596                           ;PIC18F4550_I2C_Source_File.c: 101: char I2C_Write(unsigned char data);PIC18F4550_I2C_So
      +                          urce_File.c: 102: {;PIC18F4550_I2C_Source_File.c: 103:       SSPBUF = data;
  2597  00717A  C001  FFC9         	movff	I2C_Write@data,4041	;volatile
  2598  00717E                     
  2599                           ;PIC18F4550_I2C_Source_File.c: 104:       I2C_Ready();
  2600  00717E  EC6B  F038         	call	_I2C_Ready	;wreg free
  2601  007182                     
  2602                           ;PIC18F4550_I2C_Source_File.c: 105:       if (ACKSTAT)
  2603  007182  ACC5               	btfss	4037,6,c	;volatile
  2604  007184  EFC6  F038         	goto	u41
  2605  007188  EFC8  F038         	goto	u40
  2606  00718C                     u41:
  2607  00718C  EFCB  F038         	goto	l938
  2608  007190                     u40:
  2609  007190                     
  2610                           ;PIC18F4550_I2C_Source_File.c: 106:         return 1;
  2611  007190  0E01               	movlw	1
  2612  007192  EFCC  F038         	goto	l151
  2613  007196                     l938:
  2614                           
  2615                           ;PIC18F4550_I2C_Source_File.c: 108:         return 2;
  2616  007196  0E02               	movlw	2
  2617  007198                     l151:
  2618  007198  0012               	return		;funcret
  2619  00719A                     __end_of_I2C_Write:
  2620                           	callstack 0
  2621                           
  2622 ;; *************** function _I2C_Read *****************
  2623 ;; Defined at:
  2624 ;;		line 12 in file "PIC18F4550_I2C_Source_File.c"
  2625 ;; Parameters:    Size  Location     Type
  2626 ;;  flag            1    wreg     unsigned char 
  2627 ;; Auto vars:     Size  Location     Type
  2628 ;;  flag            1    0[COMRAM] unsigned char 
  2629 ;;  buffer          1    1[COMRAM] unsigned char 
  2630 ;; Return value:  Size  Location     Type
  2631 ;;                  1    wreg      unsigned char 
  2632 ;; Registers used:
  2633 ;;		wreg, status,2, cstack
  2634 ;; Tracked objects:
  2635 ;;		On entry : 0/0
  2636 ;;		On exit  : 0/0
  2637 ;;		Unchanged: 0/0
  2638 ;; Data sizes:     COMRAM   BANK0   BANK1   BANK2   BANK3   BANK4   BANK5   BANK6   BANK7
  2639 ;;      Params:         0       0       0       0       0       0       0       0       0
  2640 ;;      Locals:         2       0       0       0       0       0       0       0       0
  2641 ;;      Temps:          0       0       0       0       0       0       0       0       0
  2642 ;;      Totals:         2       0       0       0       0       0       0       0       0
  2643 ;;Total ram usage:        2 bytes
  2644 ;; Hardware stack levels used: 1
  2645 ;; Hardware stack levels required when called: 1
  2646 ;; This function calls:
  2647 ;;		_I2C_Ack
  2648 ;;		_I2C_Nack
  2649 ;;		_I2C_Ready
  2650 ;; This function is called by:
  2651 ;;		_RTC_Read_Hour
  2652 ;;		_RTC_Read_Clock
  2653 ;;		_RTC_Read_Calendar
  2654 ;; This function uses a non-reentrant model
  2655 ;;
  2656                           
  2657                           	psect	text12
  2658  0071F6                     __ptext12:
  2659                           	callstack 0
  2660  0071F6                     _I2C_Read:
  2661                           	callstack 28
  2662                           
  2663                           ;incstack = 0
  2664                           ;I2C_Read@flag stored from wreg
  2665  0071F6  6E01               	movwf	I2C_Read@flag^0,c
  2666  0071F8                     
  2667                           ;PIC18F4550_I2C_Source_File.c: 12: char I2C_Read(char flag);PIC18F4550_I2C_Source_File.c
      +                          : 14: {;PIC18F4550_I2C_Source_File.c: 15:         char buffer;;PIC18F4550_I2C_Source_Fil
      +                          e.c: 16:         RCEN = 1;
  2668  0071F8  86C5               	bsf	4037,3,c	;volatile
  2669  0071FA                     l99:
  2670  0071FA  A0C7               	btfss	199,0,c	;volatile
  2671  0071FC  EF02  F039         	goto	u51
  2672  007200  EF04  F039         	goto	u50
  2673  007204                     u51:
  2674  007204  EFFD  F038         	goto	l99
  2675  007208                     u50:
  2676  007208                     
  2677                           ;PIC18F4550_I2C_Source_File.c: 19:         buffer = SSPBUF;
  2678  007208  CFC9 F002          	movff	4041,I2C_Read@buffer	;volatile
  2679  00720C                     
  2680                           ;PIC18F4550_I2C_Source_File.c: 21:         if(flag==0)
  2681  00720C  5001               	movf	I2C_Read@flag^0,w,c
  2682  00720E  A4D8               	btfss	status,2,c
  2683  007210  EF0C  F039         	goto	u61
  2684  007214  EF0E  F039         	goto	u60
  2685  007218                     u61:
  2686  007218  EF12  F039         	goto	l948
  2687  00721C                     u60:
  2688  00721C                     
  2689                           ;PIC18F4550_I2C_Source_File.c: 22:             I2C_Ack();
  2690  00721C  EC90  F038         	call	_I2C_Ack	;wreg free
  2691  007220  EF14  F039         	goto	l103
  2692  007224                     l948:
  2693                           
  2694                           ;PIC18F4550_I2C_Source_File.c: 24:             I2C_Nack();
  2695  007224  EC9A  F038         	call	_I2C_Nack	;wreg free
  2696  007228                     l103:
  2697                           
  2698                           ;PIC18F4550_I2C_Source_File.c: 25:         I2C_Ready();
  2699  007228  EC6B  F038         	call	_I2C_Ready	;wreg free
  2700  00722C                     
  2701                           ;PIC18F4550_I2C_Source_File.c: 26:         return(buffer);
  2702  00722C  5002               	movf	I2C_Read@buffer^0,w,c
  2703  00722E  0012               	return		;funcret
  2704  007230                     __end_of_I2C_Read:
  2705                           	callstack 0
  2706                           
  2707 ;; *************** function _I2C_Ready *****************
  2708 ;; Defined at:
  2709 ;;		line 43 in file "PIC18F4550_I2C_Source_File.c"
  2710 ;; Parameters:    Size  Location     Type
  2711 ;;		None
  2712 ;; Auto vars:     Size  Location     Type
  2713 ;;		None
  2714 ;; Return value:  Size  Location     Type
  2715 ;;                  1    wreg      void 
  2716 ;; Registers used:
  2717 ;;		None
  2718 ;; Tracked objects:
  2719 ;;		On entry : 0/0
  2720 ;;		On exit  : 0/0
  2721 ;;		Unchanged: 0/0
  2722 ;; Data sizes:     COMRAM   BANK0   BANK1   BANK2   BANK3   BANK4   BANK5   BANK6   BANK7
  2723 ;;      Params:         0       0       0       0       0       0       0       0       0
  2724 ;;      Locals:         0       0       0       0       0       0       0       0       0
  2725 ;;      Temps:          0       0       0       0       0       0       0       0       0
  2726 ;;      Totals:         0       0       0       0       0       0       0       0       0
  2727 ;;Total ram usage:        0 bytes
  2728 ;; Hardware stack levels used: 1
  2729 ;; This function calls:
  2730 ;;		Nothing
  2731 ;; This function is called by:
  2732 ;;		_I2C_Read
  2733 ;;		_I2C_Write
  2734 ;; This function uses a non-reentrant model
  2735 ;;
  2736                           
  2737                           	psect	text13
  2738  0070D6                     __ptext13:
  2739                           	callstack 0
  2740  0070D6                     _I2C_Ready:
  2741                           	callstack 28
  2742  0070D6                     l110:
  2743  0070D6  A69E               	btfss	3998,3,c	;volatile
  2744  0070D8  EF70  F038         	goto	u11
  2745  0070DC  EF72  F038         	goto	u10
  2746  0070E0                     u11:
  2747  0070E0  EF6B  F038         	goto	l110
  2748  0070E4                     u10:
  2749  0070E4                     
  2750                           ;PIC18F4550_I2C_Source_File.c: 46:     SSPIF=0;
  2751  0070E4  969E               	bcf	3998,3,c	;volatile
  2752  0070E6  0012               	return		;funcret
  2753  0070E8                     __end_of_I2C_Ready:
  2754                           	callstack 0
  2755                           
  2756 ;; *************** function _I2C_Nack *****************
  2757 ;; Defined at:
  2758 ;;		line 118 in file "PIC18F4550_I2C_Source_File.c"
  2759 ;; Parameters:    Size  Location     Type
  2760 ;;		None
  2761 ;; Auto vars:     Size  Location     Type
  2762 ;;		None
  2763 ;; Return value:  Size  Location     Type
  2764 ;;                  1    wreg      void 
  2765 ;; Registers used:
  2766 ;;		None
  2767 ;; Tracked objects:
  2768 ;;		On entry : 0/0
  2769 ;;		On exit  : 0/0
  2770 ;;		Unchanged: 0/0
  2771 ;; Data sizes:     COMRAM   BANK0   BANK1   BANK2   BANK3   BANK4   BANK5   BANK6   BANK7
  2772 ;;      Params:         0       0       0       0       0       0       0       0       0
  2773 ;;      Locals:         0       0       0       0       0       0       0       0       0
  2774 ;;      Temps:          0       0       0       0       0       0       0       0       0
  2775 ;;      Totals:         0       0       0       0       0       0       0       0       0
  2776 ;;Total ram usage:        0 bytes
  2777 ;; Hardware stack levels used: 1
  2778 ;; This function calls:
  2779 ;;		Nothing
  2780 ;; This function is called by:
  2781 ;;		_I2C_Read
  2782 ;; This function uses a non-reentrant model
  2783 ;;
  2784                           
  2785                           	psect	text14
  2786  007134                     __ptext14:
  2787                           	callstack 0
  2788  007134                     _I2C_Nack:
  2789                           	callstack 28
  2790  007134                     
  2791                           ;PIC18F4550_I2C_Source_File.c: 120:     ACKDT=1;
  2792  007134  8AC5               	bsf	4037,5,c	;volatile
  2793                           
  2794                           ;PIC18F4550_I2C_Source_File.c: 121:  ACKEN=1;
  2795  007136  88C5               	bsf	4037,4,c	;volatile
  2796  007138                     l161:
  2797  007138  B8C5               	btfsc	4037,4,c	;volatile
  2798  00713A  EFA1  F038         	goto	u31
  2799  00713E  EFA3  F038         	goto	u30
  2800  007142                     u31:
  2801  007142  EF9C  F038         	goto	l161
  2802  007146                     u30:
  2803  007146  0012               	return		;funcret
  2804  007148                     __end_of_I2C_Nack:
  2805                           	callstack 0
  2806                           
  2807 ;; *************** function _I2C_Ack *****************
  2808 ;; Defined at:
  2809 ;;		line 111 in file "PIC18F4550_I2C_Source_File.c"
  2810 ;; Parameters:    Size  Location     Type
  2811 ;;		None
  2812 ;; Auto vars:     Size  Location     Type
  2813 ;;		None
  2814 ;; Return value:  Size  Location     Type
  2815 ;;                  1    wreg      void 
  2816 ;; Registers used:
  2817 ;;		None
  2818 ;; Tracked objects:
  2819 ;;		On entry : 0/0
  2820 ;;		On exit  : 0/0
  2821 ;;		Unchanged: 0/0
  2822 ;; Data sizes:     COMRAM   BANK0   BANK1   BANK2   BANK3   BANK4   BANK5   BANK6   BANK7
  2823 ;;      Params:         0       0       0       0       0       0       0       0       0
  2824 ;;      Locals:         0       0       0       0       0       0       0       0       0
  2825 ;;      Temps:          0       0       0       0       0       0       0       0       0
  2826 ;;      Totals:         0       0       0       0       0       0       0       0       0
  2827 ;;Total ram usage:        0 bytes
  2828 ;; Hardware stack levels used: 1
  2829 ;; This function calls:
  2830 ;;		Nothing
  2831 ;; This function is called by:
  2832 ;;		_I2C_Read
  2833 ;; This function uses a non-reentrant model
  2834 ;;
  2835                           
  2836                           	psect	text15
  2837  007120                     __ptext15:
  2838                           	callstack 0
  2839  007120                     _I2C_Ack:
  2840                           	callstack 28
  2841  007120                     
  2842                           ;PIC18F4550_I2C_Source_File.c: 113:     ACKDT=0;
  2843  007120  9AC5               	bcf	4037,5,c	;volatile
  2844                           
  2845                           ;PIC18F4550_I2C_Source_File.c: 114:  ACKEN=1;
  2846  007122  88C5               	bsf	4037,4,c	;volatile
  2847  007124                     l155:
  2848  007124  B8C5               	btfsc	4037,4,c	;volatile
  2849  007126  EF97  F038         	goto	u21
  2850  00712A  EF99  F038         	goto	u20
  2851  00712E                     u21:
  2852  00712E  EF92  F038         	goto	l155
  2853  007132                     u20:
  2854  007132  0012               	return		;funcret
  2855  007134                     __end_of_I2C_Ack:
  2856                           	callstack 0
  2857                           
  2858 ;; *************** function _I2C_Stop *****************
  2859 ;; Defined at:
  2860 ;;		line 93 in file "PIC18F4550_I2C_Source_File.c"
  2861 ;; Parameters:    Size  Location     Type
  2862 ;;		None
  2863 ;; Auto vars:     Size  Location     Type
  2864 ;;		None
  2865 ;; Return value:  Size  Location     Type
  2866 ;;                  1    wreg      unsigned char 
  2867 ;; Registers used:
  2868 ;;		wreg
  2869 ;; Tracked objects:
  2870 ;;		On entry : 0/0
  2871 ;;		On exit  : 0/0
  2872 ;;		Unchanged: 0/0
  2873 ;; Data sizes:     COMRAM   BANK0   BANK1   BANK2   BANK3   BANK4   BANK5   BANK6   BANK7
  2874 ;;      Params:         0       0       0       0       0       0       0       0       0
  2875 ;;      Locals:         0       0       0       0       0       0       0       0       0
  2876 ;;      Temps:          0       0       0       0       0       0       0       0       0
  2877 ;;      Totals:         0       0       0       0       0       0       0       0       0
  2878 ;;Total ram usage:        0 bytes
  2879 ;; Hardware stack levels used: 1
  2880 ;; This function calls:
  2881 ;;		Nothing
  2882 ;; This function is called by:
  2883 ;;		_main
  2884 ;;		_I2C_Start_Wait
  2885 ;;		_RTC_Read_Calendar
  2886 ;; This function uses a non-reentrant model
  2887 ;;
  2888                           
  2889                           	psect	text16
  2890  00710C                     __ptext16:
  2891                           	callstack 0
  2892  00710C                     _I2C_Stop:
  2893                           	callstack 30
  2894  00710C                     
  2895                           ;PIC18F4550_I2C_Source_File.c: 95:     PEN = 1;
  2896  00710C  84C5               	bsf	4037,2,c	;volatile
  2897  00710E                     l143:
  2898  00710E  B4C5               	btfsc	4037,2,c	;volatile
  2899  007110  EF8C  F038         	goto	u911
  2900  007114  EF8E  F038         	goto	u910
  2901  007118                     u911:
  2902  007118  EF87  F038         	goto	l143
  2903  00711C                     u910:
  2904  00711C                     
  2905                           ;PIC18F4550_I2C_Source_File.c: 97:     if(!SSPSTATbits.P);
  2906  00711C  50C7               	movf	199,w,c	;volatile
  2907  00711E  0012               	return		;funcret
  2908  007120                     __end_of_I2C_Stop:
  2909                           	callstack 0
  2910                           
  2911 ;; *************** function _I2C_Init *****************
  2912 ;; Defined at:
  2913 ;;		line 29 in file "PIC18F4550_I2C_Source_File.c"
  2914 ;; Parameters:    Size  Location     Type
  2915 ;;		None
  2916 ;; Auto vars:     Size  Location     Type
  2917 ;;		None
  2918 ;; Return value:  Size  Location     Type
  2919 ;;                  1    wreg      void 
  2920 ;; Registers used:
  2921 ;;		wreg, status,2
  2922 ;; Tracked objects:
  2923 ;;		On entry : 0/0
  2924 ;;		On exit  : 0/0
  2925 ;;		Unchanged: 0/0
  2926 ;; Data sizes:     COMRAM   BANK0   BANK1   BANK2   BANK3   BANK4   BANK5   BANK6   BANK7
  2927 ;;      Params:         0       0       0       0       0       0       0       0       0
  2928 ;;      Locals:         0       0       0       0       0       0       0       0       0
  2929 ;;      Temps:          0       0       0       0       0       0       0       0       0
  2930 ;;      Totals:         0       0       0       0       0       0       0       0       0
  2931 ;;Total ram usage:        0 bytes
  2932 ;; Hardware stack levels used: 1
  2933 ;; This function calls:
  2934 ;;		Nothing
  2935 ;; This function is called by:
  2936 ;;		_main
  2937 ;; This function uses a non-reentrant model
  2938 ;;
  2939                           
  2940                           	psect	text17
  2941  00715E                     __ptext17:
  2942                           	callstack 0
  2943  00715E                     _I2C_Init:
  2944                           	callstack 30
  2945  00715E                     
  2946                           ;PIC18F4550_I2C_Source_File.c: 31:     TRISB0=1;
  2947  00715E  8093               	bsf	3987,0,c	;volatile
  2948                           
  2949                           ;PIC18F4550_I2C_Source_File.c: 32:  TRISB1=1;
  2950  007160  8293               	bsf	3987,1,c	;volatile
  2951  007162                     
  2952                           ;PIC18F4550_I2C_Source_File.c: 33:  SSPSTAT=80;
  2953  007162  0E50               	movlw	80
  2954  007164  6EC7               	movwf	199,c	;volatile
  2955                           
  2956                           ;PIC18F4550_I2C_Source_File.c: 34:     SSPCON1=0x28;
  2957  007166  0E28               	movlw	40
  2958  007168  6EC6               	movwf	198,c	;volatile
  2959                           
  2960                           ;PIC18F4550_I2C_Source_File.c: 36:  SSPCON2=0;
  2961  00716A  0E00               	movlw	0
  2962  00716C  6EC5               	movwf	197,c	;volatile
  2963                           
  2964                           ;PIC18F4550_I2C_Source_File.c: 37:     SSPADD=((8000000/(4*100000))-1);
  2965  00716E  0E13               	movlw	19
  2966  007170  6EC8               	movwf	200,c	;volatile
  2967  007172                     
  2968                           ;PIC18F4550_I2C_Source_File.c: 38:     SSPIE=1;
  2969  007172  869D               	bsf	3997,3,c	;volatile
  2970  007174                     
  2971                           ;PIC18F4550_I2C_Source_File.c: 39:     SSPIF=0;
  2972  007174  969E               	bcf	3998,3,c	;volatile
  2973  007176  0012               	return		;funcret
  2974  007178                     __end_of_I2C_Init:
  2975                           	callstack 0
  2976  0000                     
  2977                           	psect	rparam
  2978  0000                     
  2979                           	psect	idloc
  2980                           
  2981                           ;Config register IDLOC0 @ 0x200000
  2982                           ;	unspecified, using default values
  2983  200000                     	org	2097152
  2984  200000  FF                 	db	255
  2985                           
  2986                           ;Config register IDLOC1 @ 0x200001
  2987                           ;	unspecified, using default values
  2988  200001                     	org	2097153
  2989  200001  FF                 	db	255
  2990                           
  2991                           ;Config register IDLOC2 @ 0x200002
  2992                           ;	unspecified, using default values
  2993  200002                     	org	2097154
  2994  200002  FF                 	db	255
  2995                           
  2996                           ;Config register IDLOC3 @ 0x200003
  2997                           ;	unspecified, using default values
  2998  200003                     	org	2097155
  2999  200003  FF                 	db	255
  3000                           
  3001                           ;Config register IDLOC4 @ 0x200004
  3002                           ;	unspecified, using default values
  3003  200004                     	org	2097156
  3004  200004  FF                 	db	255
  3005                           
  3006                           ;Config register IDLOC5 @ 0x200005
  3007                           ;	unspecified, using default values
  3008  200005                     	org	2097157
  3009  200005  FF                 	db	255
  3010                           
  3011                           ;Config register IDLOC6 @ 0x200006
  3012                           ;	unspecified, using default values
  3013  200006                     	org	2097158
  3014  200006  FF                 	db	255
  3015                           
  3016                           ;Config register IDLOC7 @ 0x200007
  3017                           ;	unspecified, using default values
  3018  200007                     	org	2097159
  3019  200007  FF                 	db	255
  3020                           
  3021                           	psect	config
  3022                           
  3023                           ;Config register CONFIG1L @ 0x300000
  3024                           ;	PLL Prescaler Selection bits
  3025                           ;	PLLDIV = 1, No prescale (4 MHz oscillator input drives PLL directly)
  3026                           ;	System Clock Postscaler Selection bits
  3027                           ;	CPUDIV = OSC1_PLL2, [Primary Oscillator Src: /1][96 MHz PLL Src: /2]
  3028                           ;	USB Clock Selection bit (used in Full-Speed USB mode only; UCFG:FSEN = 1)
  3029                           ;	USBDIV = 1, USB clock source comes directly from the primary oscillator block with no 
      +                          postscale
  3030  300000                     	org	3145728
  3031  300000  00                 	db	0
  3032                           
  3033                           ;Config register CONFIG1H @ 0x300001
  3034                           ;	Oscillator Selection bits
  3035                           ;	FOSC = INTOSC_EC, Internal oscillator, CLKO function on RA6, EC used by USB (INTCKO)
  3036                           ;	Fail-Safe Clock Monitor Enable bit
  3037                           ;	FCMEN = OFF, Fail-Safe Clock Monitor disabled
  3038                           ;	Internal/External Oscillator Switchover bit
  3039                           ;	IESO = OFF, Oscillator Switchover mode disabled
  3040  300001                     	org	3145729
  3041  300001  09                 	db	9
  3042                           
  3043                           ;Config register CONFIG2L @ 0x300002
  3044                           ;	Power-up Timer Enable bit
  3045                           ;	PWRT = OFF, PWRT disabled
  3046                           ;	Brown-out Reset Enable bits
  3047                           ;	BOR = ON, Brown-out Reset enabled in hardware only (SBOREN is disabled)
  3048                           ;	Brown-out Reset Voltage bits
  3049                           ;	BORV = 3, Minimum setting 2.05V
  3050                           ;	USB Voltage Regulator Enable bit
  3051                           ;	VREGEN = OFF, USB voltage regulator disabled
  3052  300002                     	org	3145730
  3053  300002  1F                 	db	31
  3054                           
  3055                           ;Config register CONFIG2H @ 0x300003
  3056                           ;	Watchdog Timer Enable bit
  3057                           ;	WDT = OFF, WDT disabled (control is placed on the SWDTEN bit)
  3058                           ;	Watchdog Timer Postscale Select bits
  3059                           ;	WDTPS = 32768, 1:32768
  3060  300003                     	org	3145731
  3061  300003  1E                 	db	30
  3062                           
  3063                           ; Padding undefined space
  3064  300004                     	org	3145732
  3065  300004  FF                 	db	255
  3066                           
  3067                           ;Config register CONFIG3H @ 0x300005
  3068                           ;	CCP2 MUX bit
  3069                           ;	CCP2MX = ON, CCP2 input/output is multiplexed with RC1
  3070                           ;	PORTB A/D Enable bit
  3071                           ;	PBADEN = OFF, PORTB<4:0> pins are configured as digital I/O on Reset
  3072                           ;	Low-Power Timer 1 Oscillator Enable bit
  3073                           ;	LPT1OSC = OFF, Timer1 configured for higher power operation
  3074                           ;	MCLR Pin Enable bit
  3075                           ;	MCLRE = ON, MCLR pin enabled; RE3 input pin disabled
  3076  300005                     	org	3145733
  3077  300005  81                 	db	129
  3078                           
  3079                           ;Config register CONFIG4L @ 0x300006
  3080                           ;	Stack Full/Underflow Reset Enable bit
  3081                           ;	STVREN = ON, Stack full/underflow will cause Reset
  3082                           ;	Single-Supply ICSP Enable bit
  3083                           ;	LVP = OFF, Single-Supply ICSP disabled
  3084                           ;	Dedicated In-Circuit Debug/Programming Port (ICPORT) Enable bit
  3085                           ;	ICPRT = OFF, ICPORT disabled
  3086                           ;	Extended Instruction Set Enable bit
  3087                           ;	XINST = OFF, Instruction set extension and Indexed Addressing mode disabled (Legacy mo
      +                          de)
  3088                           ;	Background Debugger Enable bit
  3089                           ;	DEBUG = 0x1, unprogrammed default
  3090  300006                     	org	3145734
  3091  300006  81                 	db	129
  3092                           
  3093                           ; Padding undefined space
  3094  300007                     	org	3145735
  3095  300007  FF                 	db	255
  3096                           
  3097                           ;Config register CONFIG5L @ 0x300008
  3098                           ;	Code Protection bit
  3099                           ;	CP0 = OFF, Block 0 (000800-001FFFh) is not code-protected
  3100                           ;	Code Protection bit
  3101                           ;	CP1 = OFF, Block 1 (002000-003FFFh) is not code-protected
  3102                           ;	Code Protection bit
  3103                           ;	CP2 = OFF, Block 2 (004000-005FFFh) is not code-protected
  3104                           ;	Code Protection bit
  3105                           ;	CP3 = OFF, Block 3 (006000-007FFFh) is not code-protected
  3106  300008                     	org	3145736
  3107  300008  0F                 	db	15
  3108                           
  3109                           ;Config register CONFIG5H @ 0x300009
  3110                           ;	Boot Block Code Protection bit
  3111                           ;	CPB = OFF, Boot block (000000-0007FFh) is not code-protected
  3112                           ;	Data EEPROM Code Protection bit
  3113                           ;	CPD = OFF, Data EEPROM is not code-protected
  3114  300009                     	org	3145737
  3115  300009  C0                 	db	192
  3116                           
  3117                           ;Config register CONFIG6L @ 0x30000A
  3118                           ;	Write Protection bit
  3119                           ;	WRT0 = OFF, Block 0 (000800-001FFFh) is not write-protected
  3120                           ;	Write Protection bit
  3121                           ;	WRT1 = OFF, Block 1 (002000-003FFFh) is not write-protected
  3122                           ;	Write Protection bit
  3123                           ;	WRT2 = OFF, Block 2 (004000-005FFFh) is not write-protected
  3124                           ;	Write Protection bit
  3125                           ;	WRT3 = OFF, Block 3 (006000-007FFFh) is not write-protected
  3126  30000A                     	org	3145738
  3127  30000A  0F                 	db	15
  3128                           
  3129                           ;Config register CONFIG6H @ 0x30000B
  3130                           ;	Configuration Register Write Protection bit
  3131                           ;	WRTC = OFF, Configuration registers (300000-3000FFh) are not write-protected
  3132                           ;	Boot Block Write Protection bit
  3133                           ;	WRTB = OFF, Boot block (000000-0007FFh) is not write-protected
  3134                           ;	Data EEPROM Write Protection bit
  3135                           ;	WRTD = OFF, Data EEPROM is not write-protected
  3136  30000B                     	org	3145739
  3137  30000B  E0                 	db	224
  3138                           
  3139                           ;Config register CONFIG7L @ 0x30000C
  3140                           ;	Table Read Protection bit
  3141                           ;	EBTR0 = OFF, Block 0 (000800-001FFFh) is not protected from table reads executed in ot
      +                          her blocks
  3142                           ;	Table Read Protection bit
  3143                           ;	EBTR1 = OFF, Block 1 (002000-003FFFh) is not protected from table reads executed in ot
      +                          her blocks
  3144                           ;	Table Read Protection bit
  3145                           ;	EBTR2 = OFF, Block 2 (004000-005FFFh) is not protected from table reads executed in ot
      +                          her blocks
  3146                           ;	Table Read Protection bit
  3147                           ;	EBTR3 = OFF, Block 3 (006000-007FFFh) is not protected from table reads executed in ot
      +                          her blocks
  3148  30000C                     	org	3145740
  3149  30000C  0F                 	db	15
  3150                           
  3151                           ;Config register CONFIG7H @ 0x30000D
  3152                           ;	Boot Block Table Read Protection bit
  3153                           ;	EBTRB = OFF, Boot block (000000-0007FFh) is not protected from table reads executed in
      +                           other blocks
  3154  30000D                     	org	3145741
  3155  30000D  40                 	db	64
  3156                           tosu	equ	0xFFF
  3157                           tosh	equ	0xFFE
  3158                           tosl	equ	0xFFD
  3159                           stkptr	equ	0xFFC
  3160                           pclatu	equ	0xFFB
  3161                           pclath	equ	0xFFA
  3162                           pcl	equ	0xFF9
  3163                           tblptru	equ	0xFF8
  3164                           tblptrh	equ	0xFF7
  3165                           tblptrl	equ	0xFF6
  3166                           tablat	equ	0xFF5
  3167                           prodh	equ	0xFF4
  3168                           prodl	equ	0xFF3
  3169                           indf0	equ	0xFEF
  3170                           postinc0	equ	0xFEE
  3171                           postdec0	equ	0xFED
  3172                           preinc0	equ	0xFEC
  3173                           plusw0	equ	0xFEB
  3174                           fsr0h	equ	0xFEA
  3175                           fsr0l	equ	0xFE9
  3176                           wreg	equ	0xFE8
  3177                           indf1	equ	0xFE7
  3178                           postinc1	equ	0xFE6
  3179                           postdec1	equ	0xFE5
  3180                           preinc1	equ	0xFE4
  3181                           plusw1	equ	0xFE3
  3182                           fsr1h	equ	0xFE2
  3183                           fsr1l	equ	0xFE1
  3184                           bsr	equ	0xFE0
  3185                           indf2	equ	0xFDF
  3186                           postinc2	equ	0xFDE
  3187                           postdec2	equ	0xFDD
  3188                           preinc2	equ	0xFDC
  3189                           plusw2	equ	0xFDB
  3190                           fsr2h	equ	0xFDA
  3191                           fsr2l	equ	0xFD9
  3192                           status	equ	0xFD8

Data Sizes:
    Strings     0
    Constant    0
    Data        0
    BSS         14
    Persistent  0
    Stack       0

Auto Spaces:
    Space          Size  Autos    Used
    COMRAM           95     73      87
    BANK0           160      0       0
    BANK1           256      0       0
    BANK2           256      0       0
    BANK3           256      0       0
    BANK4           256      0       0
    BANK5           256      0       0
    BANK6           256      0       0
    BANK7           256      0       0

Pointer List with Targets:

    None.

Critical Paths under _main in COMRAM

    _main->_USART_Init
    _USART_Init->___fltol
    ___fltol->___fladd
    ___fldiv->___xxtofl
    ___fladd->___fldiv
    _RTC_Read_Hour->_I2C_Read
    _RTC_Read_Hour->_I2C_Repeated_Start
    _RTC_Read_Hour->_I2C_Start
    _I2C_Start->_I2C_Write
    _I2C_Repeated_Start->_I2C_Write

Critical Paths under _main in BANK0

    None.

Critical Paths under _main in BANK1

    None.

Critical Paths under _main in BANK2

    None.

Critical Paths under _main in BANK3

    None.

Critical Paths under _main in BANK4

    None.

Critical Paths under _main in BANK5

    None.

Critical Paths under _main in BANK6

    None.

Critical Paths under _main in BANK7

    None.

Call Graph Tables:

 ---------------------------------------------------------------------------------
 (Depth) Function   	        Calls       Base Space   Used Autos Params    Refs
 ---------------------------------------------------------------------------------
 (0) _main                                                 4     4      0    5356
                                             69 COMRAM     4     4      0
                           _I2C_Init
                           _I2C_Stop
                      _RTC_Read_Hour
                         _USART_Init
                  _USART_ReceiveChar
                 _USART_TransmitChar
 ---------------------------------------------------------------------------------
 (1) _USART_TransmitChar                                   1     1      0      15
                                              0 COMRAM     1     1      0
 ---------------------------------------------------------------------------------
 (1) _USART_ReceiveChar                                    0     0      0       0
 ---------------------------------------------------------------------------------
 (1) _USART_Init                                           8     4      4    4991
                                             65 COMRAM     4     0      4
                            ___fladd
                            ___fldiv
                            ___fltol
                           ___xxtofl
 ---------------------------------------------------------------------------------
 (2) ___xxtofl                                            14    10      4     474
                                              0 COMRAM    14    10      4
 ---------------------------------------------------------------------------------
 (2) ___fltol                                             10     6      4     305
                                             55 COMRAM    10     6      4
                            ___fladd (ARG)
                            ___fldiv (ARG)
                           ___xxtofl (ARG)
 ---------------------------------------------------------------------------------
 (2) ___fldiv                                             25    17      8    1551
                                             14 COMRAM    25    17      8
                           ___xxtofl (ARG)
 ---------------------------------------------------------------------------------
 (2) ___fladd                                             16     8      8    2540
                                             39 COMRAM    16     8      8
                            ___fldiv (ARG)
                           ___xxtofl (ARG)
 ---------------------------------------------------------------------------------
 (1) _RTC_Read_Hour                                        4     2      2     127
                                              2 COMRAM     4     2      2
                           _I2C_Read
                 _I2C_Repeated_Start
                          _I2C_Start
                          _I2C_Write
 ---------------------------------------------------------------------------------
 (2) _I2C_Start                                            1     1      0      30
                                              1 COMRAM     1     1      0
                          _I2C_Write
 ---------------------------------------------------------------------------------
 (2) _I2C_Repeated_Start                                   1     1      0      30
                                              1 COMRAM     1     1      0
                          _I2C_Write
 ---------------------------------------------------------------------------------
 (2) _I2C_Write                                            1     1      0      15
                                              0 COMRAM     1     1      0
                          _I2C_Ready
 ---------------------------------------------------------------------------------
 (2) _I2C_Read                                             2     2      0      30
                                              0 COMRAM     2     2      0
                            _I2C_Ack
                           _I2C_Nack
                          _I2C_Ready
 ---------------------------------------------------------------------------------
 (3) _I2C_Ready                                            0     0      0       0
 ---------------------------------------------------------------------------------
 (3) _I2C_Nack                                             0     0      0       0
 ---------------------------------------------------------------------------------
 (3) _I2C_Ack                                              0     0      0       0
 ---------------------------------------------------------------------------------
 (1) _I2C_Stop                                             0     0      0       0
 ---------------------------------------------------------------------------------
 (1) _I2C_Init                                             0     0      0       0
 ---------------------------------------------------------------------------------
 Estimated maximum stack depth 3
 ---------------------------------------------------------------------------------

 Call Graph Graphs:

 _main (ROOT)
   _I2C_Init
   _I2C_Stop
   _RTC_Read_Hour
     _I2C_Read
       _I2C_Ack
       _I2C_Nack
       _I2C_Ready
     _I2C_Repeated_Start
       _I2C_Write
         _I2C_Ready
     _I2C_Start
       _I2C_Write
     _I2C_Write
   _USART_Init
     ___fladd
       ___fldiv (ARG)
         ___xxtofl (ARG)
       ___xxtofl (ARG)
     ___fldiv
     ___fltol
       ___fladd (ARG)
       ___fldiv (ARG)
       ___xxtofl (ARG)
     ___xxtofl
   _USART_ReceiveChar
   _USART_TransmitChar

 Address spaces:
Name               Size   Autos  Total    Cost      Usage
BIGRAM             7FF      0       0      30        0.0%
EEDATA             100      0       0       0        0.0%
BITBANK7           100      0       0      18        0.0%
BANK7              100      0       0      19        0.0%
BITBANK6           100      0       0      16        0.0%
BANK6              100      0       0      17        0.0%
BITBANK5           100      0       0      14        0.0%
BANK5              100      0       0      15        0.0%
BITBANK4           100      0       0      12        0.0%
BANK4              100      0       0      13        0.0%
BITBANK3           100      0       0      10        0.0%
BANK3              100      0       0      11        0.0%
BITBANK2           100      0       0       8        0.0%
BANK2              100      0       0       9        0.0%
BITBANK1           100      0       0       6        0.0%
BANK1              100      0       0       7        0.0%
BITBANK0            A0      0       0       4        0.0%
BANK0               A0      0       0       5        0.0%
BITCOMRAM           5F      0       0       0        0.0%
COMRAM              5F     49      57       1       91.6%
BITBIGSFRh          2C      0       0      20        0.0%
BITBIGSFRlllll      20      0       0      28        0.0%
BITBIGSFRllhhh      11      0       0      23        0.0%
BITBIGSFRllhhll      C      0       0      24        0.0%
BITBIGSFRlhhhh       9      0       0      21        0.0%
BITBIGSFRllllh       9      0       0      27        0.0%
BITBIGSFRllhl        8      0       0      25        0.0%
BITBIGSFRlllh        7      0       0      26        0.0%
BITBIGSFRlhl         3      0       0      22        0.0%
BIGSFR               0      0       0     200        0.0%
BITSFR               0      0       0     200        0.0%
SFR                  0      0       0     200        0.0%
STACK                0      0       0       2        0.0%
NULL                 0      0       0       0        0.0%
ABS                  0      0      57      29        0.0%
DATA                 0      0      57       3        0.0%
CODE                 0      0       0       0        0.0%


Microchip Technology PIC18 Macro Assembler V2.36 build 20220127204148 
Symbol Table                                                                                   Fri Mar 11 14:46:53 2022

                        ___fldiv@aexp 0027                          ___fldiv@bexp 0026  
                        ___fldiv@sign 001F                           _SSPSTATbits 000FC7  
                                  l40 7532                                    l34 74D8  
                                  l44 75E4                                    l36 75EA  
                                  l46 75DE                                    l99 71FA  
                                  u10 70E4                                    u11 70E0  
                                  u20 7132                                    u21 712E  
                                  u30 7146                                    u31 7142  
                                  u40 7190                                    u41 718C  
                                  u50 7208                                    u51 7204  
                                  u60 721C                                    u61 7218  
                                  u70 71DA                                    u71 71D6  
                                  u80 71EA                                    u81 71E6  
                                  u90 71AC                                    u91 71A8  
                                 l101 7208                                   l110 70D6  
                                 l103 7228                                   l112 70E4  
                                 l104 722E                                   l113 70E6  
                                 l107 7176                                   l131 71F4  
                                 l221 714A                                   l134 719E  
                                 l230 70F8                                   l143 710E  
                                 l151 7198                                   l127 71CC  
                                 l136 71AC                                   l224 715C  
                                 l145 711C                                   l161 7138  
                                 l129 71DA                                   l138 71C6  
                                 l218 7358                                   l147 711E  
                                 l155 7124                                   l227 70E8  
                                 l164 7146                                   l158 7132  
                                 l191 7276                                   l544 745E  
                                 l801 7F18                                   l802 7F06  
                                 l902 7648                                   l831 799E  
                                 l920 70D6                                   l840 79E4  
                                 l905 77A4                                   l922 7120  
                                 l930 7182                                   l842 7A5C  
                                 l834 7962                                   l843 7A4A  
                                 l924 7134                                   l932 7190  
                                 l916 773C                                   l829 7B3E  
                                 l909 76E0                                   l950 722C  
                                 l942 71F8                                   l926 717A  
                                 l775 7D2E                                   l944 720C  
                                 l928 717E                                   l792 7E48  
                                 l784 7FFE                                   l776 7D1C  
                                 l777 7CE2                                   l946 721C  
                                 l938 7196                                   l962 719C  
                                 l954 71CA                                   l948 7224  
                                 l966 71C0                                   l958 71EE  
                                 l968 71C6                                   u100 71BC  
                                 u101 71B8                                   _PEN 007E2A  
                                 u900 70F6                                   u901 70F2  
                                 u910 711C                                   u911 7118  
                                 u920 7158                                   u921 7154  
                                 _Day 0050                       __end_of_I2C_Ack 7134  
                                 _min 0054                                   _sec 0056  
                      ?_RTC_Read_Hour 0003                                   wreg 000FE8  
                         main@data_in 0049                          ___fltol@exp1 0041  
                                l2000 7468                                  l2010 748A  
                                l2002 747C                                  l2020 74DC  
                                l2012 7490                                  l2004 7480  
                                l2030 751E                                  l2022 74EE  
                                l2014 74A2                                  l2006 7482  
                                l2040 755C                                  l2032 752C  
                                l2024 74F4                                  l2016 74B4  
                                l2008 7486                                  l2042 7564  
                                l2034 7538                                  l2026 7506  
                                l2018 74C6                                  l1412 715E  
                                l1420 70E8                                  l2044 7586  
                                l2036 754A                                  l2028 750C  
                                l1414 7162                                  l1422 70F6  
                                l2046 75A8                                  l2038 7558  
                                l1416 7172                                  l1600 7C4C  
                                l1440 714A                                  l2048 75BC  
                                l1418 7174                                  l1610 7C60  
                                l1602 7C50                                  l1442 7158  
                                l1700 7EB2                                  l1620 7C74  
                                l1612 7C64                                  l1604 7C54  
                                l1438 710C                                  l1710 7EDA  
                                l1702 7EB6                                  l1630 7CAE  
                                l1622 7C78                                  l1614 7C68  
                                l1606 7C58                                  l1550 7B4C  
                                l1720 7F34                                  l1712 7EE8  
                                l1704 7EC6                                  l1640 7D00  
                                l1632 7CCA                                  l1624 7C7C  
                                l1616 7C6C                                  l1608 7C5C  
                                l1560 7B8C                                  l1552 7B5A  
                                l1800 78B8                                  l1730 7F9E  
                                l1722 7F42                                  l1714 7EFE  
                                l1706 7EC8                                  l1650 7D4C  
                                l1642 7D0E                                  l1634 7CDA  
                                l1618 7C70                                  l1626 7C80  
                                l1570 7BBE                                  l1562 7B8E  
                                l1554 7B5C                                  l1810 78F6  
                                l1802 78C8                                  l1740 7FD8  
                                l1732 7FBE                                  l1724 7F7C  
                                l1660 7D8C                                  l1708 7ED6  
                                l1644 7D10                                  l1636 7CF0  
                                l1628 7C84                                  l1580 7BE6  
                                l1572 7BC0                                  l1556 7B6C  
                                l1564 7B96                                  l1548 7B40  
                                l1820 793E                                  l1812 7906  
                                l1804 78C8                                  l1900 73C0  
                                l1742 7FDE                                  l1734 7FC2  
                                l1718 7F28                                  l1726 7F7E  
                                l1670 7DB6                                  l1662 7D98  
                                l1654 7D60                                  l1646 7D1A  
                                l1638 7CFC                                  l1590 7C20  
                                l1582 7BF6                                  l1574 7BC6  
                                l1566 7BA6                                  l1558 7B7C  
                                l1830 798C                                  l1822 7952  
                                l1814 7916                                  l1750 77A6  
                                l1910 73EA                                  l1902 73C4  
                                l1744 7FEC                                  l1736 7FD0  
                                l1728 7F8E                                  l1680 7E28  
                                l1664 7D9C                                  l1656 7D70  
                                l1648 7D3C                                  l1672 7DBC  
                                l1592 7C32                                  l1584 7C06  
                                l1576 7BD4                                  l1568 7BAC  
                                l1840 79D4                                  l1832 799C  
                                l1824 7960                                  l1816 7926  
                                l1808 78DC                                  l1760 77E2  
                                l1752 77B2                                  l1920 7412  
                                l1912 73F4                                  l1904 73D2  
                                l1746 7FEE                                  l1738 7FD6  
                                l1690 7E82                                  l1674 7DE2  
                                l1682 7E38                                  l1666 7DAA  
                                l1658 7D7E                                  l1594 7C40  
                                l1586 7C08                                  l1578 7BD6  
                                l1850 7A14                                  l1842 79E2  
                                l1834 79AE                                  l1826 796C  
                                l1818 792E                                  l1770 7812  
                                l1762 77F2                                  l1754 77C0  
                                l1922 741E                                  l1914 73FE  
                                l1692 7E8C                                  l1684 7E5E  
                                l1676 7E16                                  l1668 7DAC  
                                l1596 7C44                                  l1588 7C10  
                                l1860 7A86                                  l1852 7A42  
                                l1836 79C4                                  l1844 79F4  
                                l1828 798A                                  l1780 7848  
                                l1772 7818                                  l1764 77F4  
                                l1756 77C2                                  l1924 742E  
                                l1940 766E                                  l1932 75F4  
                                l1694 7E9A                                  l1686 7E6E  
                                l1678 7E18                                  l1598 7C48  
                                l1870 7AFE                                  l1862 7AB0  
                                l1846 7A02                                  l1838 79CA  
                                l1790 7888                                  l1782 7858  
                                l1774 7826                                  l1758 77D2  
                                l1766 77FC                                  l1926 743E  
                                l1950 76C8                                  l1934 7604  
                                l1696 7E9C                                  l1880 7B34  
                                l1872 7B1A                                  l1856 7A6C  
                                l1864 7AB4                                  l1848 7A06  
                                l1792 7898                                  l1784 785A  
                                l1776 7828                                  l1768 780C  
                                l1928 744E                                  l1960 772C  
                                l1952 76CA                                  l1944 7682  
                                l1936 7612                                  l1698 7EAA  
                                l1874 7B1E                                  l1866 7ACE  
                                l1858 7A78                                  l1794 78A0  
                                l1778 7838                                  l1786 7862  
                                l1890 7370                                  l1970 7784  
                                l1962 774A                                  l1954 76D6  
                                l1946 768A                                  l1938 7658  
                                l1876 7B2C                                  l1868 7AE4  
                                l1796 78A4                                  l1788 7872  
                                l1972 7792                                  l1964 774C  
                                l1956 7712                                  l1948 7696  
                                l1980 727C                                  l1990 7252  
                                l1878 7B32                                  l1894 7384  
                                l1974 7794                                  l1966 7750  
                                l1958 771E                                  l1982 7350  
                                l1992 7260                                  l1896 73AE  
                                l1888 735A                                  l1968 7774  
                                l1984 7354                                  l1994 726E  
                                l1986 7232                                  l1898 73B0  
                                l1978 7278                                  l1988 7244  
                                l1998 7460                                  u1200 7C40  
                                u1120 7B5A                                  u2000 7586  
                                u1201 7C3C                                  u1121 7B56  
                                u2001 7582                                  u1210 7CAE  
                                u1130 7B6C                                  u2010 75A8  
                                u1211 7CAA                                  u1131 7B68  
                                u2011 75A4                                  u1300 7D8C  
                                u1220 7CC6                                  u1140 7B7C  
                                u2020 75BC                                  u1301 7D88  
                                u1221 7CC0                                  u1141 7B78  
                                u2021 75B8                                  u1310 7DAA  
                                u1230 7CC8                                  u1150 7BBE  
                                u2030 75DE                                  u1311 7DA6  
                                u1151 7BBA                                  u2031 75DA  
                                u1400 7EE8                                  u1320 7DE2  
                                u1240 7CF0                                  u1160 7BD4  
                                u1401 7EE4                                  u1321 7DDE  
                                u1241 7CEC                                  u1161 7BD0  
                                u1410 7EFE                                  u1330 7E28  
                                u1250 7D0E                                  u1170 7BE6  
                                u1411 7EFA                                  u1331 7E24  
                                u1251 7D0A                                  u1171 7BE2  
                                u1500 7FEC                                  u1420 7F14  
                                u1340 7E5E                                  u1260 7D2E  
                                u1180 7BF6                                  u1501 7FE8  
                                u1421 7F10                                  u1341 7E5A  
                                u1261 7D2A                                  u1181 7BF2  
                                u1430 7F28                                  u1350 7E6E  
                                u1270 7D3C                                  u1190 7C32  
                                u1510 77C0                                  _LATB 000F8A  
                                u1431 7F24                                  u1351 7E6A  
                                u1271 7D38                                  u1191 7C2E  
                                u1511 77BC                                  u1440 7F42  
                                u1360 7E9A                                  u1280 7D4C  
                                u1600 7960                                  u1520 77D2  
                                u1441 7F3E                                  u1361 7E96  
                                u1281 7D48                                  u1601 795C  
                                u1521 77CE                                  u1450 7F7C  
                                u1370 7EAA                                  u1290 7D7E  
                                u1610 798A                                  u1530 77E2  
                                u1451 7F78                                  u1371 7EA6  
                                u1291 7D7A                                  u1611 7986  
                                u1531 77DE                                  u1460 7F8E  
                                u1380 7EC6                                  u1700 7A86  
                                u1620 79AE                                  u1540 7826  
                                u1461 7F8A                                  u1381 7EC2  
                                u1701 7A82                                  u1621 79AA  
                                u1541 7822                                  u1470 7F9E  
                                u1390 7ED6                                  u1710 7ACE  
                                u1630 79C4                                  u1550 7838  
                                u1471 7F9A                                  u1391 7ED2  
                                u1711 7ACA                                  u1631 79C0  
                                u1551 7834                                  u1480 7FBE  
                                u1720 7AFE                                  u1640 79E2  
                                u1560 7848                                  u1800 743E  
                                u1481 7FBA                                  u1721 7AFA  
                                u1641 79DE                                  u1561 7844  
                                u1801 743A                                  u1490 7FD0  
                                u1730 7B2C                                  u1650 7A02  
                                u1570 7888                                  u1810 7604  
                                u1491 7FCC                                  u1731 7B28  
                                u1651 79FE                                  u1571 7884  
                                u1811 7600                                  u1660 7A14  
                                u1580 78C8                                  u1740 7370  
                                u1900 7792                                  u1820 7612  
                                u1661 7A10                                  u1581 78C4  
                                u1741 736C                                  u1901 778E  
                                u1821 760E                                  u1670 7A42  
                                u1590 793E                                  u1750 73A4  
                                u1830 766E                                  u1910 74A2  
                                u1671 7A3E                                  u1591 793A  
                                u1831 766A                                  u1911 749E  
                                u1680 7A58                                  u1760 73D2  
                                u1840 76C4                                  u1920 74B4  
                                u1681 7A54                                  u1761 73CE  
                                u1841 76C0                                  u1921 74B0  
                                u1690 7A6C                                  u1770 73E6  
                                u1850 770E                                  u1930 74C6  
                                u1691 7A68                                  u1771 73E2  
                                u1755 739A                                  u1851 770A  
                                u1931 74C2                                  u1780 740E  
                                u1860 772C                                  u1940 74D8  
                                u1781 740A                                  u1861 7728  
                                u1941 74D4                                  u1790 742E  
                                u1870 773C                                  u1950 74EE  
                                u1791 742A                                  u1871 7738  
                                u1951 74EA                                  u1880 774A  
                                u1960 7506                                  u1881 7746  
                                u1961 7502                                  u1890 7784  
                                u1970 751E                                  u1891 7780  
                                u1971 751A                                  u1980 752C  
                                u1981 7528                                  u1990 754A  
                                u1991 7546                                  _RCEN 007E2B  
                                _RCIF 007CF5                                  _RSEN 007E29  
                                _TXIF 007CF4                                  _Date 004E  
                                _Year 004A                                  _main 7460  
                                _hour 0052                      __end_of_I2C_Nack 7148  
                    __end_of_I2C_Init 7178                      __end_of_I2C_Read 7230  
                    __end_of_I2C_Stop 7120                                  start 0000  
                     ___fldiv@new_exp 0020                          ___param_bank 000000  
                       ___fltol@sign1 0040                       __end_of___fladd 8000  
                               ?_main 0001                                 _ACKEN 007E2C  
                               _ACKDT 007E2D                       __end_of___fldiv 7B40  
                     __end_of___fltol 7460                                 _RCREG 000FAE  
                               _RCSTA 000FAB                                 _SPBRG 000FAF  
                               _TRISB 000F93                                 _SSPIE 007CEB  
                               _SSPIF 007CF3                                 _TXREG 000FAD  
                               _TXSTA 000FAC                                 _Month 004C  
                   __end_of_I2C_Ready 70E8                     __end_of_I2C_Start 71F6  
                   __end_of_I2C_Write 719A                                 status 000FD8  
                         ?_USART_Init 0042                       __initialization 70FA  
                        __end_of_main 75F2                             ??_I2C_Ack 0001  
                              ??_main 0046                       ??_RTC_Read_Hour 0005  
                       __activetblptr 000000                                _ADCON1 000FC1  
                              _OSCCON 000FD3                                _SSPADD 000FC8  
                              _TRISB0 007C98                                _TRISB1 007C99  
                              _TRISC6 007CA6                                _TRISC7 007CA7  
                              _SSPBUF 000FC9                      __end_of___xxtofl 77A6  
                           ??___fladd 0030                             ??___fldiv 0017  
                           ??___fltol 003C                                clear_0 7100  
                              isa$std 000001                    _I2C_Repeated_Start 719A  
                           ?_I2C_Nack 0001                             ?_I2C_Init 0001  
                           ?_I2C_Read 0001                             ?_I2C_Stop 0001  
          __end_of_USART_TransmitChar 715E                   ?_I2C_Repeated_Start 0001  
                        ___xxtofl@arg 000B                          ___xxtofl@exp 000A  
                        ___xxtofl@val 0001                            __accesstop 0060  
             __end_of__initialization 7106                         ___rparam_used 000001  
                          ___fltol@f1 0038                  ??_I2C_Repeated_Start 0002  
                      __pcstackCOMRAM 0001                            ??_I2C_Nack 0001  
                          ??_I2C_Init 0001                            ??_I2C_Read 0001  
                          ??_I2C_Stop 0001                          I2C_Read@flag 0001  
                      I2C_Read@buffer 0002                               _I2C_Ack 7120  
                             _ACKSTAT 007E2E                             ?___xxtofl 0001  
                             _SSPCON1 000FC6                               _SSPCON2 000FC5  
                             _SSPSTAT 000FC7                             _I2C_Ready 70D6  
                           _I2C_Start 71C8                             _I2C_Write 7178  
                        ??_USART_Init 0046                               __Hparam 0000  
                             __Lparam 0000                               ___fladd 7B40  
                             ___fldiv 77A6                               ___fltol 735A  
                             __pcinit 70FA                               __ramtop 0800  
                             __ptext0 7460                               __ptext1 7148  
                             __ptext2 70E8                               __ptext3 7278  
                             __ptext4 75F2                               __ptext5 735A  
                             __ptext6 77A6                               __ptext7 7B40  
                             __ptext8 7230                               __ptext9 71C8  
                          ??___xxtofl 0005                    __end_of_USART_Init 735A  
                end_of_initialization 7106                            ?_I2C_Ready 0001  
                          ?_I2C_Start 0001                            ?_I2C_Write 0001  
                             postinc0 000FEE                             _PORTAbits 000F80  
                         ___fladd@grs 0037                 __end_of_RTC_Read_Hour 7278  
                       ___xxtofl@sign 0009                             _TRISAbits 000F92  
                         ___fldiv@grs 0022                           ___fldiv@rem 001B  
                 USART_Init@baud_rate 0042                 USART_TransmitChar@out 0001  
                          main@estado 0048                    _USART_TransmitChar 7148  
                 ?_USART_TransmitChar 0001                   start_initialization 70FA  
                ??_USART_TransmitChar 0001  I2C_Repeated_Start@slave_read_address 0002  
                         ??_I2C_Ready 0001                           ??_I2C_Start 0002  
                         ??_I2C_Write 0001                     _USART_ReceiveChar 70E8  
                  ?_USART_ReceiveChar 0001                              ?_I2C_Ack 0001  
                 ??_USART_ReceiveChar 0001                             ___fladd@a 002C  
                           ___fladd@b 0028                             ___fldiv@a 0013  
                           ___fldiv@b 000F                           __pbssCOMRAM 004A  
           __end_of_USART_ReceiveChar 70FA                              ?___fladd 0028  
                            ?___fldiv 000F                              ?___fltol 0038  
                            _I2C_Nack 7134                              _I2C_Init 715E  
                            _I2C_Read 71F6                              _I2C_Stop 710C  
                            _LATBbits 000F8A          I2C_Start@slave_write_address 0002  
                            __Hrparam 0000                              __Lrparam 0000  
                       I2C_Write@data 0001                              ___xxtofl 75F2  
                            __ptext10 719A                              __ptext11 7178  
                            __ptext12 71F6                              __ptext13 70D6  
                            __ptext14 7134                              __ptext15 7120  
                            __ptext16 710C                              __ptext17 715E  
     RTC_Read_Hour@read_clock_address 0006                              isa$xinst 000000  
                            main@hour 0046            __end_of_I2C_Repeated_Start 71C8  
                       _RTC_Read_Hour 7230                           _SSPCON2bits 000FC5  
                       ___fladd@signs 0034                          ___fladd@aexp 0035  
                        ___fladd@bexp 0036                            _USART_Init 7278  
