

Microchip MPLAB XC8 Assembler V2.36 build 20220127204148 
                                                                                               Thu Mar 10 17:49:20 2022

Microchip MPLAB XC8 C Compiler v2.36 (Free license) build 20220127204148 Og1 
     1                           	processor	18F4550
     2                           	fnconf	rparam,??,?,0
     3                           	pagewidth 120
     4                           	opt	flic
     5                           	psect	cinit,global,reloc=2,class=CODE,delta=1
     6                           	psect	cstackCOMRAM,global,class=COMRAM,space=1,delta=1,lowdata,noexec
     7                           	psect	text0,global,reloc=2,class=CODE,delta=1
     8                           	psect	text1,global,reloc=2,class=CODE,delta=1
     9                           	psect	text2,global,reloc=2,class=CODE,delta=1
    10                           	psect	text3,global,reloc=2,class=CODE,delta=1,group=1
    11                           	psect	text4,global,reloc=2,class=CODE,delta=1,group=1
    12                           	psect	text5,global,reloc=2,class=CODE,delta=1,group=1
    13                           	psect	text6,global,reloc=2,class=CODE,delta=1,group=1
    14                           	psect	text7,global,reloc=2,class=CODE,delta=1
    15                           	psect	text8,global,reloc=2,class=CODE,delta=1
    16                           	psect	text9,global,reloc=2,class=CODE,delta=1
    17                           	psect	text10,global,reloc=2,class=CODE,delta=1
    18                           	psect	text11,global,reloc=2,class=CODE,delta=1
    19                           	psect	text12,global,reloc=2,class=CODE,delta=1
    20                           	psect	text13,global,reloc=2,class=CODE,delta=1
    21                           	psect	text14,global,reloc=2,class=CODE,delta=1
    22                           	psect	text15,global,reloc=2,class=CODE,delta=1
    23                           	psect	intsave_regs,global,class=BIGRAM,space=1,delta=1,noexec
    24                           	psect	rparam,global,class=COMRAM,space=1,delta=1,noexec
    25                           	psect	idloc,global,abs,ovrld,class=IDLOC,space=5,delta=1,noexec
    26                           	psect	config,global,abs,ovrld,class=CONFIG,space=4,delta=1,noexec
    27  0000                     
    28                           ; Version 2.40
    29                           ; Generated 17/11/2021 GMT
    30                           ; 
    31                           ; Copyright © 2021, Microchip Technology Inc. and its subsidiaries ("Microchip")
    32                           ; All rights reserved.
    33                           ; 
    34                           ; This software is developed by Microchip Technology Inc. and its subsidiaries ("Microch
      +                          ip").
    35                           ; 
    36                           ; Redistribution and use in source and binary forms, with or without modification, are
    37                           ; permitted provided that the following conditions are met:
    38                           ; 
    39                           ;     1. Redistributions of source code must retain the above copyright notice, this lis
      +                          t of
    40                           ;        conditions and the following disclaimer.
    41                           ; 
    42                           ;     2. Redistributions in binary form must reproduce the above copyright notice, this 
      +                          list
    43                           ;        of conditions and the following disclaimer in the documentation and/or other
    44                           ;        materials provided with the distribution. Publication is not required when
    45                           ;        this file is used in an embedded application.
    46                           ; 
    47                           ;     3. Microchip's name may not be used to endorse or promote products derived from th
      +                          is
    48                           ;        software without specific prior written permission.
    49                           ; 
    50                           ; THIS SOFTWARE IS PROVIDED BY MICROCHIP "AS IS" AND ANY EXPRESS OR IMPLIED WARRANTIES,
    51                           ; INCLUDING, BUT NOT LIMITED TO, THE IMPLIED WARRANTIES OF MERCHANTABILITY AND FITNESS F
      +                          OR
    52                           ; PURPOSE ARE DISCLAIMED.  IN NO EVENT SHALL MICROCHIP BE LIABLE FOR ANY DIRECT, INDIREC
      +                          T,
    53                           ; INCIDENTAL, SPECIAL, EXEMPLARY, OR CONSEQUENTIAL DAMAGES (INCLUDING BUT NOT LIMITED TO
    54                           ; PROCUREMENT OF SUBSTITUTE GOODS OR SERVICES; LOSS OF USE, DATA OR PROFITS; OR BUSINESS
    55                           ; INTERRUPTION) HOWSOEVER CAUSED AND ON ANY THEORY OF LIABILITY, WHETHER IN CONTRACT, ST
      +                          RICT
    56                           ; LIABILITY, OR TORT (INCLUDING NEGLIGENCE OR OTHERWISE) ARISING IN ANY WAY OUT OF THE U
      +                          SE OF
    57                           ; THIS SOFTWARE, EVEN IF ADVISED OF THE POSSIBILITY OF SUCH DAMAGE.
    58                           ; 
    59                           ; 
    60                           ; Code-generator required, PIC18F4550 Definitions
    61                           ; 
    62                           ; SFR Addresses
    63  0000                     _RCREG	set	4014
    64  0000                     _TXREG	set	4013
    65  0000                     _SSPADD	set	4040
    66  0000                     _SSPCON1	set	4038
    67  0000                     _SSPBUF	set	4041
    68  0000                     _SSPSTATbits	set	4039
    69  0000                     _SSPCON2bits	set	4037
    70  0000                     _SSPCON2	set	4037
    71  0000                     _SSPSTAT	set	4039
    72  0000                     _LATBbits	set	3978
    73  0000                     _RCIF	set	31989
    74  0000                     _TXIF	set	31988
    75  0000                     _TRISC7	set	31911
    76  0000                     _ACKEN	set	32300
    77  0000                     _ACKDT	set	32301
    78  0000                     _PEN	set	32298
    79  0000                     _RSEN	set	32297
    80  0000                     _ACKSTAT	set	32302
    81  0000                     _PORTAbits	set	3968
    82  0000                     _LATB	set	3978
    83  0000                     _TRISAbits	set	3986
    84  0000                     _ADCON1	set	4033
    85  0000                     _OSCCON	set	4051
    86  0000                     _RCEN	set	32299
    87  0000                     _TRISB	set	3987
    88  0000                     _TRISC6	set	31910
    89  0000                     _SSPIE	set	31979
    90  0000                     _RCSTA	set	4011
    91  0000                     _TXSTA	set	4012
    92  0000                     _SPBRG	set	4015
    93  0000                     _SSPIF	set	31987
    94                           
    95                           ; #config settings
    96                           
    97                           	psect	cinit
    98  007168                     __pcinit:
    99                           	callstack 0
   100  007168                     start_initialization:
   101                           	callstack 0
   102  007168                     __initialization:
   103                           	callstack 0
   104  007168                     end_of_initialization:
   105                           	callstack 0
   106  007168                     __end_of__initialization:
   107                           	callstack 0
   108  007168  0100               	movlb	0
   109  00716A  EF54  F03A         	goto	_main	;jump to C main() function
   110                           
   111                           	psect	cstackCOMRAM
   112  000001                     __pcstackCOMRAM:
   113                           	callstack 0
   114  000001                     ?___xxtofl:
   115                           	callstack 0
   116  000001                     I2C_Read@flag:
   117                           	callstack 0
   118  000001                     I2C_Write@data:
   119                           	callstack 0
   120  000001                     ___xxtofl@val:
   121                           	callstack 0
   122                           
   123                           ; 4 bytes @ 0x0
   124  000001                     	ds	1
   125  000002                     I2C_Read@buffer:
   126                           	callstack 0
   127  000002                     I2C_Start@slave_write_address:
   128                           	callstack 0
   129  000002                     I2C_Repeated_Start@slave_read_address:
   130                           	callstack 0
   131                           
   132                           ; 1 bytes @ 0x1
   133  000002                     	ds	1
   134  000003                     ?_RTC_Read_Hour:
   135                           	callstack 0
   136                           
   137                           ; 2 bytes @ 0x2
   138  000003                     	ds	2
   139  000005                     ??_RTC_Read_Hour:
   140  000005                     ??___xxtofl:
   141                           
   142                           ; 1 bytes @ 0x4
   143  000005                     	ds	1
   144  000006                     RTC_Read_Hour@hour:
   145                           	callstack 0
   146                           
   147                           ; 2 bytes @ 0x5
   148  000006                     	ds	2
   149  000008                     RTC_Read_Hour@read_clock_address:
   150                           	callstack 0
   151                           
   152                           ; 1 bytes @ 0x7
   153  000008                     	ds	1
   154  000009                     ___xxtofl@sign:
   155                           	callstack 0
   156                           
   157                           ; 1 bytes @ 0x8
   158  000009                     	ds	1
   159  00000A                     ___xxtofl@exp:
   160                           	callstack 0
   161                           
   162                           ; 1 bytes @ 0x9
   163  00000A                     	ds	1
   164  00000B                     ___xxtofl@arg:
   165                           	callstack 0
   166                           
   167                           ; 4 bytes @ 0xA
   168  00000B                     	ds	4
   169  00000F                     ?___fldiv:
   170                           	callstack 0
   171  00000F                     ___fldiv@b:
   172                           	callstack 0
   173                           
   174                           ; 4 bytes @ 0xE
   175  00000F                     	ds	4
   176  000013                     ___fldiv@a:
   177                           	callstack 0
   178                           
   179                           ; 4 bytes @ 0x12
   180  000013                     	ds	4
   181  000017                     ??___fldiv:
   182                           
   183                           ; 1 bytes @ 0x16
   184  000017                     	ds	4
   185  00001B                     ___fldiv@rem:
   186                           	callstack 0
   187                           
   188                           ; 4 bytes @ 0x1A
   189  00001B                     	ds	4
   190  00001F                     ___fldiv@sign:
   191                           	callstack 0
   192                           
   193                           ; 1 bytes @ 0x1E
   194  00001F                     	ds	1
   195  000020                     ___fldiv@new_exp:
   196                           	callstack 0
   197                           
   198                           ; 2 bytes @ 0x1F
   199  000020                     	ds	2
   200  000022                     ___fldiv@grs:
   201                           	callstack 0
   202                           
   203                           ; 4 bytes @ 0x21
   204  000022                     	ds	4
   205  000026                     ___fldiv@bexp:
   206                           	callstack 0
   207                           
   208                           ; 1 bytes @ 0x25
   209  000026                     	ds	1
   210  000027                     ___fldiv@aexp:
   211                           	callstack 0
   212                           
   213                           ; 1 bytes @ 0x26
   214  000027                     	ds	1
   215  000028                     ?___fladd:
   216                           	callstack 0
   217  000028                     ___fladd@b:
   218                           	callstack 0
   219                           
   220                           ; 4 bytes @ 0x27
   221  000028                     	ds	4
   222  00002C                     ___fladd@a:
   223                           	callstack 0
   224                           
   225                           ; 4 bytes @ 0x2B
   226  00002C                     	ds	4
   227  000030                     ??___fladd:
   228                           
   229                           ; 1 bytes @ 0x2F
   230  000030                     	ds	4
   231  000034                     ___fladd@signs:
   232                           	callstack 0
   233                           
   234                           ; 1 bytes @ 0x33
   235  000034                     	ds	1
   236  000035                     ___fladd@aexp:
   237                           	callstack 0
   238                           
   239                           ; 1 bytes @ 0x34
   240  000035                     	ds	1
   241  000036                     ___fladd@bexp:
   242                           	callstack 0
   243                           
   244                           ; 1 bytes @ 0x35
   245  000036                     	ds	1
   246  000037                     ___fladd@grs:
   247                           	callstack 0
   248                           
   249                           ; 1 bytes @ 0x36
   250  000037                     	ds	1
   251  000038                     ?___fltol:
   252                           	callstack 0
   253  000038                     ___fltol@f1:
   254                           	callstack 0
   255                           
   256                           ; 4 bytes @ 0x37
   257  000038                     	ds	4
   258  00003C                     ??___fltol:
   259                           
   260                           ; 1 bytes @ 0x3B
   261  00003C                     	ds	4
   262  000040                     ___fltol@sign1:
   263                           	callstack 0
   264                           
   265                           ; 1 bytes @ 0x3F
   266  000040                     	ds	1
   267  000041                     ___fltol@exp1:
   268                           	callstack 0
   269                           
   270                           ; 1 bytes @ 0x40
   271  000041                     	ds	1
   272  000042                     USART_Init@baud_rate:
   273                           	callstack 0
   274                           
   275                           ; 4 bytes @ 0x41
   276  000042                     	ds	4
   277  000046                     ??_main:
   278                           
   279                           ; 1 bytes @ 0x45
   280  000046                     	ds	2
   281  000048                     main@data_in:
   282                           	callstack 0
   283                           
   284                           ; 1 bytes @ 0x47
   285  000048                     	ds	1
   286                           
   287 ;;
   288 ;;Main: autosize = 0, tempsize = 2, incstack = 0, save=0
   289 ;;
   290 ;; *************** function _main *****************
   291 ;; Defined at:
   292 ;;		line 18 in file "PIC.c"
   293 ;; Parameters:    Size  Location     Type
   294 ;;		None
   295 ;; Auto vars:     Size  Location     Type
   296 ;;  data_in         1   71[COMRAM] unsigned char 
   297 ;; Return value:  Size  Location     Type
   298 ;;                  1    wreg      void 
   299 ;; Registers used:
   300 ;;		wreg, status,2, status,0, cstack
   301 ;; Tracked objects:
   302 ;;		On entry : 0/0
   303 ;;		On exit  : 0/0
   304 ;;		Unchanged: 0/0
   305 ;; Data sizes:     COMRAM   BANK0   BANK1   BANK2   BANK3   BANK4   BANK5   BANK6   BANK7
   306 ;;      Params:         0       0       0       0       0       0       0       0       0
   307 ;;      Locals:         1       0       0       0       0       0       0       0       0
   308 ;;      Temps:          2       0       0       0       0       0       0       0       0
   309 ;;      Totals:         3       0       0       0       0       0       0       0       0
   310 ;;Total ram usage:        3 bytes
   311 ;; Hardware stack levels required when called: 4
   312 ;; This function calls:
   313 ;;		_I2C_Init
   314 ;;		_RTC_Read_Hour
   315 ;;		_USART_Init
   316 ;;		_USART_ReceiveChar
   317 ;; This function is called by:
   318 ;;		Startup code after reset
   319 ;; This function uses a non-reentrant model
   320 ;;
   321                           
   322                           	psect	text0
   323  0074A8                     __ptext0:
   324                           	callstack 0
   325  0074A8                     _main:
   326                           	callstack 27
   327  0074A8                     
   328                           ;PIC.c: 19:     char data_in;;PIC.c: 20:     OSCCON = 0x72;
   329  0074A8  0E72               	movlw	114
   330  0074AA  6ED3               	movwf	211,c	;volatile
   331                           
   332                           ;PIC.c: 21:     ADCON1 = 0x0F;
   333  0074AC  0E0F               	movlw	15
   334  0074AE  6EC1               	movwf	193,c	;volatile
   335  0074B0                     
   336                           ;PIC.c: 22:     USART_Init(9600);
   337  0074B0  0E80               	movlw	128
   338  0074B2  6E42               	movwf	USART_Init@baud_rate^0,c
   339  0074B4  0E25               	movlw	37
   340  0074B6  6E43               	movwf	(USART_Init@baud_rate+1)^0,c
   341  0074B8  0E00               	movlw	0
   342  0074BA  6E44               	movwf	(USART_Init@baud_rate+2)^0,c
   343  0074BC  0E00               	movlw	0
   344  0074BE  6E45               	movwf	(USART_Init@baud_rate+3)^0,c
   345  0074C0  EC60  F039         	call	_USART_Init	;wreg free
   346  0074C4                     
   347                           ;PIC.c: 23:     I2C_Init();
   348  0074C4  ECDD  F038         	call	_I2C_Init	;wreg free
   349  0074C8                     
   350                           ;PIC.c: 24:     TRISAbits.TRISA0 = 1;
   351  0074C8  8092               	bsf	146,0,c	;volatile
   352  0074CA                     
   353                           ;PIC.c: 25:     TRISB = 0;
   354  0074CA  0E00               	movlw	0
   355  0074CC  6E93               	movwf	147,c	;volatile
   356  0074CE                     
   357                           ;PIC.c: 26:     LATB = 1;
   358  0074CE  0E01               	movlw	1
   359  0074D0  6E8A               	movwf	138,c	;volatile
   360  0074D2                     l1974:
   361                           
   362                           ;PIC.c: 30:         data_in = USART_ReceiveChar();
   363  0074D2  ECC0  F038         	call	_USART_ReceiveChar	;wreg free
   364  0074D6  6E48               	movwf	main@data_in^0,c
   365  0074D8                     
   366                           ;PIC.c: 31:         if(data_in == '1'){
   367  0074D8  0E31               	movlw	49
   368  0074DA  1848               	xorwf	main@data_in^0,w,c
   369  0074DC  A4D8               	btfss	status,2,c
   370  0074DE  EF73  F03A         	goto	u1881
   371  0074E2  EF75  F03A         	goto	u1880
   372  0074E6                     u1881:
   373  0074E6  EF76  F03A         	goto	l1980
   374  0074EA                     u1880:
   375  0074EA                     
   376                           ;PIC.c: 32:             LATBbits.LATB2 = 1;
   377  0074EA  848A               	bsf	138,2,c	;volatile
   378  0074EC                     l1980:
   379                           
   380                           ;PIC.c: 34:         if(data_in == '2'){
   381  0074EC  0E32               	movlw	50
   382  0074EE  1848               	xorwf	main@data_in^0,w,c
   383  0074F0  A4D8               	btfss	status,2,c
   384  0074F2  EF7D  F03A         	goto	u1891
   385  0074F6  EF7F  F03A         	goto	u1890
   386  0074FA                     u1891:
   387  0074FA  EF99  F03A         	goto	l1988
   388  0074FE                     u1890:
   389  0074FE                     
   390                           ;PIC.c: 35:             LATBbits.LATB2 = 0;
   391  0074FE  948A               	bcf	138,2,c	;volatile
   392  007500  EF99  F03A         	goto	l1988
   393  007504                     l33:
   394                           
   395                           ;PIC.c: 38:             if(PORTAbits.RA0 == 1){
   396  007504  A080               	btfss	128,0,c	;volatile
   397  007506  EF87  F03A         	goto	u1901
   398  00750A  EF89  F03A         	goto	u1900
   399  00750E                     u1901:
   400  00750E  EF8C  F03A         	goto	l34
   401  007512                     u1900:
   402  007512                     
   403                           ;PIC.c: 39:                 LATBbits.LATB2 = 1;
   404  007512  848A               	bsf	138,2,c	;volatile
   405                           
   406                           ;PIC.c: 40:             } else {
   407  007514  EF8D  F03A         	goto	l1986
   408  007518                     l34:
   409                           
   410                           ;PIC.c: 41:                 LATBbits.LATB2 = 0;
   411  007518  948A               	bcf	138,2,c	;volatile
   412  00751A                     l1986:
   413                           
   414                           ;PIC.c: 43:             _delay((unsigned long)((20000)*(8000000/4000.0)));
   415  00751A  0ECB               	movlw	203
   416  00751C  6E47               	movwf	(??_main+1)^0,c
   417  00751E  0EEC               	movlw	236
   418  007520  6E46               	movwf	??_main^0,c
   419  007522  0E84               	movlw	132
   420  007524                     u1987:
   421  007524  2EE8               	decfsz	wreg,f,c
   422  007526  D7FE               	bra	u1987
   423  007528  2E46               	decfsz	??_main^0,f,c
   424  00752A  D7FC               	bra	u1987
   425  00752C  2E47               	decfsz	(??_main+1)^0,f,c
   426  00752E  D7FA               	bra	u1987
   427  007530  D000               	nop2	
   428  007532                     l1988:
   429                           
   430                           ;PIC.c: 37:         while(data_in == '3'){
   431  007532  0E33               	movlw	51
   432  007534  1848               	xorwf	main@data_in^0,w,c
   433  007536  B4D8               	btfsc	status,2,c
   434  007538  EFA0  F03A         	goto	u1911
   435  00753C  EFA2  F03A         	goto	u1910
   436  007540                     u1911:
   437  007540  EF82  F03A         	goto	l33
   438  007544                     u1910:
   439  007544                     
   440                           ;PIC.c: 45:         if(data_in == '4'){
   441  007544  0E34               	movlw	52
   442  007546  1848               	xorwf	main@data_in^0,w,c
   443  007548  A4D8               	btfss	status,2,c
   444  00754A  EFA9  F03A         	goto	u1921
   445  00754E  EFAB  F03A         	goto	u1920
   446  007552                     u1921:
   447  007552  EF69  F03A         	goto	l1974
   448  007556                     u1920:
   449  007556                     l1992:
   450                           
   451                           ;PIC.c: 47:                 if((RTC_Read_Hour(0) >= 17 && RTC_Read_Hour(0) <= 23)||(RTC_
      +                          Read_Hour(0) >= 0 && RTC_Read_Hour(0) <= 6)){
   452  007556  0E00               	movlw	0
   453  007558  EC27  F039         	call	_RTC_Read_Hour
   454  00755C  BE04               	btfsc	(?_RTC_Read_Hour+1)^0,7,c
   455  00755E  EFBA  F03A         	goto	u1931
   456  007562  5004               	movf	(?_RTC_Read_Hour+1)^0,w,c
   457  007564  E109               	bnz	u1930
   458  007566  0E11               	movlw	17
   459  007568  5C03               	subwf	?_RTC_Read_Hour^0,w,c
   460  00756A  A0D8               	btfss	status,0,c
   461  00756C  EFBA  F03A         	goto	u1931
   462  007570  EFBC  F03A         	goto	u1930
   463  007574                     u1931:
   464  007574  EFCD  F03A         	goto	l1996
   465  007578                     u1930:
   466  007578  0E00               	movlw	0
   467  00757A  EC27  F039         	call	_RTC_Read_Hour
   468  00757E  BE04               	btfsc	(?_RTC_Read_Hour+1)^0,7,c
   469  007580  EFCB  F03A         	goto	u1941
   470  007584  5004               	movf	(?_RTC_Read_Hour+1)^0,w,c
   471  007586  E109               	bnz	u1940
   472  007588  0E18               	movlw	24
   473  00758A  5C03               	subwf	?_RTC_Read_Hour^0,w,c
   474  00758C  A0D8               	btfss	status,0,c
   475  00758E  EFCB  F03A         	goto	u1941
   476  007592  EFCD  F03A         	goto	u1940
   477  007596                     u1941:
   478  007596  EFE8  F03A         	goto	l41
   479  00759A                     u1940:
   480  00759A                     l1996:
   481  00759A  0E00               	movlw	0
   482  00759C  EC27  F039         	call	_RTC_Read_Hour
   483  0075A0  BE04               	btfsc	(?_RTC_Read_Hour+1)^0,7,c
   484  0075A2  EFD5  F03A         	goto	u1951
   485  0075A6  EFD7  F03A         	goto	u1950
   486  0075AA                     u1951:
   487  0075AA  EFEB  F03A         	goto	l39
   488  0075AE                     u1950:
   489  0075AE  0E00               	movlw	0
   490  0075B0  EC27  F039         	call	_RTC_Read_Hour
   491  0075B4  BE04               	btfsc	(?_RTC_Read_Hour+1)^0,7,c
   492  0075B6  EFE8  F03A         	goto	u1960
   493  0075BA  5004               	movf	(?_RTC_Read_Hour+1)^0,w,c
   494  0075BC  E107               	bnz	u1961
   495  0075BE  0E07               	movlw	7
   496  0075C0  5C03               	subwf	?_RTC_Read_Hour^0,w,c
   497  0075C2  B0D8               	btfsc	status,0,c
   498  0075C4  EFE6  F03A         	goto	u1961
   499  0075C8  EFE8  F03A         	goto	u1960
   500  0075CC                     u1961:
   501  0075CC  EFEB  F03A         	goto	l39
   502  0075D0                     u1960:
   503  0075D0                     l41:
   504                           
   505                           ;PIC.c: 48:                     LATBbits.LATB2 = 1;
   506  0075D0  848A               	bsf	138,2,c	;volatile
   507                           
   508                           ;PIC.c: 49:                 }else {
   509  0075D2  EFEC  F03A         	goto	l2000
   510  0075D6                     l39:
   511                           
   512                           ;PIC.c: 50:                     LATBbits.LATB2 = 0;
   513  0075D6  948A               	bcf	138,2,c	;volatile
   514  0075D8                     l2000:
   515                           
   516                           ;PIC.c: 52:             } while (data_in == '4');
   517  0075D8  0E34               	movlw	52
   518  0075DA  1848               	xorwf	main@data_in^0,w,c
   519  0075DC  B4D8               	btfsc	status,2,c
   520  0075DE  EFF3  F03A         	goto	u1971
   521  0075E2  EFF5  F03A         	goto	u1970
   522  0075E6                     u1971:
   523  0075E6  EFAB  F03A         	goto	l1992
   524  0075EA                     u1970:
   525  0075EA  EF69  F03A         	goto	l1974
   526  0075EE  EF00  F000         	goto	start
   527  0075F2                     __end_of_main:
   528                           	callstack 0
   529                           
   530 ;; *************** function _USART_ReceiveChar *****************
   531 ;; Defined at:
   532 ;;		line 27 in file "USART_Source_File.c"
   533 ;; Parameters:    Size  Location     Type
   534 ;;		None
   535 ;; Auto vars:     Size  Location     Type
   536 ;;		None
   537 ;; Return value:  Size  Location     Type
   538 ;;                  1    wreg      unsigned char 
   539 ;; Registers used:
   540 ;;		wreg, status,2
   541 ;; Tracked objects:
   542 ;;		On entry : 0/0
   543 ;;		On exit  : 0/0
   544 ;;		Unchanged: 0/0
   545 ;; Data sizes:     COMRAM   BANK0   BANK1   BANK2   BANK3   BANK4   BANK5   BANK6   BANK7
   546 ;;      Params:         0       0       0       0       0       0       0       0       0
   547 ;;      Locals:         0       0       0       0       0       0       0       0       0
   548 ;;      Temps:          0       0       0       0       0       0       0       0       0
   549 ;;      Totals:         0       0       0       0       0       0       0       0       0
   550 ;;Total ram usage:        0 bytes
   551 ;; Hardware stack levels used: 1
   552 ;; This function calls:
   553 ;;		Nothing
   554 ;; This function is called by:
   555 ;;		_main
   556 ;; This function uses a non-reentrant model
   557 ;;
   558                           
   559                           	psect	text1
   560  007180                     __ptext1:
   561                           	callstack 0
   562  007180                     _USART_ReceiveChar:
   563                           	callstack 30
   564  007180                     l205:
   565  007180  AA9E               	btfss	3998,5,c	;volatile
   566  007182  EFC5  F038         	goto	u901
   567  007186  EFC7  F038         	goto	u900
   568  00718A                     u901:
   569  00718A  EFC0  F038         	goto	l205
   570  00718E                     u900:
   571  00718E                     
   572                           ;USART_Source_File.c: 31:     return(RCREG);
   573  00718E  50AE               	movf	174,w,c	;volatile
   574  007190  0012               	return		;funcret
   575  007192                     __end_of_USART_ReceiveChar:
   576                           	callstack 0
   577                           
   578 ;; *************** function _USART_Init *****************
   579 ;; Defined at:
   580 ;;		line 9 in file "USART_Source_File.c"
   581 ;; Parameters:    Size  Location     Type
   582 ;;  baud_rate       4   65[COMRAM] long 
   583 ;; Auto vars:     Size  Location     Type
   584 ;;  temp            4    0        float 
   585 ;; Return value:  Size  Location     Type
   586 ;;                  1    wreg      void 
   587 ;; Registers used:
   588 ;;		wreg, status,2, status,0, cstack
   589 ;; Tracked objects:
   590 ;;		On entry : 0/0
   591 ;;		On exit  : 0/0
   592 ;;		Unchanged: 0/0
   593 ;; Data sizes:     COMRAM   BANK0   BANK1   BANK2   BANK3   BANK4   BANK5   BANK6   BANK7
   594 ;;      Params:         4       0       0       0       0       0       0       0       0
   595 ;;      Locals:         0       0       0       0       0       0       0       0       0
   596 ;;      Temps:          0       0       0       0       0       0       0       0       0
   597 ;;      Totals:         4       0       0       0       0       0       0       0       0
   598 ;;Total ram usage:        4 bytes
   599 ;; Hardware stack levels used: 1
   600 ;; Hardware stack levels required when called: 1
   601 ;; This function calls:
   602 ;;		___fladd
   603 ;;		___fldiv
   604 ;;		___fltol
   605 ;;		___xxtofl
   606 ;; This function is called by:
   607 ;;		_main
   608 ;; This function uses a non-reentrant model
   609 ;;
   610                           
   611                           	psect	text2
   612  0072C0                     __ptext2:
   613                           	callstack 0
   614  0072C0                     _USART_Init:
   615                           	callstack 29
   616  0072C0                     
   617                           ;USART_Source_File.c: 9: void USART_Init(long baud_rate);USART_Source_File.c: 10: {;USAR
      +                          T_Source_File.c: 11:     float temp;;USART_Source_File.c: 12:     TRISC6=0;
   618  0072C0  9C94               	bcf	3988,6,c	;volatile
   619                           
   620                           ;USART_Source_File.c: 13:     TRISC7=1;
   621  0072C2  8E94               	bsf	3988,7,c	;volatile
   622  0072C4  C042  F001         	movff	USART_Init@baud_rate,___xxtofl@val
   623  0072C8  C043  F002         	movff	USART_Init@baud_rate+1,___xxtofl@val+1
   624  0072CC  C044  F003         	movff	USART_Init@baud_rate+2,___xxtofl@val+2
   625  0072D0  C045  F004         	movff	USART_Init@baud_rate+3,___xxtofl@val+3
   626  0072D4  0E01               	movlw	1
   627  0072D6  ECF9  F03A         	call	___xxtofl
   628  0072DA  C001  F013         	movff	?___xxtofl,___fldiv@a
   629  0072DE  C002  F014         	movff	?___xxtofl+1,___fldiv@a+1
   630  0072E2  C003  F015         	movff	?___xxtofl+2,___fldiv@a+2
   631  0072E6  C004  F016         	movff	?___xxtofl+3,___fldiv@a+3
   632  0072EA  0E00               	movlw	0
   633  0072EC  6E0F               	movwf	___fldiv@b^0,c
   634  0072EE  0E24               	movlw	36
   635  0072F0  6E10               	movwf	(___fldiv@b+1)^0,c
   636  0072F2  0EF4               	movlw	244
   637  0072F4  6E11               	movwf	(___fldiv@b+2)^0,c
   638  0072F6  0E47               	movlw	71
   639  0072F8  6E12               	movwf	(___fldiv@b+3)^0,c
   640  0072FA  ECD3  F03B         	call	___fldiv	;wreg free
   641  0072FE  C00F  F028         	movff	?___fldiv,___fladd@b
   642  007302  C010  F029         	movff	?___fldiv+1,___fladd@b+1
   643  007306  C011  F02A         	movff	?___fldiv+2,___fladd@b+2
   644  00730A  C012  F02B         	movff	?___fldiv+3,___fladd@b+3
   645  00730E  0E00               	movlw	0
   646  007310  6E2C               	movwf	___fladd@a^0,c
   647  007312  0E00               	movlw	0
   648  007314  6E2D               	movwf	(___fladd@a+1)^0,c
   649  007316  0E80               	movlw	128
   650  007318  6E2E               	movwf	(___fladd@a+2)^0,c
   651  00731A  0EBF               	movlw	191
   652  00731C  6E2F               	movwf	(___fladd@a+3)^0,c
   653  00731E  ECA0  F03D         	call	___fladd	;wreg free
   654                           
   655                           ;USART_Source_File.c: 15:     SPBRG = (((float)(8000000/64)/(float)baud_rate)-1);
   656  007322  0E00               	movlw	0
   657  007324  6E2C               	movwf	___fladd@a^0,c
   658  007326  0E00               	movlw	0
   659  007328  6E2D               	movwf	(___fladd@a+1)^0,c
   660  00732A  0E80               	movlw	128
   661  00732C  6E2E               	movwf	(___fladd@a+2)^0,c
   662  00732E  0EBF               	movlw	191
   663  007330  6E2F               	movwf	(___fladd@a+3)^0,c
   664  007332  C042  F001         	movff	USART_Init@baud_rate,___xxtofl@val
   665  007336  C043  F002         	movff	USART_Init@baud_rate+1,___xxtofl@val+1
   666  00733A  C044  F003         	movff	USART_Init@baud_rate+2,___xxtofl@val+2
   667  00733E  C045  F004         	movff	USART_Init@baud_rate+3,___xxtofl@val+3
   668  007342  0E01               	movlw	1
   669  007344  ECF9  F03A         	call	___xxtofl
   670  007348  C001  F013         	movff	?___xxtofl,___fldiv@a
   671  00734C  C002  F014         	movff	?___xxtofl+1,___fldiv@a+1
   672  007350  C003  F015         	movff	?___xxtofl+2,___fldiv@a+2
   673  007354  C004  F016         	movff	?___xxtofl+3,___fldiv@a+3
   674  007358  0E00               	movlw	0
   675  00735A  6E0F               	movwf	___fldiv@b^0,c
   676  00735C  0E24               	movlw	36
   677  00735E  6E10               	movwf	(___fldiv@b+1)^0,c
   678  007360  0EF4               	movlw	244
   679  007362  6E11               	movwf	(___fldiv@b+2)^0,c
   680  007364  0E47               	movlw	71
   681  007366  6E12               	movwf	(___fldiv@b+3)^0,c
   682  007368  ECD3  F03B         	call	___fldiv	;wreg free
   683  00736C  C00F  F028         	movff	?___fldiv,___fladd@b
   684  007370  C010  F029         	movff	?___fldiv+1,___fladd@b+1
   685  007374  C011  F02A         	movff	?___fldiv+2,___fladd@b+2
   686  007378  C012  F02B         	movff	?___fldiv+3,___fladd@b+3
   687  00737C  ECA0  F03D         	call	___fladd	;wreg free
   688  007380  C028  F038         	movff	?___fladd,___fltol@f1
   689  007384  C029  F039         	movff	?___fladd+1,___fltol@f1+1
   690  007388  C02A  F03A         	movff	?___fladd+2,___fltol@f1+2
   691  00738C  C02B  F03B         	movff	?___fladd+3,___fltol@f1+3
   692  007390  ECD1  F039         	call	___fltol	;wreg free
   693  007394  5038               	movf	?___fltol^0,w,c
   694  007396  6EAF               	movwf	175,c	;volatile
   695  007398                     
   696                           ;USART_Source_File.c: 16:     TXSTA=0x20;
   697  007398  0E20               	movlw	32
   698  00739A  6EAC               	movwf	172,c	;volatile
   699  00739C                     
   700                           ;USART_Source_File.c: 17:     RCSTA=0x90;
   701  00739C  0E90               	movlw	144
   702  00739E  6EAB               	movwf	171,c	;volatile
   703  0073A0  0012               	return		;funcret
   704  0073A2                     __end_of_USART_Init:
   705                           	callstack 0
   706                           
   707 ;; *************** function ___xxtofl *****************
   708 ;; Defined at:
   709 ;;		line 10 in file "D:\mplab\pic\sources\c99\common\xxtofl.c"
   710 ;; Parameters:    Size  Location     Type
   711 ;;  sign            1    wreg     unsigned char 
   712 ;;  val             4    0[COMRAM] long 
   713 ;; Auto vars:     Size  Location     Type
   714 ;;  sign            1    8[COMRAM] unsigned char 
   715 ;;  arg             4   10[COMRAM] unsigned long 
   716 ;;  exp             1    9[COMRAM] unsigned char 
   717 ;; Return value:  Size  Location     Type
   718 ;;                  4    0[COMRAM] unsigned char 
   719 ;; Registers used:
   720 ;;		wreg, status,2, status,0
   721 ;; Tracked objects:
   722 ;;		On entry : 0/0
   723 ;;		On exit  : 0/0
   724 ;;		Unchanged: 0/0
   725 ;; Data sizes:     COMRAM   BANK0   BANK1   BANK2   BANK3   BANK4   BANK5   BANK6   BANK7
   726 ;;      Params:         4       0       0       0       0       0       0       0       0
   727 ;;      Locals:         6       0       0       0       0       0       0       0       0
   728 ;;      Temps:          4       0       0       0       0       0       0       0       0
   729 ;;      Totals:        14       0       0       0       0       0       0       0       0
   730 ;;Total ram usage:       14 bytes
   731 ;; Hardware stack levels used: 1
   732 ;; This function calls:
   733 ;;		Nothing
   734 ;; This function is called by:
   735 ;;		_USART_Init
   736 ;; This function uses a non-reentrant model
   737 ;;
   738                           
   739                           	psect	text3
   740  0075F2                     __ptext3:
   741                           	callstack 0
   742  0075F2                     ___xxtofl:
   743                           	callstack 29
   744                           
   745                           ;incstack = 0
   746                           ;___xxtofl@sign stored from wreg
   747  0075F2  6E09               	movwf	___xxtofl@sign^0,c
   748  0075F4  5009               	movf	___xxtofl@sign^0,w,c
   749  0075F6  B4D8               	btfsc	status,2,c
   750  0075F8  EF00  F03B         	goto	u1781
   751  0075FC  EF02  F03B         	goto	u1780
   752  007600                     u1781:
   753  007600  EF24  F03B         	goto	l880
   754  007604                     u1780:
   755  007604  BE04               	btfsc	(___xxtofl@val+3)^0,7,c
   756  007606  EF09  F03B         	goto	u1790
   757  00760A  EF07  F03B         	goto	u1791
   758  00760E                     u1791:
   759  00760E  EF24  F03B         	goto	l880
   760  007612                     u1790:
   761  007612  C001  F005         	movff	___xxtofl@val,??___xxtofl
   762  007616  C002  F006         	movff	___xxtofl@val+1,??___xxtofl+1
   763  00761A  C003  F007         	movff	___xxtofl@val+2,??___xxtofl+2
   764  00761E  C004  F008         	movff	___xxtofl@val+3,??___xxtofl+3
   765  007622  1E05               	comf	??___xxtofl^0,f,c
   766  007624  1E06               	comf	(??___xxtofl+1)^0,f,c
   767  007626  1E07               	comf	(??___xxtofl+2)^0,f,c
   768  007628  1E08               	comf	(??___xxtofl+3)^0,f,c
   769  00762A  2A05               	incf	??___xxtofl^0,f,c
   770  00762C  0E00               	movlw	0
   771  00762E  2206               	addwfc	(??___xxtofl+1)^0,f,c
   772  007630  2207               	addwfc	(??___xxtofl+2)^0,f,c
   773  007632  2208               	addwfc	(??___xxtofl+3)^0,f,c
   774  007634  C005  F00B         	movff	??___xxtofl,___xxtofl@arg
   775  007638  C006  F00C         	movff	??___xxtofl+1,___xxtofl@arg+1
   776  00763C  C007  F00D         	movff	??___xxtofl+2,___xxtofl@arg+2
   777  007640  C008  F00E         	movff	??___xxtofl+3,___xxtofl@arg+3
   778  007644  EF2C  F03B         	goto	l1902
   779  007648                     l880:
   780  007648  C001  F00B         	movff	___xxtofl@val,___xxtofl@arg
   781  00764C  C002  F00C         	movff	___xxtofl@val+1,___xxtofl@arg+1
   782  007650  C003  F00D         	movff	___xxtofl@val+2,___xxtofl@arg+2
   783  007654  C004  F00E         	movff	___xxtofl@val+3,___xxtofl@arg+3
   784  007658                     l1902:
   785  007658  5001               	movf	___xxtofl@val^0,w,c
   786  00765A  1002               	iorwf	(___xxtofl@val+1)^0,w,c
   787  00765C  1003               	iorwf	(___xxtofl@val+2)^0,w,c
   788  00765E  1004               	iorwf	(___xxtofl@val+3)^0,w,c
   789  007660  A4D8               	btfss	status,2,c
   790  007662  EF35  F03B         	goto	u1801
   791  007666  EF37  F03B         	goto	u1800
   792  00766A                     u1801:
   793  00766A  EF41  F03B         	goto	l1908
   794  00766E                     u1800:
   795  00766E  0E00               	movlw	0
   796  007670  6E01               	movwf	?___xxtofl^0,c
   797  007672  0E00               	movlw	0
   798  007674  6E02               	movwf	(?___xxtofl+1)^0,c
   799  007676  0E00               	movlw	0
   800  007678  6E03               	movwf	(?___xxtofl+2)^0,c
   801  00767A  0E00               	movlw	0
   802  00767C  6E04               	movwf	(?___xxtofl+3)^0,c
   803  00767E  EFD2  F03B         	goto	l883
   804  007682                     l1908:
   805  007682  0E96               	movlw	150
   806  007684  6E0A               	movwf	___xxtofl@exp^0,c
   807  007686  EF4B  F03B         	goto	l1912
   808  00768A                     l1910:
   809  00768A  2A0A               	incf	___xxtofl@exp^0,f,c
   810  00768C  90D8               	bcf	status,0,c
   811  00768E  320E               	rrcf	(___xxtofl@arg+3)^0,f,c
   812  007690  320D               	rrcf	(___xxtofl@arg+2)^0,f,c
   813  007692  320C               	rrcf	(___xxtofl@arg+1)^0,f,c
   814  007694  320B               	rrcf	___xxtofl@arg^0,f,c
   815  007696                     l1912:
   816  007696  0E00               	movlw	0
   817  007698  140B               	andwf	___xxtofl@arg^0,w,c
   818  00769A  6E05               	movwf	??___xxtofl^0,c
   819  00769C  0E00               	movlw	0
   820  00769E  140C               	andwf	(___xxtofl@arg+1)^0,w,c
   821  0076A0  6E06               	movwf	(??___xxtofl+1)^0,c
   822  0076A2  0E00               	movlw	0
   823  0076A4  140D               	andwf	(___xxtofl@arg+2)^0,w,c
   824  0076A6  6E07               	movwf	(??___xxtofl+2)^0,c
   825  0076A8  0EFE               	movlw	254
   826  0076AA  140E               	andwf	(___xxtofl@arg+3)^0,w,c
   827  0076AC  6E08               	movwf	(??___xxtofl+3)^0,c
   828  0076AE  5005               	movf	??___xxtofl^0,w,c
   829  0076B0  1006               	iorwf	(??___xxtofl+1)^0,w,c
   830  0076B2  1007               	iorwf	(??___xxtofl+2)^0,w,c
   831  0076B4  1008               	iorwf	(??___xxtofl+3)^0,w,c
   832  0076B6  A4D8               	btfss	status,2,c
   833  0076B8  EF60  F03B         	goto	u1811
   834  0076BC  EF62  F03B         	goto	u1810
   835  0076C0                     u1811:
   836  0076C0  EF45  F03B         	goto	l1910
   837  0076C4                     u1810:
   838  0076C4  EF70  F03B         	goto	l887
   839  0076C8                     l1914:
   840  0076C8  2A0A               	incf	___xxtofl@exp^0,f,c
   841  0076CA  0E01               	movlw	1
   842  0076CC  260B               	addwf	___xxtofl@arg^0,f,c
   843  0076CE  0E00               	movlw	0
   844  0076D0  220C               	addwfc	(___xxtofl@arg+1)^0,f,c
   845  0076D2  220D               	addwfc	(___xxtofl@arg+2)^0,f,c
   846  0076D4  220E               	addwfc	(___xxtofl@arg+3)^0,f,c
   847  0076D6  90D8               	bcf	status,0,c
   848  0076D8  320E               	rrcf	(___xxtofl@arg+3)^0,f,c
   849  0076DA  320D               	rrcf	(___xxtofl@arg+2)^0,f,c
   850  0076DC  320C               	rrcf	(___xxtofl@arg+1)^0,f,c
   851  0076DE  320B               	rrcf	___xxtofl@arg^0,f,c
   852  0076E0                     l887:
   853  0076E0  0E00               	movlw	0
   854  0076E2  140B               	andwf	___xxtofl@arg^0,w,c
   855  0076E4  6E05               	movwf	??___xxtofl^0,c
   856  0076E6  0E00               	movlw	0
   857  0076E8  140C               	andwf	(___xxtofl@arg+1)^0,w,c
   858  0076EA  6E06               	movwf	(??___xxtofl+1)^0,c
   859  0076EC  0E00               	movlw	0
   860  0076EE  140D               	andwf	(___xxtofl@arg+2)^0,w,c
   861  0076F0  6E07               	movwf	(??___xxtofl+2)^0,c
   862  0076F2  0EFF               	movlw	255
   863  0076F4  140E               	andwf	(___xxtofl@arg+3)^0,w,c
   864  0076F6  6E08               	movwf	(??___xxtofl+3)^0,c
   865  0076F8  5005               	movf	??___xxtofl^0,w,c
   866  0076FA  1006               	iorwf	(??___xxtofl+1)^0,w,c
   867  0076FC  1007               	iorwf	(??___xxtofl+2)^0,w,c
   868  0076FE  1008               	iorwf	(??___xxtofl+3)^0,w,c
   869  007700  A4D8               	btfss	status,2,c
   870  007702  EF85  F03B         	goto	u1821
   871  007706  EF87  F03B         	goto	u1820
   872  00770A                     u1821:
   873  00770A  EF64  F03B         	goto	l1914
   874  00770E                     u1820:
   875  00770E  EF8F  F03B         	goto	l1922
   876  007712                     l1920:
   877  007712  060A               	decf	___xxtofl@exp^0,f,c
   878  007714  90D8               	bcf	status,0,c
   879  007716  360B               	rlcf	___xxtofl@arg^0,f,c
   880  007718  360C               	rlcf	(___xxtofl@arg+1)^0,f,c
   881  00771A  360D               	rlcf	(___xxtofl@arg+2)^0,f,c
   882  00771C  360E               	rlcf	(___xxtofl@arg+3)^0,f,c
   883  00771E                     l1922:
   884  00771E  BE0D               	btfsc	(___xxtofl@arg+2)^0,7,c
   885  007720  EF94  F03B         	goto	u1831
   886  007724  EF96  F03B         	goto	u1830
   887  007728                     u1831:
   888  007728  EF9E  F03B         	goto	l894
   889  00772C                     u1830:
   890  00772C  0E02               	movlw	2
   891  00772E  600A               	cpfslt	___xxtofl@exp^0,c
   892  007730  EF9C  F03B         	goto	u1841
   893  007734  EF9E  F03B         	goto	u1840
   894  007738                     u1841:
   895  007738  EF89  F03B         	goto	l1920
   896  00773C                     u1840:
   897  00773C                     l894:
   898  00773C  B00A               	btfsc	___xxtofl@exp^0,0,c
   899  00773E  EFA3  F03B         	goto	u1851
   900  007742  EFA5  F03B         	goto	u1850
   901  007746                     u1851:
   902  007746  EFA6  F03B         	goto	l1928
   903  00774A                     u1850:
   904  00774A  9E0D               	bcf	(___xxtofl@arg+2)^0,7,c
   905  00774C                     l1928:
   906  00774C  90D8               	bcf	status,0,c
   907  00774E  320A               	rrcf	___xxtofl@exp^0,f,c
   908  007750  C00A  F005         	movff	___xxtofl@exp,??___xxtofl
   909  007754  6A06               	clrf	(??___xxtofl+1)^0,c
   910  007756  6A07               	clrf	(??___xxtofl+2)^0,c
   911  007758  6A08               	clrf	(??___xxtofl+3)^0,c
   912  00775A  C005  F008         	movff	??___xxtofl,??___xxtofl+3
   913  00775E  6A07               	clrf	(??___xxtofl+2)^0,c
   914  007760  6A06               	clrf	(??___xxtofl+1)^0,c
   915  007762  6A05               	clrf	??___xxtofl^0,c
   916  007764  5005               	movf	??___xxtofl^0,w,c
   917  007766  120B               	iorwf	___xxtofl@arg^0,f,c
   918  007768  5006               	movf	(??___xxtofl+1)^0,w,c
   919  00776A  120C               	iorwf	(___xxtofl@arg+1)^0,f,c
   920  00776C  5007               	movf	(??___xxtofl+2)^0,w,c
   921  00776E  120D               	iorwf	(___xxtofl@arg+2)^0,f,c
   922  007770  5008               	movf	(??___xxtofl+3)^0,w,c
   923  007772  120E               	iorwf	(___xxtofl@arg+3)^0,f,c
   924  007774  5009               	movf	___xxtofl@sign^0,w,c
   925  007776  B4D8               	btfsc	status,2,c
   926  007778  EFC0  F03B         	goto	u1861
   927  00777C  EFC2  F03B         	goto	u1860
   928  007780                     u1861:
   929  007780  EFCA  F03B         	goto	l1938
   930  007784                     u1860:
   931  007784  BE04               	btfsc	(___xxtofl@val+3)^0,7,c
   932  007786  EFC9  F03B         	goto	u1870
   933  00778A  EFC7  F03B         	goto	u1871
   934  00778E                     u1871:
   935  00778E  EFCA  F03B         	goto	l1938
   936  007792                     u1870:
   937  007792  8E0E               	bsf	(___xxtofl@arg+3)^0,7,c
   938  007794                     l1938:
   939  007794  C00B  F001         	movff	___xxtofl@arg,?___xxtofl
   940  007798  C00C  F002         	movff	___xxtofl@arg+1,?___xxtofl+1
   941  00779C  C00D  F003         	movff	___xxtofl@arg+2,?___xxtofl+2
   942  0077A0  C00E  F004         	movff	___xxtofl@arg+3,?___xxtofl+3
   943  0077A4                     l883:
   944  0077A4  0012               	return		;funcret
   945  0077A6                     __end_of___xxtofl:
   946                           	callstack 0
   947                           
   948 ;; *************** function ___fltol *****************
   949 ;; Defined at:
   950 ;;		line 43 in file "D:\mplab\pic\sources\c99\common\fltol.c"
   951 ;; Parameters:    Size  Location     Type
   952 ;;  f1              4   55[COMRAM] unsigned char 
   953 ;; Auto vars:     Size  Location     Type
   954 ;;  exp1            1   64[COMRAM] unsigned char 
   955 ;;  sign1           1   63[COMRAM] unsigned char 
   956 ;; Return value:  Size  Location     Type
   957 ;;                  4   55[COMRAM] long 
   958 ;; Registers used:
   959 ;;		wreg, status,2, status,0
   960 ;; Tracked objects:
   961 ;;		On entry : 0/0
   962 ;;		On exit  : 0/0
   963 ;;		Unchanged: 0/0
   964 ;; Data sizes:     COMRAM   BANK0   BANK1   BANK2   BANK3   BANK4   BANK5   BANK6   BANK7
   965 ;;      Params:         4       0       0       0       0       0       0       0       0
   966 ;;      Locals:         2       0       0       0       0       0       0       0       0
   967 ;;      Temps:          4       0       0       0       0       0       0       0       0
   968 ;;      Totals:        10       0       0       0       0       0       0       0       0
   969 ;;Total ram usage:       10 bytes
   970 ;; Hardware stack levels used: 1
   971 ;; This function calls:
   972 ;;		Nothing
   973 ;; This function is called by:
   974 ;;		_USART_Init
   975 ;; This function uses a non-reentrant model
   976 ;;
   977                           
   978                           	psect	text4
   979  0073A2                     __ptext4:
   980                           	callstack 0
   981  0073A2                     ___fltol:
   982                           	callstack 29
   983  0073A2  343A               	rlcf	(___fltol@f1+2)^0,w,c
   984  0073A4  343B               	rlcf	(___fltol@f1+3)^0,w,c
   985  0073A6  6E41               	movwf	___fltol@exp1^0,c
   986  0073A8  5041               	movf	___fltol@exp1^0,w,c
   987  0073AA  A4D8               	btfss	status,2,c
   988  0073AC  EFDA  F039         	goto	u1711
   989  0073B0  EFDC  F039         	goto	u1710
   990  0073B4                     u1711:
   991  0073B4  EFE6  F039         	goto	l1858
   992  0073B8                     u1710:
   993  0073B8                     l1854:
   994  0073B8  0E00               	movlw	0
   995  0073BA  6E38               	movwf	?___fltol^0,c
   996  0073BC  0E00               	movlw	0
   997  0073BE  6E39               	movwf	(?___fltol+1)^0,c
   998  0073C0  0E00               	movlw	0
   999  0073C2  6E3A               	movwf	(?___fltol+2)^0,c
  1000  0073C4  0E00               	movlw	0
  1001  0073C6  6E3B               	movwf	(?___fltol+3)^0,c
  1002  0073C8  EF53  F03A         	goto	l522
  1003  0073CC                     l1858:
  1004  0073CC  C038  F03C         	movff	___fltol@f1,??___fltol
  1005  0073D0  C039  F03D         	movff	___fltol@f1+1,??___fltol+1
  1006  0073D4  C03A  F03E         	movff	___fltol@f1+2,??___fltol+2
  1007  0073D8  C03B  F03F         	movff	___fltol@f1+3,??___fltol+3
  1008  0073DC  0E20               	movlw	32
  1009  0073DE  EFF6  F039         	goto	u1720
  1010  0073E2                     u1725:
  1011  0073E2  90D8               	bcf	status,0,c
  1012  0073E4  323F               	rrcf	(??___fltol+3)^0,f,c
  1013  0073E6  323E               	rrcf	(??___fltol+2)^0,f,c
  1014  0073E8  323D               	rrcf	(??___fltol+1)^0,f,c
  1015  0073EA  323C               	rrcf	??___fltol^0,f,c
  1016  0073EC                     u1720:
  1017  0073EC  2EE8               	decfsz	wreg,f,c
  1018  0073EE  EFF1  F039         	goto	u1725
  1019  0073F2  503C               	movf	??___fltol^0,w,c
  1020  0073F4  6E40               	movwf	___fltol@sign1^0,c
  1021  0073F6  8E3A               	bsf	(___fltol@f1+2)^0,7,c
  1022  0073F8  0EFF               	movlw	255
  1023  0073FA  1638               	andwf	___fltol@f1^0,f,c
  1024  0073FC  0EFF               	movlw	255
  1025  0073FE  1639               	andwf	(___fltol@f1+1)^0,f,c
  1026  007400  0EFF               	movlw	255
  1027  007402  163A               	andwf	(___fltol@f1+2)^0,f,c
  1028  007404  0E00               	movlw	0
  1029  007406  163B               	andwf	(___fltol@f1+3)^0,f,c
  1030  007408  0E96               	movlw	150
  1031  00740A  5E41               	subwf	___fltol@exp1^0,f,c
  1032  00740C  BE41               	btfsc	___fltol@exp1^0,7,c
  1033  00740E  EF0D  F03A         	goto	u1730
  1034  007412  EF0B  F03A         	goto	u1731
  1035  007416                     u1731:
  1036  007416  EF23  F03A         	goto	l1878
  1037  00741A                     u1730:
  1038  00741A  5041               	movf	___fltol@exp1^0,w,c
  1039  00741C  0A80               	xorlw	128
  1040  00741E  0F97               	addlw	151
  1041  007420  B0D8               	btfsc	status,0,c
  1042  007422  EF15  F03A         	goto	u1741
  1043  007426  EF17  F03A         	goto	u1740
  1044  00742A                     u1741:
  1045  00742A  EF19  F03A         	goto	l1874
  1046  00742E                     u1740:
  1047  00742E  EFDC  F039         	goto	l1854
  1048  007432                     l1874:
  1049  007432  90D8               	bcf	status,0,c
  1050  007434  323B               	rrcf	(___fltol@f1+3)^0,f,c
  1051  007436  323A               	rrcf	(___fltol@f1+2)^0,f,c
  1052  007438  3239               	rrcf	(___fltol@f1+1)^0,f,c
  1053  00743A  3238               	rrcf	___fltol@f1^0,f,c
  1054  00743C  3E41               	incfsz	___fltol@exp1^0,f,c
  1055  00743E  EF19  F03A         	goto	l1874
  1056  007442  EF3B  F03A         	goto	l1888
  1057  007446                     l1878:
  1058  007446  0E1F               	movlw	31
  1059  007448  6441               	cpfsgt	___fltol@exp1^0,c
  1060  00744A  EF29  F03A         	goto	u1751
  1061  00744E  EF2B  F03A         	goto	u1750
  1062  007452                     u1751:
  1063  007452  EF33  F03A         	goto	l1886
  1064  007456                     u1750:
  1065  007456  EFDC  F039         	goto	l1854
  1066  00745A                     l1884:
  1067  00745A  90D8               	bcf	status,0,c
  1068  00745C  3638               	rlcf	___fltol@f1^0,f,c
  1069  00745E  3639               	rlcf	(___fltol@f1+1)^0,f,c
  1070  007460  363A               	rlcf	(___fltol@f1+2)^0,f,c
  1071  007462  363B               	rlcf	(___fltol@f1+3)^0,f,c
  1072  007464  0641               	decf	___fltol@exp1^0,f,c
  1073  007466                     l1886:
  1074  007466  5041               	movf	___fltol@exp1^0,w,c
  1075  007468  A4D8               	btfss	status,2,c
  1076  00746A  EF39  F03A         	goto	u1761
  1077  00746E  EF3B  F03A         	goto	u1760
  1078  007472                     u1761:
  1079  007472  EF2D  F03A         	goto	l1884
  1080  007476                     u1760:
  1081  007476                     l1888:
  1082  007476  5040               	movf	___fltol@sign1^0,w,c
  1083  007478  B4D8               	btfsc	status,2,c
  1084  00747A  EF41  F03A         	goto	u1771
  1085  00747E  EF43  F03A         	goto	u1770
  1086  007482                     u1771:
  1087  007482  EF4B  F03A         	goto	l1892
  1088  007486                     u1770:
  1089  007486  1E3B               	comf	(___fltol@f1+3)^0,f,c
  1090  007488  1E3A               	comf	(___fltol@f1+2)^0,f,c
  1091  00748A  1E39               	comf	(___fltol@f1+1)^0,f,c
  1092  00748C  6C38               	negf	___fltol@f1^0,c
  1093  00748E  0E00               	movlw	0
  1094  007490  2239               	addwfc	(___fltol@f1+1)^0,f,c
  1095  007492  223A               	addwfc	(___fltol@f1+2)^0,f,c
  1096  007494  223B               	addwfc	(___fltol@f1+3)^0,f,c
  1097  007496                     l1892:
  1098  007496  C038  F038         	movff	___fltol@f1,?___fltol
  1099  00749A  C039  F039         	movff	___fltol@f1+1,?___fltol+1
  1100  00749E  C03A  F03A         	movff	___fltol@f1+2,?___fltol+2
  1101  0074A2  C03B  F03B         	movff	___fltol@f1+3,?___fltol+3
  1102  0074A6                     l522:
  1103  0074A6  0012               	return		;funcret
  1104  0074A8                     __end_of___fltol:
  1105                           	callstack 0
  1106                           
  1107 ;; *************** function ___fldiv *****************
  1108 ;; Defined at:
  1109 ;;		line 11 in file "D:\mplab\pic\sources\c99\common\sprcdiv.c"
  1110 ;; Parameters:    Size  Location     Type
  1111 ;;  b               4   14[COMRAM] long 
  1112 ;;  a               4   18[COMRAM] long 
  1113 ;; Auto vars:     Size  Location     Type
  1114 ;;  grs             4   33[COMRAM] unsigned long 
  1115 ;;  rem             4   26[COMRAM] unsigned long 
  1116 ;;  new_exp         2   31[COMRAM] short 
  1117 ;;  aexp            1   38[COMRAM] unsigned char 
  1118 ;;  bexp            1   37[COMRAM] unsigned char 
  1119 ;;  sign            1   30[COMRAM] unsigned char 
  1120 ;; Return value:  Size  Location     Type
  1121 ;;                  4   14[COMRAM] unsigned char 
  1122 ;; Registers used:
  1123 ;;		wreg, status,2, status,0
  1124 ;; Tracked objects:
  1125 ;;		On entry : 0/0
  1126 ;;		On exit  : 0/0
  1127 ;;		Unchanged: 0/0
  1128 ;; Data sizes:     COMRAM   BANK0   BANK1   BANK2   BANK3   BANK4   BANK5   BANK6   BANK7
  1129 ;;      Params:         8       0       0       0       0       0       0       0       0
  1130 ;;      Locals:        13       0       0       0       0       0       0       0       0
  1131 ;;      Temps:          4       0       0       0       0       0       0       0       0
  1132 ;;      Totals:        25       0       0       0       0       0       0       0       0
  1133 ;;Total ram usage:       25 bytes
  1134 ;; Hardware stack levels used: 1
  1135 ;; This function calls:
  1136 ;;		Nothing
  1137 ;; This function is called by:
  1138 ;;		_USART_Init
  1139 ;; This function uses a non-reentrant model
  1140 ;;
  1141                           
  1142                           	psect	text5
  1143  0077A6                     __ptext5:
  1144                           	callstack 0
  1145  0077A6                     ___fldiv:
  1146                           	callstack 29
  1147  0077A6  5012               	movf	(___fldiv@b+3)^0,w,c
  1148  0077A8  0B80               	andlw	128
  1149  0077AA  6E1F               	movwf	___fldiv@sign^0,c
  1150  0077AC  5012               	movf	(___fldiv@b+3)^0,w,c
  1151  0077AE  2412               	addwf	(___fldiv@b+3)^0,w,c
  1152  0077B0  6E26               	movwf	___fldiv@bexp^0,c
  1153  0077B2  AE11               	btfss	(___fldiv@b+2)^0,7,c
  1154  0077B4  EFDE  F03B         	goto	u1481
  1155  0077B8  EFE0  F03B         	goto	u1480
  1156  0077BC                     u1481:
  1157  0077BC  EFE1  F03B         	goto	l1720
  1158  0077C0                     u1480:
  1159  0077C0  8026               	bsf	___fldiv@bexp^0,0,c
  1160  0077C2                     l1720:
  1161  0077C2  5026               	movf	___fldiv@bexp^0,w,c
  1162  0077C4  B4D8               	btfsc	status,2,c
  1163  0077C6  EFE7  F03B         	goto	u1491
  1164  0077CA  EFE9  F03B         	goto	u1490
  1165  0077CE                     u1491:
  1166  0077CE  EFFE  F03B         	goto	l1730
  1167  0077D2                     u1490:
  1168  0077D2  2826               	incf	___fldiv@bexp^0,w,c
  1169  0077D4  A4D8               	btfss	status,2,c
  1170  0077D6  EFEF  F03B         	goto	u1501
  1171  0077DA  EFF1  F03B         	goto	u1500
  1172  0077DE                     u1501:
  1173  0077DE  EFF9  F03B         	goto	l1726
  1174  0077E2                     u1500:
  1175  0077E2  0E00               	movlw	0
  1176  0077E4  6E0F               	movwf	___fldiv@b^0,c
  1177  0077E6  0E00               	movlw	0
  1178  0077E8  6E10               	movwf	(___fldiv@b+1)^0,c
  1179  0077EA  0E00               	movlw	0
  1180  0077EC  6E11               	movwf	(___fldiv@b+2)^0,c
  1181  0077EE  0E00               	movlw	0
  1182  0077F0  6E12               	movwf	(___fldiv@b+3)^0,c
  1183  0077F2                     l1726:
  1184  0077F2  8E11               	bsf	(___fldiv@b+2)^0,7,c
  1185  0077F4  0E00               	movlw	0
  1186  0077F6  6E12               	movwf	(___fldiv@b+3)^0,c
  1187  0077F8  EF06  F03C         	goto	l1732
  1188  0077FC                     l1730:
  1189  0077FC  0E00               	movlw	0
  1190  0077FE  6E0F               	movwf	___fldiv@b^0,c
  1191  007800  0E00               	movlw	0
  1192  007802  6E10               	movwf	(___fldiv@b+1)^0,c
  1193  007804  0E00               	movlw	0
  1194  007806  6E11               	movwf	(___fldiv@b+2)^0,c
  1195  007808  0E00               	movlw	0
  1196  00780A  6E12               	movwf	(___fldiv@b+3)^0,c
  1197  00780C                     l1732:
  1198  00780C  5016               	movf	(___fldiv@a+3)^0,w,c
  1199  00780E  0B80               	andlw	128
  1200  007810  1A1F               	xorwf	___fldiv@sign^0,f,c
  1201  007812  5016               	movf	(___fldiv@a+3)^0,w,c
  1202  007814  2416               	addwf	(___fldiv@a+3)^0,w,c
  1203  007816  6E27               	movwf	___fldiv@aexp^0,c
  1204  007818  AE15               	btfss	(___fldiv@a+2)^0,7,c
  1205  00781A  EF11  F03C         	goto	u1511
  1206  00781E  EF13  F03C         	goto	u1510
  1207  007822                     u1511:
  1208  007822  EF14  F03C         	goto	l1740
  1209  007826                     u1510:
  1210  007826  8027               	bsf	___fldiv@aexp^0,0,c
  1211  007828                     l1740:
  1212  007828  5027               	movf	___fldiv@aexp^0,w,c
  1213  00782A  B4D8               	btfsc	status,2,c
  1214  00782C  EF1A  F03C         	goto	u1521
  1215  007830  EF1C  F03C         	goto	u1520
  1216  007834                     u1521:
  1217  007834  EF31  F03C         	goto	l1750
  1218  007838                     u1520:
  1219  007838  2827               	incf	___fldiv@aexp^0,w,c
  1220  00783A  A4D8               	btfss	status,2,c
  1221  00783C  EF22  F03C         	goto	u1531
  1222  007840  EF24  F03C         	goto	u1530
  1223  007844                     u1531:
  1224  007844  EF2C  F03C         	goto	l1746
  1225  007848                     u1530:
  1226  007848  0E00               	movlw	0
  1227  00784A  6E13               	movwf	___fldiv@a^0,c
  1228  00784C  0E00               	movlw	0
  1229  00784E  6E14               	movwf	(___fldiv@a+1)^0,c
  1230  007850  0E00               	movlw	0
  1231  007852  6E15               	movwf	(___fldiv@a+2)^0,c
  1232  007854  0E00               	movlw	0
  1233  007856  6E16               	movwf	(___fldiv@a+3)^0,c
  1234  007858                     l1746:
  1235  007858  8E15               	bsf	(___fldiv@a+2)^0,7,c
  1236  00785A  0E00               	movlw	0
  1237  00785C  6E16               	movwf	(___fldiv@a+3)^0,c
  1238  00785E  EF39  F03C         	goto	l1752
  1239  007862                     l1750:
  1240  007862  0E00               	movlw	0
  1241  007864  6E13               	movwf	___fldiv@a^0,c
  1242  007866  0E00               	movlw	0
  1243  007868  6E14               	movwf	(___fldiv@a+1)^0,c
  1244  00786A  0E00               	movlw	0
  1245  00786C  6E15               	movwf	(___fldiv@a+2)^0,c
  1246  00786E  0E00               	movlw	0
  1247  007870  6E16               	movwf	(___fldiv@a+3)^0,c
  1248  007872                     l1752:
  1249  007872  5013               	movf	___fldiv@a^0,w,c
  1250  007874  1014               	iorwf	(___fldiv@a+1)^0,w,c
  1251  007876  1015               	iorwf	(___fldiv@a+2)^0,w,c
  1252  007878  1016               	iorwf	(___fldiv@a+3)^0,w,c
  1253  00787A  A4D8               	btfss	status,2,c
  1254  00787C  EF42  F03C         	goto	u1541
  1255  007880  EF44  F03C         	goto	u1540
  1256  007884                     u1541:
  1257  007884  EF5C  F03C         	goto	l1764
  1258  007888                     u1540:
  1259  007888  0E00               	movlw	0
  1260  00788A  6E0F               	movwf	___fldiv@b^0,c
  1261  00788C  0E00               	movlw	0
  1262  00788E  6E10               	movwf	(___fldiv@b+1)^0,c
  1263  007890  0E00               	movlw	0
  1264  007892  6E11               	movwf	(___fldiv@b+2)^0,c
  1265  007894  0E00               	movlw	0
  1266  007896  6E12               	movwf	(___fldiv@b+3)^0,c
  1267  007898  0E80               	movlw	128
  1268  00789A  1211               	iorwf	(___fldiv@b+2)^0,f,c
  1269  00789C  0E7F               	movlw	127
  1270  00789E  1212               	iorwf	(___fldiv@b+3)^0,f,c
  1271  0078A0                     l1758:
  1272  0078A0  501F               	movf	___fldiv@sign^0,w,c
  1273  0078A2  1212               	iorwf	(___fldiv@b+3)^0,f,c
  1274  0078A4  C00F  F00F         	movff	___fldiv@b,?___fldiv
  1275  0078A8  C010  F010         	movff	___fldiv@b+1,?___fldiv+1
  1276  0078AC  C011  F011         	movff	___fldiv@b+2,?___fldiv+2
  1277  0078B0  C012  F012         	movff	___fldiv@b+3,?___fldiv+3
  1278  0078B4  EF9F  F03D         	goto	l807
  1279  0078B8                     l1764:
  1280  0078B8  5026               	movf	___fldiv@bexp^0,w,c
  1281  0078BA  A4D8               	btfss	status,2,c
  1282  0078BC  EF62  F03C         	goto	u1551
  1283  0078C0  EF64  F03C         	goto	u1550
  1284  0078C4                     u1551:
  1285  0078C4  EF6E  F03C         	goto	l1772
  1286  0078C8                     u1550:
  1287  0078C8  0E00               	movlw	0
  1288  0078CA  6E0F               	movwf	?___fldiv^0,c
  1289  0078CC  0E00               	movlw	0
  1290  0078CE  6E10               	movwf	(?___fldiv+1)^0,c
  1291  0078D0  0E00               	movlw	0
  1292  0078D2  6E11               	movwf	(?___fldiv+2)^0,c
  1293  0078D4  0E00               	movlw	0
  1294  0078D6  6E12               	movwf	(?___fldiv+3)^0,c
  1295  0078D8  EF9F  F03D         	goto	l807
  1296  0078DC                     l1772:
  1297  0078DC  5027               	movf	___fldiv@aexp^0,w,c
  1298  0078DE  C026  F017         	movff	___fldiv@bexp,??___fldiv
  1299  0078E2  6A18               	clrf	(??___fldiv+1)^0,c
  1300  0078E4  5E17               	subwf	??___fldiv^0,f,c
  1301  0078E6  0E00               	movlw	0
  1302  0078E8  5A18               	subwfb	(??___fldiv+1)^0,f,c
  1303  0078EA  0E7F               	movlw	127
  1304  0078EC  2417               	addwf	??___fldiv^0,w,c
  1305  0078EE  6E20               	movwf	___fldiv@new_exp^0,c
  1306  0078F0  0E00               	movlw	0
  1307  0078F2  2018               	addwfc	(??___fldiv+1)^0,w,c
  1308  0078F4  6E21               	movwf	(___fldiv@new_exp+1)^0,c
  1309  0078F6  C00F  F01B         	movff	___fldiv@b,___fldiv@rem
  1310  0078FA  C010  F01C         	movff	___fldiv@b+1,___fldiv@rem+1
  1311  0078FE  C011  F01D         	movff	___fldiv@b+2,___fldiv@rem+2
  1312  007902  C012  F01E         	movff	___fldiv@b+3,___fldiv@rem+3
  1313  007906  0E00               	movlw	0
  1314  007908  6E0F               	movwf	___fldiv@b^0,c
  1315  00790A  0E00               	movlw	0
  1316  00790C  6E10               	movwf	(___fldiv@b+1)^0,c
  1317  00790E  0E00               	movlw	0
  1318  007910  6E11               	movwf	(___fldiv@b+2)^0,c
  1319  007912  0E00               	movlw	0
  1320  007914  6E12               	movwf	(___fldiv@b+3)^0,c
  1321  007916  0E00               	movlw	0
  1322  007918  6E22               	movwf	___fldiv@grs^0,c
  1323  00791A  0E00               	movlw	0
  1324  00791C  6E23               	movwf	(___fldiv@grs+1)^0,c
  1325  00791E  0E00               	movlw	0
  1326  007920  6E24               	movwf	(___fldiv@grs+2)^0,c
  1327  007922  0E00               	movlw	0
  1328  007924  6E25               	movwf	(___fldiv@grs+3)^0,c
  1329  007926  0E00               	movlw	0
  1330  007928  6E27               	movwf	___fldiv@aexp^0,c
  1331  00792A  EFCF  F03C         	goto	l809
  1332  00792E                     l1782:
  1333  00792E  5027               	movf	___fldiv@aexp^0,w,c
  1334  007930  B4D8               	btfsc	status,2,c
  1335  007932  EF9D  F03C         	goto	u1561
  1336  007936  EF9F  F03C         	goto	u1560
  1337  00793A                     u1561:
  1338  00793A  EFB6  F03C         	goto	l1790
  1339  00793E                     u1560:
  1340  00793E  90D8               	bcf	status,0,c
  1341  007940  361B               	rlcf	___fldiv@rem^0,f,c
  1342  007942  361C               	rlcf	(___fldiv@rem+1)^0,f,c
  1343  007944  361D               	rlcf	(___fldiv@rem+2)^0,f,c
  1344  007946  361E               	rlcf	(___fldiv@rem+3)^0,f,c
  1345  007948  90D8               	bcf	status,0,c
  1346  00794A  360F               	rlcf	___fldiv@b^0,f,c
  1347  00794C  3610               	rlcf	(___fldiv@b+1)^0,f,c
  1348  00794E  3611               	rlcf	(___fldiv@b+2)^0,f,c
  1349  007950  3612               	rlcf	(___fldiv@b+3)^0,f,c
  1350  007952  AE25               	btfss	(___fldiv@grs+3)^0,7,c
  1351  007954  EFAE  F03C         	goto	u1571
  1352  007958  EFB0  F03C         	goto	u1570
  1353  00795C                     u1571:
  1354  00795C  EFB1  F03C         	goto	l812
  1355  007960                     u1570:
  1356  007960  800F               	bsf	___fldiv@b^0,0,c
  1357  007962                     l812:
  1358  007962  90D8               	bcf	status,0,c
  1359  007964  3622               	rlcf	___fldiv@grs^0,f,c
  1360  007966  3623               	rlcf	(___fldiv@grs+1)^0,f,c
  1361  007968  3624               	rlcf	(___fldiv@grs+2)^0,f,c
  1362  00796A  3625               	rlcf	(___fldiv@grs+3)^0,f,c
  1363  00796C                     l1790:
  1364  00796C  5013               	movf	___fldiv@a^0,w,c
  1365  00796E  5C1B               	subwf	___fldiv@rem^0,w,c
  1366  007970  5014               	movf	(___fldiv@a+1)^0,w,c
  1367  007972  581C               	subwfb	(___fldiv@rem+1)^0,w,c
  1368  007974  5015               	movf	(___fldiv@a+2)^0,w,c
  1369  007976  581D               	subwfb	(___fldiv@rem+2)^0,w,c
  1370  007978  5016               	movf	(___fldiv@a+3)^0,w,c
  1371  00797A  581E               	subwfb	(___fldiv@rem+3)^0,w,c
  1372  00797C  A0D8               	btfss	status,0,c
  1373  00797E  EFC3  F03C         	goto	u1581
  1374  007982  EFC5  F03C         	goto	u1580
  1375  007986                     u1581:
  1376  007986  EFCE  F03C         	goto	l1796
  1377  00798A                     u1580:
  1378  00798A  8C25               	bsf	(___fldiv@grs+3)^0,6,c
  1379  00798C  5013               	movf	___fldiv@a^0,w,c
  1380  00798E  5E1B               	subwf	___fldiv@rem^0,f,c
  1381  007990  5014               	movf	(___fldiv@a+1)^0,w,c
  1382  007992  5A1C               	subwfb	(___fldiv@rem+1)^0,f,c
  1383  007994  5015               	movf	(___fldiv@a+2)^0,w,c
  1384  007996  5A1D               	subwfb	(___fldiv@rem+2)^0,f,c
  1385  007998  5016               	movf	(___fldiv@a+3)^0,w,c
  1386  00799A  5A1E               	subwfb	(___fldiv@rem+3)^0,f,c
  1387  00799C                     l1796:
  1388  00799C  2A27               	incf	___fldiv@aexp^0,f,c
  1389  00799E                     l809:
  1390  00799E  0E19               	movlw	25
  1391  0079A0  6427               	cpfsgt	___fldiv@aexp^0,c
  1392  0079A2  EFD5  F03C         	goto	u1591
  1393  0079A6  EFD7  F03C         	goto	u1590
  1394  0079AA                     u1591:
  1395  0079AA  EF97  F03C         	goto	l1782
  1396  0079AE                     u1590:
  1397  0079AE  501B               	movf	___fldiv@rem^0,w,c
  1398  0079B0  101C               	iorwf	(___fldiv@rem+1)^0,w,c
  1399  0079B2  101D               	iorwf	(___fldiv@rem+2)^0,w,c
  1400  0079B4  101E               	iorwf	(___fldiv@rem+3)^0,w,c
  1401  0079B6  B4D8               	btfsc	status,2,c
  1402  0079B8  EFE0  F03C         	goto	u1601
  1403  0079BC  EFE2  F03C         	goto	u1600
  1404  0079C0                     u1601:
  1405  0079C0  EFFA  F03C         	goto	l1808
  1406  0079C4                     u1600:
  1407  0079C4  8022               	bsf	___fldiv@grs^0,0,c
  1408  0079C6  EFFA  F03C         	goto	l1808
  1409  0079CA                     l1802:
  1410  0079CA  90D8               	bcf	status,0,c
  1411  0079CC  360F               	rlcf	___fldiv@b^0,f,c
  1412  0079CE  3610               	rlcf	(___fldiv@b+1)^0,f,c
  1413  0079D0  3611               	rlcf	(___fldiv@b+2)^0,f,c
  1414  0079D2  3612               	rlcf	(___fldiv@b+3)^0,f,c
  1415  0079D4  AE25               	btfss	(___fldiv@grs+3)^0,7,c
  1416  0079D6  EFEF  F03C         	goto	u1611
  1417  0079DA  EFF1  F03C         	goto	u1610
  1418  0079DE                     u1611:
  1419  0079DE  EFF2  F03C         	goto	l818
  1420  0079E2                     u1610:
  1421  0079E2  800F               	bsf	___fldiv@b^0,0,c
  1422  0079E4                     l818:
  1423  0079E4  90D8               	bcf	status,0,c
  1424  0079E6  3622               	rlcf	___fldiv@grs^0,f,c
  1425  0079E8  3623               	rlcf	(___fldiv@grs+1)^0,f,c
  1426  0079EA  3624               	rlcf	(___fldiv@grs+2)^0,f,c
  1427  0079EC  3625               	rlcf	(___fldiv@grs+3)^0,f,c
  1428  0079EE  0620               	decf	___fldiv@new_exp^0,f,c
  1429  0079F0  A0D8               	btfss	status,0,c
  1430  0079F2  0621               	decf	(___fldiv@new_exp+1)^0,f,c
  1431  0079F4                     l1808:
  1432  0079F4  AE11               	btfss	(___fldiv@b+2)^0,7,c
  1433  0079F6  EFFF  F03C         	goto	u1621
  1434  0079FA  EF01  F03D         	goto	u1620
  1435  0079FE                     u1621:
  1436  0079FE  EFE5  F03C         	goto	l1802
  1437  007A02                     u1620:
  1438  007A02  0E00               	movlw	0
  1439  007A04  6E27               	movwf	___fldiv@aexp^0,c
  1440  007A06  AE25               	btfss	(___fldiv@grs+3)^0,7,c
  1441  007A08  EF08  F03D         	goto	u1631
  1442  007A0C  EF0A  F03D         	goto	u1630
  1443  007A10                     u1631:
  1444  007A10  EF2E  F03D         	goto	l820
  1445  007A14                     u1630:
  1446  007A14  0EFF               	movlw	255
  1447  007A16  1422               	andwf	___fldiv@grs^0,w,c
  1448  007A18  6E17               	movwf	??___fldiv^0,c
  1449  007A1A  0EFF               	movlw	255
  1450  007A1C  1423               	andwf	(___fldiv@grs+1)^0,w,c
  1451  007A1E  6E18               	movwf	(??___fldiv+1)^0,c
  1452  007A20  0EFF               	movlw	255
  1453  007A22  1424               	andwf	(___fldiv@grs+2)^0,w,c
  1454  007A24  6E19               	movwf	(??___fldiv+2)^0,c
  1455  007A26  0E7F               	movlw	127
  1456  007A28  1425               	andwf	(___fldiv@grs+3)^0,w,c
  1457  007A2A  6E1A               	movwf	(??___fldiv+3)^0,c
  1458  007A2C  5017               	movf	??___fldiv^0,w,c
  1459  007A2E  1018               	iorwf	(??___fldiv+1)^0,w,c
  1460  007A30  1019               	iorwf	(??___fldiv+2)^0,w,c
  1461  007A32  101A               	iorwf	(??___fldiv+3)^0,w,c
  1462  007A34  B4D8               	btfsc	status,2,c
  1463  007A36  EF1F  F03D         	goto	u1641
  1464  007A3A  EF21  F03D         	goto	u1640
  1465  007A3E                     u1641:
  1466  007A3E  EF25  F03D         	goto	l821
  1467  007A42                     u1640:
  1468  007A42                     l1816:
  1469  007A42  0E01               	movlw	1
  1470  007A44  6E27               	movwf	___fldiv@aexp^0,c
  1471  007A46  EF2E  F03D         	goto	l820
  1472  007A4A                     l821:
  1473  007A4A  A00F               	btfss	___fldiv@b^0,0,c
  1474  007A4C  EF2A  F03D         	goto	u1651
  1475  007A50  EF2C  F03D         	goto	u1650
  1476  007A54                     u1651:
  1477  007A54  EF2E  F03D         	goto	l820
  1478  007A58                     u1650:
  1479  007A58  EF21  F03D         	goto	l1816
  1480  007A5C                     l820:
  1481  007A5C  5027               	movf	___fldiv@aexp^0,w,c
  1482  007A5E  B4D8               	btfsc	status,2,c
  1483  007A60  EF34  F03D         	goto	u1661
  1484  007A64  EF36  F03D         	goto	u1660
  1485  007A68                     u1661:
  1486  007A68  EF5A  F03D         	goto	l1828
  1487  007A6C                     u1660:
  1488  007A6C  0E01               	movlw	1
  1489  007A6E  260F               	addwf	___fldiv@b^0,f,c
  1490  007A70  0E00               	movlw	0
  1491  007A72  2210               	addwfc	(___fldiv@b+1)^0,f,c
  1492  007A74  2211               	addwfc	(___fldiv@b+2)^0,f,c
  1493  007A76  2212               	addwfc	(___fldiv@b+3)^0,f,c
  1494  007A78  A012               	btfss	(___fldiv@b+3)^0,0,c
  1495  007A7A  EF41  F03D         	goto	u1671
  1496  007A7E  EF43  F03D         	goto	u1670
  1497  007A82                     u1671:
  1498  007A82  EF5A  F03D         	goto	l1828
  1499  007A86                     u1670:
  1500  007A86  C00F  F017         	movff	___fldiv@b,??___fldiv
  1501  007A8A  C010  F018         	movff	___fldiv@b+1,??___fldiv+1
  1502  007A8E  C011  F019         	movff	___fldiv@b+2,??___fldiv+2
  1503  007A92  C012  F01A         	movff	___fldiv@b+3,??___fldiv+3
  1504  007A96  341A               	rlcf	(??___fldiv+3)^0,w,c
  1505  007A98  321A               	rrcf	(??___fldiv+3)^0,f,c
  1506  007A9A  3219               	rrcf	(??___fldiv+2)^0,f,c
  1507  007A9C  3218               	rrcf	(??___fldiv+1)^0,f,c
  1508  007A9E  3217               	rrcf	??___fldiv^0,f,c
  1509  007AA0  C017  F00F         	movff	??___fldiv,___fldiv@b
  1510  007AA4  C018  F010         	movff	??___fldiv+1,___fldiv@b+1
  1511  007AA8  C019  F011         	movff	??___fldiv+2,___fldiv@b+2
  1512  007AAC  C01A  F012         	movff	??___fldiv+3,___fldiv@b+3
  1513  007AB0  4A20               	infsnz	___fldiv@new_exp^0,f,c
  1514  007AB2  2A21               	incf	(___fldiv@new_exp+1)^0,f,c
  1515  007AB4                     l1828:
  1516  007AB4  BE21               	btfsc	(___fldiv@new_exp+1)^0,7,c
  1517  007AB6  EF65  F03D         	goto	u1681
  1518  007ABA  5021               	movf	(___fldiv@new_exp+1)^0,w,c
  1519  007ABC  E108               	bnz	u1680
  1520  007ABE  2820               	incf	___fldiv@new_exp^0,w,c
  1521  007AC0  A0D8               	btfss	status,0,c
  1522  007AC2  EF65  F03D         	goto	u1681
  1523  007AC6  EF67  F03D         	goto	u1680
  1524  007ACA                     u1681:
  1525  007ACA  EF72  F03D         	goto	l1832
  1526  007ACE                     u1680:
  1527  007ACE  0E00               	movlw	0
  1528  007AD0  6E21               	movwf	(___fldiv@new_exp+1)^0,c
  1529  007AD2  6820               	setf	___fldiv@new_exp^0,c
  1530  007AD4  0E00               	movlw	0
  1531  007AD6  6E0F               	movwf	___fldiv@b^0,c
  1532  007AD8  0E00               	movlw	0
  1533  007ADA  6E10               	movwf	(___fldiv@b+1)^0,c
  1534  007ADC  0E00               	movlw	0
  1535  007ADE  6E11               	movwf	(___fldiv@b+2)^0,c
  1536  007AE0  0E00               	movlw	0
  1537  007AE2  6E12               	movwf	(___fldiv@b+3)^0,c
  1538  007AE4                     l1832:
  1539  007AE4  BE21               	btfsc	(___fldiv@new_exp+1)^0,7,c
  1540  007AE6  EF7F  F03D         	goto	u1690
  1541  007AEA  5021               	movf	(___fldiv@new_exp+1)^0,w,c
  1542  007AEC  E106               	bnz	u1691
  1543  007AEE  0420               	decf	___fldiv@new_exp^0,w,c
  1544  007AF0  B0D8               	btfsc	status,0,c
  1545  007AF2  EF7D  F03D         	goto	u1691
  1546  007AF6  EF7F  F03D         	goto	u1690
  1547  007AFA                     u1691:
  1548  007AFA  EF8D  F03D         	goto	l1836
  1549  007AFE                     u1690:
  1550  007AFE  0E00               	movlw	0
  1551  007B00  6E21               	movwf	(___fldiv@new_exp+1)^0,c
  1552  007B02  0E00               	movlw	0
  1553  007B04  6E20               	movwf	___fldiv@new_exp^0,c
  1554  007B06  0E00               	movlw	0
  1555  007B08  6E0F               	movwf	___fldiv@b^0,c
  1556  007B0A  0E00               	movlw	0
  1557  007B0C  6E10               	movwf	(___fldiv@b+1)^0,c
  1558  007B0E  0E00               	movlw	0
  1559  007B10  6E11               	movwf	(___fldiv@b+2)^0,c
  1560  007B12  0E00               	movlw	0
  1561  007B14  6E12               	movwf	(___fldiv@b+3)^0,c
  1562  007B16  0E00               	movlw	0
  1563  007B18  6E1F               	movwf	___fldiv@sign^0,c
  1564  007B1A                     l1836:
  1565  007B1A  C020  F026         	movff	___fldiv@new_exp,___fldiv@bexp
  1566  007B1E  A026               	btfss	___fldiv@bexp^0,0,c
  1567  007B20  EF94  F03D         	goto	u1701
  1568  007B24  EF96  F03D         	goto	u1700
  1569  007B28                     u1701:
  1570  007B28  EF99  F03D         	goto	l1842
  1571  007B2C                     u1700:
  1572  007B2C  8E11               	bsf	(___fldiv@b+2)^0,7,c
  1573  007B2E  EF9A  F03D         	goto	l1844
  1574  007B32                     l1842:
  1575  007B32  9E11               	bcf	(___fldiv@b+2)^0,7,c
  1576  007B34                     l1844:
  1577  007B34  90D8               	bcf	status,0,c
  1578  007B36  3026               	rrcf	___fldiv@bexp^0,w,c
  1579  007B38  6E12               	movwf	(___fldiv@b+3)^0,c
  1580  007B3A  EF50  F03C         	goto	l1758
  1581  007B3E                     l807:
  1582  007B3E  0012               	return		;funcret
  1583  007B40                     __end_of___fldiv:
  1584                           	callstack 0
  1585                           
  1586 ;; *************** function ___fladd *****************
  1587 ;; Defined at:
  1588 ;;		line 10 in file "D:\mplab\pic\sources\c99\common\sprcadd.c"
  1589 ;; Parameters:    Size  Location     Type
  1590 ;;  b               4   39[COMRAM] unsigned char 
  1591 ;;  a               4   43[COMRAM] unsigned char 
  1592 ;; Auto vars:     Size  Location     Type
  1593 ;;  grs             1   54[COMRAM] unsigned char 
  1594 ;;  bexp            1   53[COMRAM] unsigned char 
  1595 ;;  aexp            1   52[COMRAM] unsigned char 
  1596 ;;  signs           1   51[COMRAM] unsigned char 
  1597 ;; Return value:  Size  Location     Type
  1598 ;;                  4   39[COMRAM] unsigned char 
  1599 ;; Registers used:
  1600 ;;		wreg, status,2, status,0
  1601 ;; Tracked objects:
  1602 ;;		On entry : 0/0
  1603 ;;		On exit  : 0/0
  1604 ;;		Unchanged: 0/0
  1605 ;; Data sizes:     COMRAM   BANK0   BANK1   BANK2   BANK3   BANK4   BANK5   BANK6   BANK7
  1606 ;;      Params:         8       0       0       0       0       0       0       0       0
  1607 ;;      Locals:         4       0       0       0       0       0       0       0       0
  1608 ;;      Temps:          4       0       0       0       0       0       0       0       0
  1609 ;;      Totals:        16       0       0       0       0       0       0       0       0
  1610 ;;Total ram usage:       16 bytes
  1611 ;; Hardware stack levels used: 1
  1612 ;; This function calls:
  1613 ;;		Nothing
  1614 ;; This function is called by:
  1615 ;;		_USART_Init
  1616 ;; This function uses a non-reentrant model
  1617 ;;
  1618                           
  1619                           	psect	text6
  1620  007B40                     __ptext6:
  1621                           	callstack 0
  1622  007B40                     ___fladd:
  1623                           	callstack 29
  1624  007B40  502B               	movf	(___fladd@b+3)^0,w,c
  1625  007B42  0B80               	andlw	128
  1626  007B44  6E34               	movwf	___fladd@signs^0,c
  1627  007B46  502B               	movf	(___fladd@b+3)^0,w,c
  1628  007B48  242B               	addwf	(___fladd@b+3)^0,w,c
  1629  007B4A  6E36               	movwf	___fladd@bexp^0,c
  1630  007B4C  AE2A               	btfss	(___fladd@b+2)^0,7,c
  1631  007B4E  EFAB  F03D         	goto	u1091
  1632  007B52  EFAD  F03D         	goto	u1090
  1633  007B56                     u1091:
  1634  007B56  EFAE  F03D         	goto	l1518
  1635  007B5A                     u1090:
  1636  007B5A  8036               	bsf	___fladd@bexp^0,0,c
  1637  007B5C                     l1518:
  1638  007B5C  5036               	movf	___fladd@bexp^0,w,c
  1639  007B5E  B4D8               	btfsc	status,2,c
  1640  007B60  EFB4  F03D         	goto	u1101
  1641  007B64  EFB6  F03D         	goto	u1100
  1642  007B68                     u1101:
  1643  007B68  EFCB  F03D         	goto	l1528
  1644  007B6C                     u1100:
  1645  007B6C  2836               	incf	___fladd@bexp^0,w,c
  1646  007B6E  A4D8               	btfss	status,2,c
  1647  007B70  EFBC  F03D         	goto	u1111
  1648  007B74  EFBE  F03D         	goto	u1110
  1649  007B78                     u1111:
  1650  007B78  EFC6  F03D         	goto	l1524
  1651  007B7C                     u1110:
  1652  007B7C  0E00               	movlw	0
  1653  007B7E  6E28               	movwf	___fladd@b^0,c
  1654  007B80  0E00               	movlw	0
  1655  007B82  6E29               	movwf	(___fladd@b+1)^0,c
  1656  007B84  0E00               	movlw	0
  1657  007B86  6E2A               	movwf	(___fladd@b+2)^0,c
  1658  007B88  0E00               	movlw	0
  1659  007B8A  6E2B               	movwf	(___fladd@b+3)^0,c
  1660  007B8C                     l1524:
  1661  007B8C  8E2A               	bsf	(___fladd@b+2)^0,7,c
  1662  007B8E  0E00               	movlw	0
  1663  007B90  6E2B               	movwf	(___fladd@b+3)^0,c
  1664  007B92  EFD3  F03D         	goto	l1530
  1665  007B96                     l1528:
  1666  007B96  0E00               	movlw	0
  1667  007B98  6E28               	movwf	___fladd@b^0,c
  1668  007B9A  0E00               	movlw	0
  1669  007B9C  6E29               	movwf	(___fladd@b+1)^0,c
  1670  007B9E  0E00               	movlw	0
  1671  007BA0  6E2A               	movwf	(___fladd@b+2)^0,c
  1672  007BA2  0E00               	movlw	0
  1673  007BA4  6E2B               	movwf	(___fladd@b+3)^0,c
  1674  007BA6                     l1530:
  1675  007BA6  502F               	movf	(___fladd@a+3)^0,w,c
  1676  007BA8  0B80               	andlw	128
  1677  007BAA  6E35               	movwf	___fladd@aexp^0,c
  1678  007BAC  5034               	movf	___fladd@signs^0,w,c
  1679  007BAE  1835               	xorwf	___fladd@aexp^0,w,c
  1680  007BB0  B4D8               	btfsc	status,2,c
  1681  007BB2  EFDD  F03D         	goto	u1121
  1682  007BB6  EFDF  F03D         	goto	u1120
  1683  007BBA                     u1121:
  1684  007BBA  EFE0  F03D         	goto	l1536
  1685  007BBE                     u1120:
  1686  007BBE  8C34               	bsf	___fladd@signs^0,6,c
  1687  007BC0                     l1536:
  1688  007BC0  502F               	movf	(___fladd@a+3)^0,w,c
  1689  007BC2  242F               	addwf	(___fladd@a+3)^0,w,c
  1690  007BC4  6E35               	movwf	___fladd@aexp^0,c
  1691  007BC6  AE2E               	btfss	(___fladd@a+2)^0,7,c
  1692  007BC8  EFE8  F03D         	goto	u1131
  1693  007BCC  EFEA  F03D         	goto	u1130
  1694  007BD0                     u1131:
  1695  007BD0  EFEB  F03D         	goto	l1542
  1696  007BD4                     u1130:
  1697  007BD4  8035               	bsf	___fladd@aexp^0,0,c
  1698  007BD6                     l1542:
  1699  007BD6  5035               	movf	___fladd@aexp^0,w,c
  1700  007BD8  B4D8               	btfsc	status,2,c
  1701  007BDA  EFF1  F03D         	goto	u1141
  1702  007BDE  EFF3  F03D         	goto	u1140
  1703  007BE2                     u1141:
  1704  007BE2  EF08  F03E         	goto	l1552
  1705  007BE6                     u1140:
  1706  007BE6  2835               	incf	___fladd@aexp^0,w,c
  1707  007BE8  A4D8               	btfss	status,2,c
  1708  007BEA  EFF9  F03D         	goto	u1151
  1709  007BEE  EFFB  F03D         	goto	u1150
  1710  007BF2                     u1151:
  1711  007BF2  EF03  F03E         	goto	l1548
  1712  007BF6                     u1150:
  1713  007BF6  0E00               	movlw	0
  1714  007BF8  6E2C               	movwf	___fladd@a^0,c
  1715  007BFA  0E00               	movlw	0
  1716  007BFC  6E2D               	movwf	(___fladd@a+1)^0,c
  1717  007BFE  0E00               	movlw	0
  1718  007C00  6E2E               	movwf	(___fladd@a+2)^0,c
  1719  007C02  0E00               	movlw	0
  1720  007C04  6E2F               	movwf	(___fladd@a+3)^0,c
  1721  007C06                     l1548:
  1722  007C06  8E2E               	bsf	(___fladd@a+2)^0,7,c
  1723  007C08  0E00               	movlw	0
  1724  007C0A  6E2F               	movwf	(___fladd@a+3)^0,c
  1725  007C0C  EF10  F03E         	goto	l1554
  1726  007C10                     l1552:
  1727  007C10  0E00               	movlw	0
  1728  007C12  6E2C               	movwf	___fladd@a^0,c
  1729  007C14  0E00               	movlw	0
  1730  007C16  6E2D               	movwf	(___fladd@a+1)^0,c
  1731  007C18  0E00               	movlw	0
  1732  007C1A  6E2E               	movwf	(___fladd@a+2)^0,c
  1733  007C1C  0E00               	movlw	0
  1734  007C1E  6E2F               	movwf	(___fladd@a+3)^0,c
  1735  007C20                     l1554:
  1736  007C20  5036               	movf	___fladd@bexp^0,w,c
  1737  007C22  5C35               	subwf	___fladd@aexp^0,w,c
  1738  007C24  B0D8               	btfsc	status,0,c
  1739  007C26  EF17  F03E         	goto	u1161
  1740  007C2A  EF19  F03E         	goto	u1160
  1741  007C2E                     u1161:
  1742  007C2E  EF40  F03E         	goto	l1590
  1743  007C32                     u1160:
  1744  007C32  AC34               	btfss	___fladd@signs^0,6,c
  1745  007C34  EF1E  F03E         	goto	u1171
  1746  007C38  EF20  F03E         	goto	u1170
  1747  007C3C                     u1171:
  1748  007C3C  EF22  F03E         	goto	l1560
  1749  007C40                     u1170:
  1750  007C40  0E80               	movlw	128
  1751  007C42  1A34               	xorwf	___fladd@signs^0,f,c
  1752  007C44                     l1560:
  1753  007C44  C036  F037         	movff	___fladd@bexp,___fladd@grs
  1754  007C48  C035  F036         	movff	___fladd@aexp,___fladd@bexp
  1755  007C4C  C037  F035         	movff	___fladd@grs,___fladd@aexp
  1756  007C50  C028  F037         	movff	___fladd@b,___fladd@grs
  1757  007C54  C02C  F028         	movff	___fladd@a,___fladd@b
  1758  007C58  C037  F02C         	movff	___fladd@grs,___fladd@a
  1759  007C5C  C029  F037         	movff	___fladd@b+1,___fladd@grs
  1760  007C60  C02D  F029         	movff	___fladd@a+1,___fladd@b+1
  1761  007C64  C037  F02D         	movff	___fladd@grs,___fladd@a+1
  1762  007C68  C02A  F037         	movff	___fladd@b+2,___fladd@grs
  1763  007C6C  C02E  F02A         	movff	___fladd@a+2,___fladd@b+2
  1764  007C70  C037  F02E         	movff	___fladd@grs,___fladd@a+2
  1765  007C74  C02B  F037         	movff	___fladd@b+3,___fladd@grs
  1766  007C78  C02F  F02B         	movff	___fladd@a+3,___fladd@b+3
  1767  007C7C  C037  F02F         	movff	___fladd@grs,___fladd@a+3
  1768  007C80                     l1590:
  1769  007C80  0E00               	movlw	0
  1770  007C82  6E37               	movwf	___fladd@grs^0,c
  1771  007C84  5036               	movf	___fladd@bexp^0,w,c
  1772  007C86  C035  F030         	movff	___fladd@aexp,??___fladd
  1773  007C8A  6A31               	clrf	(??___fladd+1)^0,c
  1774  007C8C  5E30               	subwf	??___fladd^0,f,c
  1775  007C8E  0E00               	movlw	0
  1776  007C90  5A31               	subwfb	(??___fladd+1)^0,f,c
  1777  007C92  BE31               	btfsc	(??___fladd+1)^0,7,c
  1778  007C94  EF55  F03E         	goto	u1181
  1779  007C98  5031               	movf	(??___fladd+1)^0,w,c
  1780  007C9A  E109               	bnz	u1180
  1781  007C9C  0E1A               	movlw	26
  1782  007C9E  5C30               	subwf	??___fladd^0,w,c
  1783  007CA0  A0D8               	btfss	status,0,c
  1784  007CA2  EF55  F03E         	goto	u1181
  1785  007CA6  EF57  F03E         	goto	u1180
  1786  007CAA                     u1181:
  1787  007CAA  EF8E  F03E         	goto	l754
  1788  007CAE                     u1180:
  1789  007CAE  5028               	movf	___fladd@b^0,w,c
  1790  007CB0  1029               	iorwf	(___fladd@b+1)^0,w,c
  1791  007CB2  102A               	iorwf	(___fladd@b+2)^0,w,c
  1792  007CB4  102B               	iorwf	(___fladd@b+3)^0,w,c
  1793  007CB6  A4D8               	btfss	status,2,c
  1794  007CB8  EF60  F03E         	goto	u1191
  1795  007CBC  EF63  F03E         	goto	u1190
  1796  007CC0                     u1191:
  1797  007CC0  0E01               	movlw	1
  1798  007CC2  EF64  F03E         	goto	u1200
  1799  007CC6                     u1190:
  1800  007CC6  0E00               	movlw	0
  1801  007CC8                     u1200:
  1802  007CC8  6E37               	movwf	___fladd@grs^0,c
  1803  007CCA  0E00               	movlw	0
  1804  007CCC  6E28               	movwf	___fladd@b^0,c
  1805  007CCE  0E00               	movlw	0
  1806  007CD0  6E29               	movwf	(___fladd@b+1)^0,c
  1807  007CD2  0E00               	movlw	0
  1808  007CD4  6E2A               	movwf	(___fladd@b+2)^0,c
  1809  007CD6  0E00               	movlw	0
  1810  007CD8  6E2B               	movwf	(___fladd@b+3)^0,c
  1811  007CDA  C035  F036         	movff	___fladd@aexp,___fladd@bexp
  1812  007CDE  EF97  F03E         	goto	l753
  1813  007CE2                     l755:
  1814  007CE2  A037               	btfss	___fladd@grs^0,0,c
  1815  007CE4  EF76  F03E         	goto	u1211
  1816  007CE8  EF78  F03E         	goto	u1210
  1817  007CEC                     u1211:
  1818  007CEC  EF7E  F03E         	goto	l1602
  1819  007CF0                     u1210:
  1820  007CF0  90D8               	bcf	status,0,c
  1821  007CF2  3037               	rrcf	___fladd@grs^0,w,c
  1822  007CF4  0901               	iorlw	1
  1823  007CF6  6E37               	movwf	___fladd@grs^0,c
  1824  007CF8  EF80  F03E         	goto	l1604
  1825  007CFC                     l1602:
  1826  007CFC  90D8               	bcf	status,0,c
  1827  007CFE  3237               	rrcf	___fladd@grs^0,f,c
  1828  007D00                     l1604:
  1829  007D00  A028               	btfss	___fladd@b^0,0,c
  1830  007D02  EF85  F03E         	goto	u1221
  1831  007D06  EF87  F03E         	goto	u1220
  1832  007D0A                     u1221:
  1833  007D0A  EF88  F03E         	goto	l1608
  1834  007D0E                     u1220:
  1835  007D0E  8E37               	bsf	___fladd@grs^0,7,c
  1836  007D10                     l1608:
  1837  007D10  342B               	rlcf	(___fladd@b+3)^0,w,c
  1838  007D12  322B               	rrcf	(___fladd@b+3)^0,f,c
  1839  007D14  322A               	rrcf	(___fladd@b+2)^0,f,c
  1840  007D16  3229               	rrcf	(___fladd@b+1)^0,f,c
  1841  007D18  3228               	rrcf	___fladd@b^0,f,c
  1842  007D1A  2A36               	incf	___fladd@bexp^0,f,c
  1843  007D1C                     l754:
  1844  007D1C  5035               	movf	___fladd@aexp^0,w,c
  1845  007D1E  5C36               	subwf	___fladd@bexp^0,w,c
  1846  007D20  A0D8               	btfss	status,0,c
  1847  007D22  EF95  F03E         	goto	u1231
  1848  007D26  EF97  F03E         	goto	u1230
  1849  007D2A                     u1231:
  1850  007D2A  EF71  F03E         	goto	l755
  1851  007D2E                     u1230:
  1852  007D2E                     l753:
  1853  007D2E  BC34               	btfsc	___fladd@signs^0,6,c
  1854  007D30  EF9C  F03E         	goto	u1241
  1855  007D34  EF9E  F03E         	goto	u1240
  1856  007D38                     u1241:
  1857  007D38  EFDE  F03E         	goto	l1636
  1858  007D3C                     u1240:
  1859  007D3C  5036               	movf	___fladd@bexp^0,w,c
  1860  007D3E  A4D8               	btfss	status,2,c
  1861  007D40  EFA4  F03E         	goto	u1251
  1862  007D44  EFA6  F03E         	goto	u1250
  1863  007D48                     u1251:
  1864  007D48  EFB0  F03E         	goto	l1618
  1865  007D4C                     u1250:
  1866  007D4C  0E00               	movlw	0
  1867  007D4E  6E28               	movwf	?___fladd^0,c
  1868  007D50  0E00               	movlw	0
  1869  007D52  6E29               	movwf	(?___fladd+1)^0,c
  1870  007D54  0E00               	movlw	0
  1871  007D56  6E2A               	movwf	(?___fladd+2)^0,c
  1872  007D58  0E00               	movlw	0
  1873  007D5A  6E2B               	movwf	(?___fladd+3)^0,c
  1874  007D5C  EFFF  F03F         	goto	l762
  1875  007D60                     l1618:
  1876  007D60  502C               	movf	___fladd@a^0,w,c
  1877  007D62  2628               	addwf	___fladd@b^0,f,c
  1878  007D64  502D               	movf	(___fladd@a+1)^0,w,c
  1879  007D66  2229               	addwfc	(___fladd@b+1)^0,f,c
  1880  007D68  502E               	movf	(___fladd@a+2)^0,w,c
  1881  007D6A  222A               	addwfc	(___fladd@b+2)^0,f,c
  1882  007D6C  502F               	movf	(___fladd@a+3)^0,w,c
  1883  007D6E  222B               	addwfc	(___fladd@b+3)^0,f,c
  1884  007D70  A02B               	btfss	(___fladd@b+3)^0,0,c
  1885  007D72  EFBD  F03E         	goto	u1261
  1886  007D76  EFBF  F03E         	goto	u1260
  1887  007D7A                     u1261:
  1888  007D7A  EF6B  F03F         	goto	l1672
  1889  007D7E                     u1260:
  1890  007D7E  A037               	btfss	___fladd@grs^0,0,c
  1891  007D80  EFC4  F03E         	goto	u1271
  1892  007D84  EFC6  F03E         	goto	u1270
  1893  007D88                     u1271:
  1894  007D88  EFCC  F03E         	goto	l1626
  1895  007D8C                     u1270:
  1896  007D8C  90D8               	bcf	status,0,c
  1897  007D8E  3037               	rrcf	___fladd@grs^0,w,c
  1898  007D90  0901               	iorlw	1
  1899  007D92  6E37               	movwf	___fladd@grs^0,c
  1900  007D94  EFCE  F03E         	goto	l1628
  1901  007D98                     l1626:
  1902  007D98  90D8               	bcf	status,0,c
  1903  007D9A  3237               	rrcf	___fladd@grs^0,f,c
  1904  007D9C                     l1628:
  1905  007D9C  A028               	btfss	___fladd@b^0,0,c
  1906  007D9E  EFD3  F03E         	goto	u1281
  1907  007DA2  EFD5  F03E         	goto	u1280
  1908  007DA6                     u1281:
  1909  007DA6  EFD6  F03E         	goto	l1632
  1910  007DAA                     u1280:
  1911  007DAA  8E37               	bsf	___fladd@grs^0,7,c
  1912  007DAC                     l1632:
  1913  007DAC  342B               	rlcf	(___fladd@b+3)^0,w,c
  1914  007DAE  322B               	rrcf	(___fladd@b+3)^0,f,c
  1915  007DB0  322A               	rrcf	(___fladd@b+2)^0,f,c
  1916  007DB2  3229               	rrcf	(___fladd@b+1)^0,f,c
  1917  007DB4  3228               	rrcf	___fladd@b^0,f,c
  1918  007DB6  2A36               	incf	___fladd@bexp^0,f,c
  1919  007DB8  EF6B  F03F         	goto	l1672
  1920  007DBC                     l1636:
  1921  007DBC  502C               	movf	___fladd@a^0,w,c
  1922  007DBE  5C28               	subwf	___fladd@b^0,w,c
  1923  007DC0  502D               	movf	(___fladd@a+1)^0,w,c
  1924  007DC2  5829               	subwfb	(___fladd@b+1)^0,w,c
  1925  007DC4  502E               	movf	(___fladd@a+2)^0,w,c
  1926  007DC6  582A               	subwfb	(___fladd@b+2)^0,w,c
  1927  007DC8  502B               	movf	(___fladd@b+3)^0,w,c
  1928  007DCA  0A80               	xorlw	128
  1929  007DCC  6E30               	movwf	??___fladd^0,c
  1930  007DCE  502F               	movf	(___fladd@a+3)^0,w,c
  1931  007DD0  0A80               	xorlw	128
  1932  007DD2  5830               	subwfb	??___fladd^0,w,c
  1933  007DD4  B0D8               	btfsc	status,0,c
  1934  007DD6  EFEF  F03E         	goto	u1291
  1935  007DDA  EFF1  F03E         	goto	u1290
  1936  007DDE                     u1291:
  1937  007DDE  EF1C  F03F         	goto	l1646
  1938  007DE2                     u1290:
  1939  007DE2  5028               	movf	___fladd@b^0,w,c
  1940  007DE4  5C2C               	subwf	___fladd@a^0,w,c
  1941  007DE6  6E30               	movwf	??___fladd^0,c
  1942  007DE8  5029               	movf	(___fladd@b+1)^0,w,c
  1943  007DEA  582D               	subwfb	(___fladd@a+1)^0,w,c
  1944  007DEC  6E31               	movwf	(??___fladd+1)^0,c
  1945  007DEE  502A               	movf	(___fladd@b+2)^0,w,c
  1946  007DF0  582E               	subwfb	(___fladd@a+2)^0,w,c
  1947  007DF2  6E32               	movwf	(??___fladd+2)^0,c
  1948  007DF4  502B               	movf	(___fladd@b+3)^0,w,c
  1949  007DF6  582F               	subwfb	(___fladd@a+3)^0,w,c
  1950  007DF8  6E33               	movwf	(??___fladd+3)^0,c
  1951  007DFA  0EFF               	movlw	255
  1952  007DFC  2430               	addwf	??___fladd^0,w,c
  1953  007DFE  6E28               	movwf	___fladd@b^0,c
  1954  007E00  0EFF               	movlw	255
  1955  007E02  2031               	addwfc	(??___fladd+1)^0,w,c
  1956  007E04  6E29               	movwf	(___fladd@b+1)^0,c
  1957  007E06  0EFF               	movlw	255
  1958  007E08  2032               	addwfc	(??___fladd+2)^0,w,c
  1959  007E0A  6E2A               	movwf	(___fladd@b+2)^0,c
  1960  007E0C  0EFF               	movlw	255
  1961  007E0E  2033               	addwfc	(??___fladd+3)^0,w,c
  1962  007E10  6E2B               	movwf	(___fladd@b+3)^0,c
  1963  007E12  0E80               	movlw	128
  1964  007E14  1A34               	xorwf	___fladd@signs^0,f,c
  1965  007E16  6C37               	negf	___fladd@grs^0,c
  1966  007E18  5037               	movf	___fladd@grs^0,w,c
  1967  007E1A  A4D8               	btfss	status,2,c
  1968  007E1C  EF12  F03F         	goto	u1301
  1969  007E20  EF14  F03F         	goto	u1300
  1970  007E24                     u1301:
  1971  007E24  EF24  F03F         	goto	l770
  1972  007E28                     u1300:
  1973  007E28  0E01               	movlw	1
  1974  007E2A  2628               	addwf	___fladd@b^0,f,c
  1975  007E2C  0E00               	movlw	0
  1976  007E2E  2229               	addwfc	(___fladd@b+1)^0,f,c
  1977  007E30  222A               	addwfc	(___fladd@b+2)^0,f,c
  1978  007E32  222B               	addwfc	(___fladd@b+3)^0,f,c
  1979  007E34  EF24  F03F         	goto	l770
  1980  007E38                     l1646:
  1981  007E38  502C               	movf	___fladd@a^0,w,c
  1982  007E3A  5E28               	subwf	___fladd@b^0,f,c
  1983  007E3C  502D               	movf	(___fladd@a+1)^0,w,c
  1984  007E3E  5A29               	subwfb	(___fladd@b+1)^0,f,c
  1985  007E40  502E               	movf	(___fladd@a+2)^0,w,c
  1986  007E42  5A2A               	subwfb	(___fladd@b+2)^0,f,c
  1987  007E44  502F               	movf	(___fladd@a+3)^0,w,c
  1988  007E46  5A2B               	subwfb	(___fladd@b+3)^0,f,c
  1989  007E48                     l770:
  1990  007E48  5028               	movf	___fladd@b^0,w,c
  1991  007E4A  1029               	iorwf	(___fladd@b+1)^0,w,c
  1992  007E4C  102A               	iorwf	(___fladd@b+2)^0,w,c
  1993  007E4E  102B               	iorwf	(___fladd@b+3)^0,w,c
  1994  007E50  A4D8               	btfss	status,2,c
  1995  007E52  EF2D  F03F         	goto	u1311
  1996  007E56  EF2F  F03F         	goto	u1310
  1997  007E5A                     u1311:
  1998  007E5A  EF64  F03F         	goto	l1670
  1999  007E5E                     u1310:
  2000  007E5E  5037               	movf	___fladd@grs^0,w,c
  2001  007E60  A4D8               	btfss	status,2,c
  2002  007E62  EF35  F03F         	goto	u1321
  2003  007E66  EF37  F03F         	goto	u1320
  2004  007E6A                     u1321:
  2005  007E6A  EF64  F03F         	goto	l1670
  2006  007E6E                     u1320:
  2007  007E6E  0E00               	movlw	0
  2008  007E70  6E28               	movwf	?___fladd^0,c
  2009  007E72  0E00               	movlw	0
  2010  007E74  6E29               	movwf	(?___fladd+1)^0,c
  2011  007E76  0E00               	movlw	0
  2012  007E78  6E2A               	movwf	(?___fladd+2)^0,c
  2013  007E7A  0E00               	movlw	0
  2014  007E7C  6E2B               	movwf	(?___fladd+3)^0,c
  2015  007E7E  EFFF  F03F         	goto	l762
  2016  007E82                     l1654:
  2017  007E82  90D8               	bcf	status,0,c
  2018  007E84  3628               	rlcf	___fladd@b^0,f,c
  2019  007E86  3629               	rlcf	(___fladd@b+1)^0,f,c
  2020  007E88  362A               	rlcf	(___fladd@b+2)^0,f,c
  2021  007E8A  362B               	rlcf	(___fladd@b+3)^0,f,c
  2022  007E8C  AE37               	btfss	___fladd@grs^0,7,c
  2023  007E8E  EF4B  F03F         	goto	u1331
  2024  007E92  EF4D  F03F         	goto	u1330
  2025  007E96                     u1331:
  2026  007E96  EF4E  F03F         	goto	l1660
  2027  007E9A                     u1330:
  2028  007E9A  8028               	bsf	___fladd@b^0,0,c
  2029  007E9C                     l1660:
  2030  007E9C  A037               	btfss	___fladd@grs^0,0,c
  2031  007E9E  EF53  F03F         	goto	u1341
  2032  007EA2  EF55  F03F         	goto	u1340
  2033  007EA6                     u1341:
  2034  007EA6  EF59  F03F         	goto	l1664
  2035  007EAA                     u1340:
  2036  007EAA  80D8               	bsf	status,0,c
  2037  007EAC  3637               	rlcf	___fladd@grs^0,f,c
  2038  007EAE  EF5B  F03F         	goto	l1666
  2039  007EB2                     l1664:
  2040  007EB2  90D8               	bcf	status,0,c
  2041  007EB4  3637               	rlcf	___fladd@grs^0,f,c
  2042  007EB6                     l1666:
  2043  007EB6  5036               	movf	___fladd@bexp^0,w,c
  2044  007EB8  B4D8               	btfsc	status,2,c
  2045  007EBA  EF61  F03F         	goto	u1351
  2046  007EBE  EF63  F03F         	goto	u1350
  2047  007EC2                     u1351:
  2048  007EC2  EF64  F03F         	goto	l1670
  2049  007EC6                     u1350:
  2050  007EC6  0636               	decf	___fladd@bexp^0,f,c
  2051  007EC8                     l1670:
  2052  007EC8  AE2A               	btfss	(___fladd@b+2)^0,7,c
  2053  007ECA  EF69  F03F         	goto	u1361
  2054  007ECE  EF6B  F03F         	goto	u1360
  2055  007ED2                     u1361:
  2056  007ED2  EF41  F03F         	goto	l1654
  2057  007ED6                     u1360:
  2058  007ED6                     l1672:
  2059  007ED6  0E00               	movlw	0
  2060  007ED8  6E35               	movwf	___fladd@aexp^0,c
  2061  007EDA  AE37               	btfss	___fladd@grs^0,7,c
  2062  007EDC  EF72  F03F         	goto	u1371
  2063  007EE0  EF74  F03F         	goto	u1370
  2064  007EE4                     u1371:
  2065  007EE4  EF8C  F03F         	goto	l779
  2066  007EE8                     u1370:
  2067  007EE8  C037  F030         	movff	___fladd@grs,??___fladd
  2068  007EEC  0E7F               	movlw	127
  2069  007EEE  1630               	andwf	??___fladd^0,f,c
  2070  007EF0  B4D8               	btfsc	status,2,c
  2071  007EF2  EF7D  F03F         	goto	u1381
  2072  007EF6  EF7F  F03F         	goto	u1380
  2073  007EFA                     u1381:
  2074  007EFA  EF83  F03F         	goto	l780
  2075  007EFE                     u1380:
  2076  007EFE                     l1678:
  2077  007EFE  0E01               	movlw	1
  2078  007F00  6E35               	movwf	___fladd@aexp^0,c
  2079  007F02  EF8C  F03F         	goto	l779
  2080  007F06                     l780:
  2081  007F06  A028               	btfss	___fladd@b^0,0,c
  2082  007F08  EF88  F03F         	goto	u1391
  2083  007F0C  EF8A  F03F         	goto	u1390
  2084  007F10                     u1391:
  2085  007F10  EF8C  F03F         	goto	l779
  2086  007F14                     u1390:
  2087  007F14  EF7F  F03F         	goto	l1678
  2088  007F18                     l779:
  2089  007F18  5035               	movf	___fladd@aexp^0,w,c
  2090  007F1A  B4D8               	btfsc	status,2,c
  2091  007F1C  EF92  F03F         	goto	u1401
  2092  007F20  EF94  F03F         	goto	u1400
  2093  007F24                     u1401:
  2094  007F24  EFBF  F03F         	goto	l1690
  2095  007F28                     u1400:
  2096  007F28  0E01               	movlw	1
  2097  007F2A  2628               	addwf	___fladd@b^0,f,c
  2098  007F2C  0E00               	movlw	0
  2099  007F2E  2229               	addwfc	(___fladd@b+1)^0,f,c
  2100  007F30  222A               	addwfc	(___fladd@b+2)^0,f,c
  2101  007F32  222B               	addwfc	(___fladd@b+3)^0,f,c
  2102  007F34  A02B               	btfss	(___fladd@b+3)^0,0,c
  2103  007F36  EF9F  F03F         	goto	u1411
  2104  007F3A  EFA1  F03F         	goto	u1410
  2105  007F3E                     u1411:
  2106  007F3E  EFBF  F03F         	goto	l1690
  2107  007F42                     u1410:
  2108  007F42  C028  F030         	movff	___fladd@b,??___fladd
  2109  007F46  C029  F031         	movff	___fladd@b+1,??___fladd+1
  2110  007F4A  C02A  F032         	movff	___fladd@b+2,??___fladd+2
  2111  007F4E  C02B  F033         	movff	___fladd@b+3,??___fladd+3
  2112  007F52  3433               	rlcf	(??___fladd+3)^0,w,c
  2113  007F54  3233               	rrcf	(??___fladd+3)^0,f,c
  2114  007F56  3232               	rrcf	(??___fladd+2)^0,f,c
  2115  007F58  3231               	rrcf	(??___fladd+1)^0,f,c
  2116  007F5A  3230               	rrcf	??___fladd^0,f,c
  2117  007F5C  C030  F028         	movff	??___fladd,___fladd@b
  2118  007F60  C031  F029         	movff	??___fladd+1,___fladd@b+1
  2119  007F64  C032  F02A         	movff	??___fladd+2,___fladd@b+2
  2120  007F68  C033  F02B         	movff	??___fladd+3,___fladd@b+3
  2121  007F6C  2836               	incf	___fladd@bexp^0,w,c
  2122  007F6E  B4D8               	btfsc	status,2,c
  2123  007F70  EFBC  F03F         	goto	u1421
  2124  007F74  EFBE  F03F         	goto	u1420
  2125  007F78                     u1421:
  2126  007F78  EFBF  F03F         	goto	l1690
  2127  007F7C                     u1420:
  2128  007F7C  2A36               	incf	___fladd@bexp^0,f,c
  2129  007F7E                     l1690:
  2130  007F7E  2836               	incf	___fladd@bexp^0,w,c
  2131  007F80  B4D8               	btfsc	status,2,c
  2132  007F82  EFC5  F03F         	goto	u1431
  2133  007F86  EFC7  F03F         	goto	u1430
  2134  007F8A                     u1431:
  2135  007F8A  EFCF  F03F         	goto	l1694
  2136  007F8E                     u1430:
  2137  007F8E  5036               	movf	___fladd@bexp^0,w,c
  2138  007F90  A4D8               	btfss	status,2,c
  2139  007F92  EFCD  F03F         	goto	u1441
  2140  007F96  EFCF  F03F         	goto	u1440
  2141  007F9A                     u1441:
  2142  007F9A  EFE1  F03F         	goto	l1698
  2143  007F9E                     u1440:
  2144  007F9E                     l1694:
  2145  007F9E  0E00               	movlw	0
  2146  007FA0  6E28               	movwf	___fladd@b^0,c
  2147  007FA2  0E00               	movlw	0
  2148  007FA4  6E29               	movwf	(___fladd@b+1)^0,c
  2149  007FA6  0E00               	movlw	0
  2150  007FA8  6E2A               	movwf	(___fladd@b+2)^0,c
  2151  007FAA  0E00               	movlw	0
  2152  007FAC  6E2B               	movwf	(___fladd@b+3)^0,c
  2153  007FAE  5036               	movf	___fladd@bexp^0,w,c
  2154  007FB0  A4D8               	btfss	status,2,c
  2155  007FB2  EFDD  F03F         	goto	u1451
  2156  007FB6  EFDF  F03F         	goto	u1450
  2157  007FBA                     u1451:
  2158  007FBA  EFE1  F03F         	goto	l1698
  2159  007FBE                     u1450:
  2160  007FBE  0E00               	movlw	0
  2161  007FC0  6E34               	movwf	___fladd@signs^0,c
  2162  007FC2                     l1698:
  2163  007FC2  A036               	btfss	___fladd@bexp^0,0,c
  2164  007FC4  EFE6  F03F         	goto	u1461
  2165  007FC8  EFE8  F03F         	goto	u1460
  2166  007FCC                     u1461:
  2167  007FCC  EFEB  F03F         	goto	l1702
  2168  007FD0                     u1460:
  2169  007FD0  8E2A               	bsf	(___fladd@b+2)^0,7,c
  2170  007FD2  EFEC  F03F         	goto	l1704
  2171  007FD6                     l1702:
  2172  007FD6  9E2A               	bcf	(___fladd@b+2)^0,7,c
  2173  007FD8                     l1704:
  2174  007FD8  90D8               	bcf	status,0,c
  2175  007FDA  3036               	rrcf	___fladd@bexp^0,w,c
  2176  007FDC  6E2B               	movwf	(___fladd@b+3)^0,c
  2177  007FDE  AE34               	btfss	___fladd@signs^0,7,c
  2178  007FE0  EFF4  F03F         	goto	u1471
  2179  007FE4  EFF6  F03F         	goto	u1470
  2180  007FE8                     u1471:
  2181  007FE8  EFF7  F03F         	goto	l1710
  2182  007FEC                     u1470:
  2183  007FEC  8E2B               	bsf	(___fladd@b+3)^0,7,c
  2184  007FEE                     l1710:
  2185  007FEE  C028  F028         	movff	___fladd@b,?___fladd
  2186  007FF2  C029  F029         	movff	___fladd@b+1,?___fladd+1
  2187  007FF6  C02A  F02A         	movff	___fladd@b+2,?___fladd+2
  2188  007FFA  C02B  F02B         	movff	___fladd@b+3,?___fladd+3
  2189  007FFE                     l762:
  2190  007FFE  0012               	return		;funcret
  2191  008000                     __end_of___fladd:
  2192                           	callstack 0
  2193                           
  2194 ;; *************** function _RTC_Read_Hour *****************
  2195 ;; Defined at:
  2196 ;;		line 15 in file "RTC.c"
  2197 ;; Parameters:    Size  Location     Type
  2198 ;;  read_clock_a    1    wreg     unsigned char 
  2199 ;; Auto vars:     Size  Location     Type
  2200 ;;  read_clock_a    1    7[COMRAM] unsigned char 
  2201 ;;  hour            2    5[COMRAM] int 
  2202 ;;  min             2    0        int 
  2203 ;;  sec             2    0        int 
  2204 ;; Return value:  Size  Location     Type
  2205 ;;                  2    2[COMRAM] int 
  2206 ;; Registers used:
  2207 ;;		wreg, status,2, status,0, cstack
  2208 ;; Tracked objects:
  2209 ;;		On entry : 0/0
  2210 ;;		On exit  : 0/0
  2211 ;;		Unchanged: 0/0
  2212 ;; Data sizes:     COMRAM   BANK0   BANK1   BANK2   BANK3   BANK4   BANK5   BANK6   BANK7
  2213 ;;      Params:         2       0       0       0       0       0       0       0       0
  2214 ;;      Locals:         3       0       0       0       0       0       0       0       0
  2215 ;;      Temps:          1       0       0       0       0       0       0       0       0
  2216 ;;      Totals:         6       0       0       0       0       0       0       0       0
  2217 ;;Total ram usage:        6 bytes
  2218 ;; Hardware stack levels used: 1
  2219 ;; Hardware stack levels required when called: 3
  2220 ;; This function calls:
  2221 ;;		_I2C_Read
  2222 ;;		_I2C_Repeated_Start
  2223 ;;		_I2C_Start
  2224 ;;		_I2C_Write
  2225 ;; This function is called by:
  2226 ;;		_main
  2227 ;; This function uses a non-reentrant model
  2228 ;;
  2229                           
  2230                           	psect	text7
  2231  00724E                     __ptext7:
  2232                           	callstack 0
  2233  00724E                     _RTC_Read_Hour:
  2234                           	callstack 27
  2235                           
  2236                           ;incstack = 0
  2237                           ;RTC_Read_Hour@read_clock_address stored from wreg
  2238  00724E  6E08               	movwf	RTC_Read_Hour@read_clock_address^0,c
  2239  007250                     
  2240                           ;RTC.c: 15: int RTC_Read_Hour(char read_clock_address);RTC.c: 16: {;RTC.c: 17:     int s
      +                          ec,min,hour;;RTC.c: 18:     I2C_Start(0xD0);
  2241  007250  0ED0               	movlw	208
  2242  007252  EC10  F039         	call	_I2C_Start
  2243                           
  2244                           ;RTC.c: 19:     I2C_Write(read_clock_address);
  2245  007256  5008               	movf	RTC_Read_Hour@read_clock_address^0,w,c
  2246  007258  ECE8  F038         	call	_I2C_Write
  2247                           
  2248                           ;RTC.c: 20:     I2C_Repeated_Start(0xD1);
  2249  00725C  0ED1               	movlw	209
  2250  00725E  ECF9  F038         	call	_I2C_Repeated_Start
  2251  007262  0E00               	movlw	0
  2252  007264  EC43  F039         	call	_I2C_Read
  2253  007268  0E00               	movlw	0
  2254  00726A  EC43  F039         	call	_I2C_Read
  2255  00726E                     
  2256                           ;RTC.c: 23:     hour= I2C_Read(1);
  2257  00726E  0E01               	movlw	1
  2258  007270  EC43  F039         	call	_I2C_Read
  2259  007274  6E05               	movwf	??_RTC_Read_Hour^0,c
  2260  007276  5005               	movf	??_RTC_Read_Hour^0,w,c
  2261  007278  6E06               	movwf	RTC_Read_Hour@hour^0,c
  2262  00727A  6A07               	clrf	(RTC_Read_Hour@hour+1)^0,c
  2263  00727C                     
  2264                           ;RTC.c: 24:     return hour;
  2265  00727C  C006  F003         	movff	RTC_Read_Hour@hour,?_RTC_Read_Hour
  2266  007280  C007  F004         	movff	RTC_Read_Hour@hour+1,?_RTC_Read_Hour+1
  2267  007284  0012               	return		;funcret
  2268  007286                     __end_of_RTC_Read_Hour:
  2269                           	callstack 0
  2270                           
  2271 ;; *************** function _I2C_Start *****************
  2272 ;; Defined at:
  2273 ;;		line 68 in file "PIC18F4550_I2C_Source_File.c"
  2274 ;; Parameters:    Size  Location     Type
  2275 ;;  slave_write_    1    wreg     unsigned char 
  2276 ;; Auto vars:     Size  Location     Type
  2277 ;;  slave_write_    1    1[COMRAM] unsigned char 
  2278 ;; Return value:  Size  Location     Type
  2279 ;;                  1    wreg      unsigned char 
  2280 ;; Registers used:
  2281 ;;		wreg, status,2, cstack
  2282 ;; Tracked objects:
  2283 ;;		On entry : 0/0
  2284 ;;		On exit  : 0/0
  2285 ;;		Unchanged: 0/0
  2286 ;; Data sizes:     COMRAM   BANK0   BANK1   BANK2   BANK3   BANK4   BANK5   BANK6   BANK7
  2287 ;;      Params:         0       0       0       0       0       0       0       0       0
  2288 ;;      Locals:         1       0       0       0       0       0       0       0       0
  2289 ;;      Temps:          0       0       0       0       0       0       0       0       0
  2290 ;;      Totals:         1       0       0       0       0       0       0       0       0
  2291 ;;Total ram usage:        1 bytes
  2292 ;; Hardware stack levels used: 1
  2293 ;; Hardware stack levels required when called: 2
  2294 ;; This function calls:
  2295 ;;		_I2C_Write
  2296 ;; This function is called by:
  2297 ;;		_RTC_Read_Hour
  2298 ;;		_RTC_Read_Clock
  2299 ;;		_RTC_Read_Calendar
  2300 ;; This function uses a non-reentrant model
  2301 ;;
  2302                           
  2303                           	psect	text8
  2304  007220                     __ptext8:
  2305                           	callstack 0
  2306  007220                     _I2C_Start:
  2307                           	callstack 27
  2308                           
  2309                           ;incstack = 0
  2310                           ;I2C_Start@slave_write_address stored from wreg
  2311  007220  6E02               	movwf	I2C_Start@slave_write_address^0,c
  2312  007222                     
  2313                           ;PIC18F4550_I2C_Source_File.c: 68: char I2C_Start(char slave_write_address);PIC18F4550_I
      +                          2C_Source_File.c: 69: {;PIC18F4550_I2C_Source_File.c: 70:     SSPCON2bits.SEN=1;
  2314  007222  80C5               	bsf	197,0,c	;volatile
  2315  007224                     l119:
  2316  007224  B0C5               	btfsc	197,0,c	;volatile
  2317  007226  EF17  F039         	goto	u71
  2318  00722A  EF19  F039         	goto	u70
  2319  00722E                     u71:
  2320  00722E  EF12  F039         	goto	l119
  2321  007232                     u70:
  2322  007232                     
  2323                           ;PIC18F4550_I2C_Source_File.c: 72:  SSPIF=0;
  2324  007232  969E               	bcf	3998,3,c	;volatile
  2325                           
  2326                           ;PIC18F4550_I2C_Source_File.c: 73:     if(!SSPSTATbits.S)
  2327  007234  B6C7               	btfsc	199,3,c	;volatile
  2328  007236  EF1F  F039         	goto	u81
  2329  00723A  EF21  F039         	goto	u80
  2330  00723E                     u81:
  2331  00723E  EF23  F039         	goto	l936
  2332  007242                     u80:
  2333  007242  EF26  F039         	goto	l123
  2334  007246                     l936:
  2335                           
  2336                           ;PIC18F4550_I2C_Source_File.c: 75:     return (I2C_Write(slave_write_address));;	Return 
      +                          value of _I2C_Start is never used
  2337  007246  5002               	movf	I2C_Start@slave_write_address^0,w,c
  2338  007248  ECE8  F038         	call	_I2C_Write
  2339  00724C                     l123:
  2340  00724C  0012               	return		;funcret
  2341  00724E                     __end_of_I2C_Start:
  2342                           	callstack 0
  2343                           
  2344 ;; *************** function _I2C_Repeated_Start *****************
  2345 ;; Defined at:
  2346 ;;		line 79 in file "PIC18F4550_I2C_Source_File.c"
  2347 ;; Parameters:    Size  Location     Type
  2348 ;;  slave_read_a    1    wreg     unsigned char 
  2349 ;; Auto vars:     Size  Location     Type
  2350 ;;  slave_read_a    1    1[COMRAM] unsigned char 
  2351 ;; Return value:  Size  Location     Type
  2352 ;;                  1    wreg      unsigned char 
  2353 ;; Registers used:
  2354 ;;		wreg, status,2, cstack
  2355 ;; Tracked objects:
  2356 ;;		On entry : 0/0
  2357 ;;		On exit  : 0/0
  2358 ;;		Unchanged: 0/0
  2359 ;; Data sizes:     COMRAM   BANK0   BANK1   BANK2   BANK3   BANK4   BANK5   BANK6   BANK7
  2360 ;;      Params:         0       0       0       0       0       0       0       0       0
  2361 ;;      Locals:         1       0       0       0       0       0       0       0       0
  2362 ;;      Temps:          0       0       0       0       0       0       0       0       0
  2363 ;;      Totals:         1       0       0       0       0       0       0       0       0
  2364 ;;Total ram usage:        1 bytes
  2365 ;; Hardware stack levels used: 1
  2366 ;; Hardware stack levels required when called: 2
  2367 ;; This function calls:
  2368 ;;		_I2C_Write
  2369 ;; This function is called by:
  2370 ;;		_RTC_Read_Hour
  2371 ;;		_RTC_Read_Clock
  2372 ;;		_RTC_Read_Calendar
  2373 ;; This function uses a non-reentrant model
  2374 ;;
  2375                           
  2376                           	psect	text9
  2377  0071F2                     __ptext9:
  2378                           	callstack 0
  2379  0071F2                     _I2C_Repeated_Start:
  2380                           	callstack 27
  2381                           
  2382                           ;incstack = 0
  2383                           ;I2C_Repeated_Start@slave_read_address stored from wreg
  2384  0071F2  6E02               	movwf	I2C_Repeated_Start@slave_read_address^0,c
  2385  0071F4                     
  2386                           ;PIC18F4550_I2C_Source_File.c: 79: char I2C_Repeated_Start(char slave_read_address);PIC1
      +                          8F4550_I2C_Source_File.c: 80: {;PIC18F4550_I2C_Source_File.c: 81:     RSEN = 1;
  2387  0071F4  82C5               	bsf	4037,1,c	;volatile
  2388  0071F6                     l126:
  2389  0071F6  B2C5               	btfsc	4037,1,c	;volatile
  2390  0071F8  EF00  F039         	goto	u91
  2391  0071FC  EF02  F039         	goto	u90
  2392  007200                     u91:
  2393  007200  EFFB  F038         	goto	l126
  2394  007204                     u90:
  2395  007204                     
  2396                           ;PIC18F4550_I2C_Source_File.c: 83:     SSPIF = 0;
  2397  007204  969E               	bcf	3998,3,c	;volatile
  2398                           
  2399                           ;PIC18F4550_I2C_Source_File.c: 84:  if(!SSPSTATbits.S)
  2400  007206  B6C7               	btfsc	199,3,c	;volatile
  2401  007208  EF08  F039         	goto	u101
  2402  00720C  EF0A  F039         	goto	u100
  2403  007210                     u101:
  2404  007210  EF0C  F039         	goto	l944
  2405  007214                     u100:
  2406  007214  EF0F  F039         	goto	l130
  2407  007218                     l944:
  2408                           
  2409                           ;PIC18F4550_I2C_Source_File.c: 86:     I2C_Write(slave_read_address);
  2410  007218  5002               	movf	I2C_Repeated_Start@slave_read_address^0,w,c
  2411  00721A  ECE8  F038         	call	_I2C_Write
  2412  00721E                     l130:
  2413  00721E  0012               	return		;funcret
  2414  007220                     __end_of_I2C_Repeated_Start:
  2415                           	callstack 0
  2416                           
  2417 ;; *************** function _I2C_Write *****************
  2418 ;; Defined at:
  2419 ;;		line 101 in file "PIC18F4550_I2C_Source_File.c"
  2420 ;; Parameters:    Size  Location     Type
  2421 ;;  data            1    wreg     unsigned char 
  2422 ;; Auto vars:     Size  Location     Type
  2423 ;;  data            1    0[COMRAM] unsigned char 
  2424 ;; Return value:  Size  Location     Type
  2425 ;;                  1    wreg      unsigned char 
  2426 ;; Registers used:
  2427 ;;		wreg, cstack
  2428 ;; Tracked objects:
  2429 ;;		On entry : 0/0
  2430 ;;		On exit  : 0/0
  2431 ;;		Unchanged: 0/0
  2432 ;; Data sizes:     COMRAM   BANK0   BANK1   BANK2   BANK3   BANK4   BANK5   BANK6   BANK7
  2433 ;;      Params:         0       0       0       0       0       0       0       0       0
  2434 ;;      Locals:         1       0       0       0       0       0       0       0       0
  2435 ;;      Temps:          0       0       0       0       0       0       0       0       0
  2436 ;;      Totals:         1       0       0       0       0       0       0       0       0
  2437 ;;Total ram usage:        1 bytes
  2438 ;; Hardware stack levels used: 1
  2439 ;; Hardware stack levels required when called: 1
  2440 ;; This function calls:
  2441 ;;		_I2C_Ready
  2442 ;; This function is called by:
  2443 ;;		_I2C_Start
  2444 ;;		_I2C_Repeated_Start
  2445 ;;		_RTC_Read_Hour
  2446 ;;		_I2C_Start_Wait
  2447 ;;		_RTC_Read_Clock
  2448 ;;		_RTC_Read_Calendar
  2449 ;; This function uses a non-reentrant model
  2450 ;;
  2451                           
  2452                           	psect	text10
  2453  0071D0                     __ptext10:
  2454                           	callstack 0
  2455  0071D0                     _I2C_Write:
  2456                           	callstack 28
  2457                           
  2458                           ;incstack = 0
  2459                           ;I2C_Write@data stored from wreg
  2460  0071D0  6E01               	movwf	I2C_Write@data^0,c
  2461  0071D2                     
  2462                           ;PIC18F4550_I2C_Source_File.c: 101: char I2C_Write(unsigned char data);PIC18F4550_I2C_So
      +                          urce_File.c: 102: {;PIC18F4550_I2C_Source_File.c: 103:       SSPBUF = data;
  2463  0071D2  C001  FFC9         	movff	I2C_Write@data,4041	;volatile
  2464  0071D6                     
  2465                           ;PIC18F4550_I2C_Source_File.c: 104:       I2C_Ready();
  2466  0071D6  ECB7  F038         	call	_I2C_Ready	;wreg free
  2467  0071DA                     
  2468                           ;PIC18F4550_I2C_Source_File.c: 105:       if (ACKSTAT)
  2469  0071DA  ACC5               	btfss	4037,6,c	;volatile
  2470  0071DC  EFF2  F038         	goto	u41
  2471  0071E0  EFF4  F038         	goto	u40
  2472  0071E4                     u41:
  2473  0071E4  EFF7  F038         	goto	l916
  2474  0071E8                     u40:
  2475  0071E8                     
  2476                           ;PIC18F4550_I2C_Source_File.c: 106:         return 1;
  2477  0071E8  0E01               	movlw	1
  2478  0071EA  EFF8  F038         	goto	l143
  2479  0071EE                     l916:
  2480                           
  2481                           ;PIC18F4550_I2C_Source_File.c: 108:         return 2;
  2482  0071EE  0E02               	movlw	2
  2483  0071F0                     l143:
  2484  0071F0  0012               	return		;funcret
  2485  0071F2                     __end_of_I2C_Write:
  2486                           	callstack 0
  2487                           
  2488 ;; *************** function _I2C_Read *****************
  2489 ;; Defined at:
  2490 ;;		line 12 in file "PIC18F4550_I2C_Source_File.c"
  2491 ;; Parameters:    Size  Location     Type
  2492 ;;  flag            1    wreg     unsigned char 
  2493 ;; Auto vars:     Size  Location     Type
  2494 ;;  flag            1    0[COMRAM] unsigned char 
  2495 ;;  buffer          1    1[COMRAM] unsigned char 
  2496 ;; Return value:  Size  Location     Type
  2497 ;;                  1    wreg      unsigned char 
  2498 ;; Registers used:
  2499 ;;		wreg, status,2, cstack
  2500 ;; Tracked objects:
  2501 ;;		On entry : 0/0
  2502 ;;		On exit  : 0/0
  2503 ;;		Unchanged: 0/0
  2504 ;; Data sizes:     COMRAM   BANK0   BANK1   BANK2   BANK3   BANK4   BANK5   BANK6   BANK7
  2505 ;;      Params:         0       0       0       0       0       0       0       0       0
  2506 ;;      Locals:         2       0       0       0       0       0       0       0       0
  2507 ;;      Temps:          0       0       0       0       0       0       0       0       0
  2508 ;;      Totals:         2       0       0       0       0       0       0       0       0
  2509 ;;Total ram usage:        2 bytes
  2510 ;; Hardware stack levels used: 1
  2511 ;; Hardware stack levels required when called: 1
  2512 ;; This function calls:
  2513 ;;		_I2C_Ack
  2514 ;;		_I2C_Nack
  2515 ;;		_I2C_Ready
  2516 ;; This function is called by:
  2517 ;;		_RTC_Read_Hour
  2518 ;;		_RTC_Read_Clock
  2519 ;;		_RTC_Read_Calendar
  2520 ;; This function uses a non-reentrant model
  2521 ;;
  2522                           
  2523                           	psect	text11
  2524  007286                     __ptext11:
  2525                           	callstack 0
  2526  007286                     _I2C_Read:
  2527                           	callstack 28
  2528                           
  2529                           ;incstack = 0
  2530                           ;I2C_Read@flag stored from wreg
  2531  007286  6E01               	movwf	I2C_Read@flag^0,c
  2532  007288                     
  2533                           ;PIC18F4550_I2C_Source_File.c: 12: char I2C_Read(char flag);PIC18F4550_I2C_Source_File.c
      +                          : 14: {;PIC18F4550_I2C_Source_File.c: 15:         char buffer;;PIC18F4550_I2C_Source_Fil
      +                          e.c: 16:         RCEN = 1;
  2534  007288  86C5               	bsf	4037,3,c	;volatile
  2535  00728A                     l91:
  2536  00728A  A0C7               	btfss	199,0,c	;volatile
  2537  00728C  EF4A  F039         	goto	u51
  2538  007290  EF4C  F039         	goto	u50
  2539  007294                     u51:
  2540  007294  EF45  F039         	goto	l91
  2541  007298                     u50:
  2542  007298                     
  2543                           ;PIC18F4550_I2C_Source_File.c: 19:         buffer = SSPBUF;
  2544  007298  CFC9 F002          	movff	4041,I2C_Read@buffer	;volatile
  2545  00729C                     
  2546                           ;PIC18F4550_I2C_Source_File.c: 21:         if(flag==0)
  2547  00729C  5001               	movf	I2C_Read@flag^0,w,c
  2548  00729E  A4D8               	btfss	status,2,c
  2549  0072A0  EF54  F039         	goto	u61
  2550  0072A4  EF56  F039         	goto	u60
  2551  0072A8                     u61:
  2552  0072A8  EF5A  F039         	goto	l926
  2553  0072AC                     u60:
  2554  0072AC                     
  2555                           ;PIC18F4550_I2C_Source_File.c: 22:             I2C_Ack();
  2556  0072AC  ECC9  F038         	call	_I2C_Ack	;wreg free
  2557  0072B0  EF5C  F039         	goto	l95
  2558  0072B4                     l926:
  2559                           
  2560                           ;PIC18F4550_I2C_Source_File.c: 24:             I2C_Nack();
  2561  0072B4  ECD3  F038         	call	_I2C_Nack	;wreg free
  2562  0072B8                     l95:
  2563                           
  2564                           ;PIC18F4550_I2C_Source_File.c: 25:         I2C_Ready();
  2565  0072B8  ECB7  F038         	call	_I2C_Ready	;wreg free
  2566  0072BC                     
  2567                           ;PIC18F4550_I2C_Source_File.c: 26:         return(buffer);
  2568  0072BC  5002               	movf	I2C_Read@buffer^0,w,c
  2569  0072BE  0012               	return		;funcret
  2570  0072C0                     __end_of_I2C_Read:
  2571                           	callstack 0
  2572                           
  2573 ;; *************** function _I2C_Ready *****************
  2574 ;; Defined at:
  2575 ;;		line 43 in file "PIC18F4550_I2C_Source_File.c"
  2576 ;; Parameters:    Size  Location     Type
  2577 ;;		None
  2578 ;; Auto vars:     Size  Location     Type
  2579 ;;		None
  2580 ;; Return value:  Size  Location     Type
  2581 ;;                  1    wreg      void 
  2582 ;; Registers used:
  2583 ;;		None
  2584 ;; Tracked objects:
  2585 ;;		On entry : 0/0
  2586 ;;		On exit  : 0/0
  2587 ;;		Unchanged: 0/0
  2588 ;; Data sizes:     COMRAM   BANK0   BANK1   BANK2   BANK3   BANK4   BANK5   BANK6   BANK7
  2589 ;;      Params:         0       0       0       0       0       0       0       0       0
  2590 ;;      Locals:         0       0       0       0       0       0       0       0       0
  2591 ;;      Temps:          0       0       0       0       0       0       0       0       0
  2592 ;;      Totals:         0       0       0       0       0       0       0       0       0
  2593 ;;Total ram usage:        0 bytes
  2594 ;; Hardware stack levels used: 1
  2595 ;; This function calls:
  2596 ;;		Nothing
  2597 ;; This function is called by:
  2598 ;;		_I2C_Read
  2599 ;;		_I2C_Write
  2600 ;; This function uses a non-reentrant model
  2601 ;;
  2602                           
  2603                           	psect	text12
  2604  00716E                     __ptext12:
  2605                           	callstack 0
  2606  00716E                     _I2C_Ready:
  2607                           	callstack 28
  2608  00716E                     l102:
  2609  00716E  A69E               	btfss	3998,3,c	;volatile
  2610  007170  EFBC  F038         	goto	u11
  2611  007174  EFBE  F038         	goto	u10
  2612  007178                     u11:
  2613  007178  EFB7  F038         	goto	l102
  2614  00717C                     u10:
  2615  00717C                     
  2616                           ;PIC18F4550_I2C_Source_File.c: 46:     SSPIF=0;
  2617  00717C  969E               	bcf	3998,3,c	;volatile
  2618  00717E  0012               	return		;funcret
  2619  007180                     __end_of_I2C_Ready:
  2620                           	callstack 0
  2621                           
  2622 ;; *************** function _I2C_Nack *****************
  2623 ;; Defined at:
  2624 ;;		line 118 in file "PIC18F4550_I2C_Source_File.c"
  2625 ;; Parameters:    Size  Location     Type
  2626 ;;		None
  2627 ;; Auto vars:     Size  Location     Type
  2628 ;;		None
  2629 ;; Return value:  Size  Location     Type
  2630 ;;                  1    wreg      void 
  2631 ;; Registers used:
  2632 ;;		None
  2633 ;; Tracked objects:
  2634 ;;		On entry : 0/0
  2635 ;;		On exit  : 0/0
  2636 ;;		Unchanged: 0/0
  2637 ;; Data sizes:     COMRAM   BANK0   BANK1   BANK2   BANK3   BANK4   BANK5   BANK6   BANK7
  2638 ;;      Params:         0       0       0       0       0       0       0       0       0
  2639 ;;      Locals:         0       0       0       0       0       0       0       0       0
  2640 ;;      Temps:          0       0       0       0       0       0       0       0       0
  2641 ;;      Totals:         0       0       0       0       0       0       0       0       0
  2642 ;;Total ram usage:        0 bytes
  2643 ;; Hardware stack levels used: 1
  2644 ;; This function calls:
  2645 ;;		Nothing
  2646 ;; This function is called by:
  2647 ;;		_I2C_Read
  2648 ;; This function uses a non-reentrant model
  2649 ;;
  2650                           
  2651                           	psect	text13
  2652  0071A6                     __ptext13:
  2653                           	callstack 0
  2654  0071A6                     _I2C_Nack:
  2655                           	callstack 28
  2656  0071A6                     
  2657                           ;PIC18F4550_I2C_Source_File.c: 120:     ACKDT=1;
  2658  0071A6  8AC5               	bsf	4037,5,c	;volatile
  2659                           
  2660                           ;PIC18F4550_I2C_Source_File.c: 121:  ACKEN=1;
  2661  0071A8  88C5               	bsf	4037,4,c	;volatile
  2662  0071AA                     l153:
  2663  0071AA  B8C5               	btfsc	4037,4,c	;volatile
  2664  0071AC  EFDA  F038         	goto	u31
  2665  0071B0  EFDC  F038         	goto	u30
  2666  0071B4                     u31:
  2667  0071B4  EFD5  F038         	goto	l153
  2668  0071B8                     u30:
  2669  0071B8  0012               	return		;funcret
  2670  0071BA                     __end_of_I2C_Nack:
  2671                           	callstack 0
  2672                           
  2673 ;; *************** function _I2C_Ack *****************
  2674 ;; Defined at:
  2675 ;;		line 111 in file "PIC18F4550_I2C_Source_File.c"
  2676 ;; Parameters:    Size  Location     Type
  2677 ;;		None
  2678 ;; Auto vars:     Size  Location     Type
  2679 ;;		None
  2680 ;; Return value:  Size  Location     Type
  2681 ;;                  1    wreg      void 
  2682 ;; Registers used:
  2683 ;;		None
  2684 ;; Tracked objects:
  2685 ;;		On entry : 0/0
  2686 ;;		On exit  : 0/0
  2687 ;;		Unchanged: 0/0
  2688 ;; Data sizes:     COMRAM   BANK0   BANK1   BANK2   BANK3   BANK4   BANK5   BANK6   BANK7
  2689 ;;      Params:         0       0       0       0       0       0       0       0       0
  2690 ;;      Locals:         0       0       0       0       0       0       0       0       0
  2691 ;;      Temps:          0       0       0       0       0       0       0       0       0
  2692 ;;      Totals:         0       0       0       0       0       0       0       0       0
  2693 ;;Total ram usage:        0 bytes
  2694 ;; Hardware stack levels used: 1
  2695 ;; This function calls:
  2696 ;;		Nothing
  2697 ;; This function is called by:
  2698 ;;		_I2C_Read
  2699 ;; This function uses a non-reentrant model
  2700 ;;
  2701                           
  2702                           	psect	text14
  2703  007192                     __ptext14:
  2704                           	callstack 0
  2705  007192                     _I2C_Ack:
  2706                           	callstack 28
  2707  007192                     
  2708                           ;PIC18F4550_I2C_Source_File.c: 113:     ACKDT=0;
  2709  007192  9AC5               	bcf	4037,5,c	;volatile
  2710                           
  2711                           ;PIC18F4550_I2C_Source_File.c: 114:  ACKEN=1;
  2712  007194  88C5               	bsf	4037,4,c	;volatile
  2713  007196                     l147:
  2714  007196  B8C5               	btfsc	4037,4,c	;volatile
  2715  007198  EFD0  F038         	goto	u21
  2716  00719C  EFD2  F038         	goto	u20
  2717  0071A0                     u21:
  2718  0071A0  EFCB  F038         	goto	l147
  2719  0071A4                     u20:
  2720  0071A4  0012               	return		;funcret
  2721  0071A6                     __end_of_I2C_Ack:
  2722                           	callstack 0
  2723                           
  2724 ;; *************** function _I2C_Init *****************
  2725 ;; Defined at:
  2726 ;;		line 29 in file "PIC18F4550_I2C_Source_File.c"
  2727 ;; Parameters:    Size  Location     Type
  2728 ;;		None
  2729 ;; Auto vars:     Size  Location     Type
  2730 ;;		None
  2731 ;; Return value:  Size  Location     Type
  2732 ;;                  1    wreg      void 
  2733 ;; Registers used:
  2734 ;;		wreg, status,2
  2735 ;; Tracked objects:
  2736 ;;		On entry : 0/0
  2737 ;;		On exit  : 0/0
  2738 ;;		Unchanged: 0/0
  2739 ;; Data sizes:     COMRAM   BANK0   BANK1   BANK2   BANK3   BANK4   BANK5   BANK6   BANK7
  2740 ;;      Params:         0       0       0       0       0       0       0       0       0
  2741 ;;      Locals:         0       0       0       0       0       0       0       0       0
  2742 ;;      Temps:          0       0       0       0       0       0       0       0       0
  2743 ;;      Totals:         0       0       0       0       0       0       0       0       0
  2744 ;;Total ram usage:        0 bytes
  2745 ;; Hardware stack levels used: 1
  2746 ;; This function calls:
  2747 ;;		Nothing
  2748 ;; This function is called by:
  2749 ;;		_main
  2750 ;; This function uses a non-reentrant model
  2751 ;;
  2752                           
  2753                           	psect	text15
  2754  0071BA                     __ptext15:
  2755                           	callstack 0
  2756  0071BA                     _I2C_Init:
  2757                           	callstack 30
  2758  0071BA                     
  2759                           ;PIC18F4550_I2C_Source_File.c: 33:  SSPSTAT=80;
  2760  0071BA  0E50               	movlw	80
  2761  0071BC  6EC7               	movwf	199,c	;volatile
  2762                           
  2763                           ;PIC18F4550_I2C_Source_File.c: 34:     SSPCON1=0x28;
  2764  0071BE  0E28               	movlw	40
  2765  0071C0  6EC6               	movwf	198,c	;volatile
  2766                           
  2767                           ;PIC18F4550_I2C_Source_File.c: 36:  SSPCON2=0;
  2768  0071C2  0E00               	movlw	0
  2769  0071C4  6EC5               	movwf	197,c	;volatile
  2770                           
  2771                           ;PIC18F4550_I2C_Source_File.c: 37:     SSPADD=((8000000/(4*100000))-1);
  2772  0071C6  0E13               	movlw	19
  2773  0071C8  6EC8               	movwf	200,c	;volatile
  2774  0071CA                     
  2775                           ;PIC18F4550_I2C_Source_File.c: 38:     SSPIE=1;
  2776  0071CA  869D               	bsf	3997,3,c	;volatile
  2777  0071CC                     
  2778                           ;PIC18F4550_I2C_Source_File.c: 39:     SSPIF=0;
  2779  0071CC  969E               	bcf	3998,3,c	;volatile
  2780  0071CE  0012               	return		;funcret
  2781  0071D0                     __end_of_I2C_Init:
  2782                           	callstack 0
  2783  0000                     
  2784                           	psect	rparam
  2785  0000                     
  2786                           	psect	idloc
  2787                           
  2788                           ;Config register IDLOC0 @ 0x200000
  2789                           ;	unspecified, using default values
  2790  200000                     	org	2097152
  2791  200000  FF                 	db	255
  2792                           
  2793                           ;Config register IDLOC1 @ 0x200001
  2794                           ;	unspecified, using default values
  2795  200001                     	org	2097153
  2796  200001  FF                 	db	255
  2797                           
  2798                           ;Config register IDLOC2 @ 0x200002
  2799                           ;	unspecified, using default values
  2800  200002                     	org	2097154
  2801  200002  FF                 	db	255
  2802                           
  2803                           ;Config register IDLOC3 @ 0x200003
  2804                           ;	unspecified, using default values
  2805  200003                     	org	2097155
  2806  200003  FF                 	db	255
  2807                           
  2808                           ;Config register IDLOC4 @ 0x200004
  2809                           ;	unspecified, using default values
  2810  200004                     	org	2097156
  2811  200004  FF                 	db	255
  2812                           
  2813                           ;Config register IDLOC5 @ 0x200005
  2814                           ;	unspecified, using default values
  2815  200005                     	org	2097157
  2816  200005  FF                 	db	255
  2817                           
  2818                           ;Config register IDLOC6 @ 0x200006
  2819                           ;	unspecified, using default values
  2820  200006                     	org	2097158
  2821  200006  FF                 	db	255
  2822                           
  2823                           ;Config register IDLOC7 @ 0x200007
  2824                           ;	unspecified, using default values
  2825  200007                     	org	2097159
  2826  200007  FF                 	db	255
  2827                           
  2828                           	psect	config
  2829                           
  2830                           ;Config register CONFIG1L @ 0x300000
  2831                           ;	PLL Prescaler Selection bits
  2832                           ;	PLLDIV = 1, No prescale (4 MHz oscillator input drives PLL directly)
  2833                           ;	System Clock Postscaler Selection bits
  2834                           ;	CPUDIV = OSC1_PLL2, [Primary Oscillator Src: /1][96 MHz PLL Src: /2]
  2835                           ;	USB Clock Selection bit (used in Full-Speed USB mode only; UCFG:FSEN = 1)
  2836                           ;	USBDIV = 1, USB clock source comes directly from the primary oscillator block with no 
      +                          postscale
  2837  300000                     	org	3145728
  2838  300000  00                 	db	0
  2839                           
  2840                           ;Config register CONFIG1H @ 0x300001
  2841                           ;	Oscillator Selection bits
  2842                           ;	FOSC = INTOSC_EC, Internal oscillator, CLKO function on RA6, EC used by USB (INTCKO)
  2843                           ;	Fail-Safe Clock Monitor Enable bit
  2844                           ;	FCMEN = OFF, Fail-Safe Clock Monitor disabled
  2845                           ;	Internal/External Oscillator Switchover bit
  2846                           ;	IESO = OFF, Oscillator Switchover mode disabled
  2847  300001                     	org	3145729
  2848  300001  09                 	db	9
  2849                           
  2850                           ;Config register CONFIG2L @ 0x300002
  2851                           ;	Power-up Timer Enable bit
  2852                           ;	PWRT = OFF, PWRT disabled
  2853                           ;	Brown-out Reset Enable bits
  2854                           ;	BOR = ON, Brown-out Reset enabled in hardware only (SBOREN is disabled)
  2855                           ;	Brown-out Reset Voltage bits
  2856                           ;	BORV = 3, Minimum setting 2.05V
  2857                           ;	USB Voltage Regulator Enable bit
  2858                           ;	VREGEN = OFF, USB voltage regulator disabled
  2859  300002                     	org	3145730
  2860  300002  1F                 	db	31
  2861                           
  2862                           ;Config register CONFIG2H @ 0x300003
  2863                           ;	Watchdog Timer Enable bit
  2864                           ;	WDT = OFF, WDT disabled (control is placed on the SWDTEN bit)
  2865                           ;	Watchdog Timer Postscale Select bits
  2866                           ;	WDTPS = 32768, 1:32768
  2867  300003                     	org	3145731
  2868  300003  1E                 	db	30
  2869                           
  2870                           ; Padding undefined space
  2871  300004                     	org	3145732
  2872  300004  FF                 	db	255
  2873                           
  2874                           ;Config register CONFIG3H @ 0x300005
  2875                           ;	CCP2 MUX bit
  2876                           ;	CCP2MX = ON, CCP2 input/output is multiplexed with RC1
  2877                           ;	PORTB A/D Enable bit
  2878                           ;	PBADEN = OFF, PORTB<4:0> pins are configured as digital I/O on Reset
  2879                           ;	Low-Power Timer 1 Oscillator Enable bit
  2880                           ;	LPT1OSC = OFF, Timer1 configured for higher power operation
  2881                           ;	MCLR Pin Enable bit
  2882                           ;	MCLRE = ON, MCLR pin enabled; RE3 input pin disabled
  2883  300005                     	org	3145733
  2884  300005  81                 	db	129
  2885                           
  2886                           ;Config register CONFIG4L @ 0x300006
  2887                           ;	Stack Full/Underflow Reset Enable bit
  2888                           ;	STVREN = ON, Stack full/underflow will cause Reset
  2889                           ;	Single-Supply ICSP Enable bit
  2890                           ;	LVP = OFF, Single-Supply ICSP disabled
  2891                           ;	Dedicated In-Circuit Debug/Programming Port (ICPORT) Enable bit
  2892                           ;	ICPRT = OFF, ICPORT disabled
  2893                           ;	Extended Instruction Set Enable bit
  2894                           ;	XINST = OFF, Instruction set extension and Indexed Addressing mode disabled (Legacy mo
      +                          de)
  2895                           ;	Background Debugger Enable bit
  2896                           ;	DEBUG = 0x1, unprogrammed default
  2897  300006                     	org	3145734
  2898  300006  81                 	db	129
  2899                           
  2900                           ; Padding undefined space
  2901  300007                     	org	3145735
  2902  300007  FF                 	db	255
  2903                           
  2904                           ;Config register CONFIG5L @ 0x300008
  2905                           ;	Code Protection bit
  2906                           ;	CP0 = OFF, Block 0 (000800-001FFFh) is not code-protected
  2907                           ;	Code Protection bit
  2908                           ;	CP1 = OFF, Block 1 (002000-003FFFh) is not code-protected
  2909                           ;	Code Protection bit
  2910                           ;	CP2 = OFF, Block 2 (004000-005FFFh) is not code-protected
  2911                           ;	Code Protection bit
  2912                           ;	CP3 = OFF, Block 3 (006000-007FFFh) is not code-protected
  2913  300008                     	org	3145736
  2914  300008  0F                 	db	15
  2915                           
  2916                           ;Config register CONFIG5H @ 0x300009
  2917                           ;	Boot Block Code Protection bit
  2918                           ;	CPB = OFF, Boot block (000000-0007FFh) is not code-protected
  2919                           ;	Data EEPROM Code Protection bit
  2920                           ;	CPD = OFF, Data EEPROM is not code-protected
  2921  300009                     	org	3145737
  2922  300009  C0                 	db	192
  2923                           
  2924                           ;Config register CONFIG6L @ 0x30000A
  2925                           ;	Write Protection bit
  2926                           ;	WRT0 = OFF, Block 0 (000800-001FFFh) is not write-protected
  2927                           ;	Write Protection bit
  2928                           ;	WRT1 = OFF, Block 1 (002000-003FFFh) is not write-protected
  2929                           ;	Write Protection bit
  2930                           ;	WRT2 = OFF, Block 2 (004000-005FFFh) is not write-protected
  2931                           ;	Write Protection bit
  2932                           ;	WRT3 = OFF, Block 3 (006000-007FFFh) is not write-protected
  2933  30000A                     	org	3145738
  2934  30000A  0F                 	db	15
  2935                           
  2936                           ;Config register CONFIG6H @ 0x30000B
  2937                           ;	Configuration Register Write Protection bit
  2938                           ;	WRTC = OFF, Configuration registers (300000-3000FFh) are not write-protected
  2939                           ;	Boot Block Write Protection bit
  2940                           ;	WRTB = OFF, Boot block (000000-0007FFh) is not write-protected
  2941                           ;	Data EEPROM Write Protection bit
  2942                           ;	WRTD = OFF, Data EEPROM is not write-protected
  2943  30000B                     	org	3145739
  2944  30000B  E0                 	db	224
  2945                           
  2946                           ;Config register CONFIG7L @ 0x30000C
  2947                           ;	Table Read Protection bit
  2948                           ;	EBTR0 = OFF, Block 0 (000800-001FFFh) is not protected from table reads executed in ot
      +                          her blocks
  2949                           ;	Table Read Protection bit
  2950                           ;	EBTR1 = OFF, Block 1 (002000-003FFFh) is not protected from table reads executed in ot
      +                          her blocks
  2951                           ;	Table Read Protection bit
  2952                           ;	EBTR2 = OFF, Block 2 (004000-005FFFh) is not protected from table reads executed in ot
      +                          her blocks
  2953                           ;	Table Read Protection bit
  2954                           ;	EBTR3 = OFF, Block 3 (006000-007FFFh) is not protected from table reads executed in ot
      +                          her blocks
  2955  30000C                     	org	3145740
  2956  30000C  0F                 	db	15
  2957                           
  2958                           ;Config register CONFIG7H @ 0x30000D
  2959                           ;	Boot Block Table Read Protection bit
  2960                           ;	EBTRB = OFF, Boot block (000000-0007FFh) is not protected from table reads executed in
      +                           other blocks
  2961  30000D                     	org	3145741
  2962  30000D  40                 	db	64
  2963                           tosu	equ	0xFFF
  2964                           tosh	equ	0xFFE
  2965                           tosl	equ	0xFFD
  2966                           stkptr	equ	0xFFC
  2967                           pclatu	equ	0xFFB
  2968                           pclath	equ	0xFFA
  2969                           pcl	equ	0xFF9
  2970                           tblptru	equ	0xFF8
  2971                           tblptrh	equ	0xFF7
  2972                           tblptrl	equ	0xFF6
  2973                           tablat	equ	0xFF5
  2974                           prodh	equ	0xFF4
  2975                           prodl	equ	0xFF3
  2976                           indf0	equ	0xFEF
  2977                           postinc0	equ	0xFEE
  2978                           postdec0	equ	0xFED
  2979                           preinc0	equ	0xFEC
  2980                           plusw0	equ	0xFEB
  2981                           fsr0h	equ	0xFEA
  2982                           fsr0l	equ	0xFE9
  2983                           wreg	equ	0xFE8
  2984                           indf1	equ	0xFE7
  2985                           postinc1	equ	0xFE6
  2986                           postdec1	equ	0xFE5
  2987                           preinc1	equ	0xFE4
  2988                           plusw1	equ	0xFE3
  2989                           fsr1h	equ	0xFE2
  2990                           fsr1l	equ	0xFE1
  2991                           bsr	equ	0xFE0
  2992                           indf2	equ	0xFDF
  2993                           postinc2	equ	0xFDE
  2994                           postdec2	equ	0xFDD
  2995                           preinc2	equ	0xFDC
  2996                           plusw2	equ	0xFDB
  2997                           fsr2h	equ	0xFDA
  2998                           fsr2l	equ	0xFD9
  2999                           status	equ	0xFD8

Data Sizes:
    Strings     0
    Constant    0
    Data        0
    BSS         0
    Persistent  0
    Stack       0

Auto Spaces:
    Space          Size  Autos    Used
    COMRAM           95     72      72
    BANK0           160      0       0
    BANK1           256      0       0
    BANK2           256      0       0
    BANK3           256      0       0
    BANK4           256      0       0
    BANK5           256      0       0
    BANK6           256      0       0
    BANK7           256      0       0

Pointer List with Targets:

    None.

Critical Paths under _main in COMRAM

    _main->_USART_Init
    _USART_Init->___fltol
    ___fltol->___fladd
    ___fldiv->___xxtofl
    ___fladd->___fldiv
    _RTC_Read_Hour->_I2C_Read
    _RTC_Read_Hour->_I2C_Repeated_Start
    _RTC_Read_Hour->_I2C_Start
    _I2C_Start->_I2C_Write
    _I2C_Repeated_Start->_I2C_Write

Critical Paths under _main in BANK0

    None.

Critical Paths under _main in BANK1

    None.

Critical Paths under _main in BANK2

    None.

Critical Paths under _main in BANK3

    None.

Critical Paths under _main in BANK4

    None.

Critical Paths under _main in BANK5

    None.

Critical Paths under _main in BANK6

    None.

Critical Paths under _main in BANK7

    None.

Call Graph Tables:

 ---------------------------------------------------------------------------------
 (Depth) Function   	        Calls       Base Space   Used Autos Params    Refs
 ---------------------------------------------------------------------------------
 (0) _main                                                 3     3      0    5254
                                             69 COMRAM     3     3      0
                           _I2C_Init
                      _RTC_Read_Hour
                         _USART_Init
                  _USART_ReceiveChar
 ---------------------------------------------------------------------------------
 (1) _USART_ReceiveChar                                    0     0      0       0
 ---------------------------------------------------------------------------------
 (1) _USART_Init                                           8     4      4    4991
                                             65 COMRAM     4     0      4
                            ___fladd
                            ___fldiv
                            ___fltol
                           ___xxtofl
 ---------------------------------------------------------------------------------
 (2) ___xxtofl                                            14    10      4     474
                                              0 COMRAM    14    10      4
 ---------------------------------------------------------------------------------
 (2) ___fltol                                             10     6      4     305
                                             55 COMRAM    10     6      4
                            ___fladd (ARG)
                            ___fldiv (ARG)
                           ___xxtofl (ARG)
 ---------------------------------------------------------------------------------
 (2) ___fldiv                                             25    17      8    1551
                                             14 COMRAM    25    17      8
                           ___xxtofl (ARG)
 ---------------------------------------------------------------------------------
 (2) ___fladd                                             16     8      8    2540
                                             39 COMRAM    16     8      8
                            ___fldiv (ARG)
                           ___xxtofl (ARG)
 ---------------------------------------------------------------------------------
 (1) _RTC_Read_Hour                                       10     8      2     152
                                              2 COMRAM     6     4      2
                           _I2C_Read
                 _I2C_Repeated_Start
                          _I2C_Start
                          _I2C_Write
 ---------------------------------------------------------------------------------
 (2) _I2C_Start                                            1     1      0      30
                                              1 COMRAM     1     1      0
                          _I2C_Write
 ---------------------------------------------------------------------------------
 (2) _I2C_Repeated_Start                                   1     1      0      30
                                              1 COMRAM     1     1      0
                          _I2C_Write
 ---------------------------------------------------------------------------------
 (2) _I2C_Write                                            1     1      0      15
                                              0 COMRAM     1     1      0
                          _I2C_Ready
 ---------------------------------------------------------------------------------
 (2) _I2C_Read                                             2     2      0      30
                                              0 COMRAM     2     2      0
                            _I2C_Ack
                           _I2C_Nack
                          _I2C_Ready
 ---------------------------------------------------------------------------------
 (3) _I2C_Ready                                            0     0      0       0
 ---------------------------------------------------------------------------------
 (3) _I2C_Nack                                             0     0      0       0
 ---------------------------------------------------------------------------------
 (3) _I2C_Ack                                              0     0      0       0
 ---------------------------------------------------------------------------------
 (1) _I2C_Init                                             0     0      0       0
 ---------------------------------------------------------------------------------
 Estimated maximum stack depth 3
 ---------------------------------------------------------------------------------

 Call Graph Graphs:

 _main (ROOT)
   _I2C_Init
   _RTC_Read_Hour
     _I2C_Read
       _I2C_Ack
       _I2C_Nack
       _I2C_Ready
     _I2C_Repeated_Start
       _I2C_Write
         _I2C_Ready
     _I2C_Start
       _I2C_Write
     _I2C_Write
   _USART_Init
     ___fladd
       ___fldiv (ARG)
         ___xxtofl (ARG)
       ___xxtofl (ARG)
     ___fldiv
     ___fltol
       ___fladd (ARG)
       ___fldiv (ARG)
       ___xxtofl (ARG)
     ___xxtofl
   _USART_ReceiveChar

 Address spaces:
Name               Size   Autos  Total    Cost      Usage
BITCOMRAM           5F      0       0       0        0.0%
EEDATA             100      0       0       0        0.0%
NULL                 0      0       0       0        0.0%
CODE                 0      0       0       0        0.0%
COMRAM              5F     48      48       1       75.8%
STACK                0      0       0       2        0.0%
DATA                 0      0       0       3        0.0%
BITBANK0            A0      0       0       4        0.0%
BANK0               A0      0       0       5        0.0%
BITBANK1           100      0       0       6        0.0%
BANK1              100      0       0       7        0.0%
BITBANK2           100      0       0       8        0.0%
BANK2              100      0       0       9        0.0%
BITBANK3           100      0       0      10        0.0%
BANK3              100      0       0      11        0.0%
BITBANK4           100      0       0      12        0.0%
BANK4              100      0       0      13        0.0%
BITBANK5           100      0       0      14        0.0%
BANK5              100      0       0      15        0.0%
BITBANK6           100      0       0      16        0.0%
BANK6              100      0       0      17        0.0%
BITBANK7           100      0       0      18        0.0%
BANK7              100      0       0      19        0.0%
BITBIGSFRh          2C      0       0      20        0.0%
BITBIGSFRlhhhh       9      0       0      21        0.0%
BITBIGSFRlhl         3      0       0      22        0.0%
BITBIGSFRllhhh      11      0       0      23        0.0%
BITBIGSFRllhhll      C      0       0      24        0.0%
BITBIGSFRllhl        8      0       0      25        0.0%
BITBIGSFRlllh        7      0       0      26        0.0%
BITBIGSFRllllh       9      0       0      27        0.0%
BITBIGSFRlllll      20      0       0      28        0.0%
ABS                  0      0       0      29        0.0%
BIGRAM             7FF      0       0      30        0.0%
BIGSFR               0      0       0     200        0.0%
BITSFR               0      0       0     200        0.0%
SFR                  0      0       0     200        0.0%


Microchip Technology PIC18 Macro Assembler V2.36 build 20220127204148 
Symbol Table                                                                                   Thu Mar 10 17:49:20 2022

                        ___fldiv@aexp 0027                          ___fldiv@bexp 0026  
                        ___fldiv@sign 001F                           _SSPSTATbits 000FC7  
                                  l41 75D0                                    l33 7504  
                                  l34 7518                                    l39 75D6  
                                  l91 728A                                    l93 7298  
                                  l95 72B8                                    l96 72BE  
                                  l99 71CE                                    u10 717C  
                                  u11 7178                                    u20 71A4  
                                  u21 71A0                                    u30 71B8  
                                  u31 71B4                                    u40 71E8  
                                  u41 71E4                                    u50 7298  
                                  u51 7294                                    u60 72AC  
                                  u61 72A8                                    u70 7232  
                                  u71 722E                                    u80 7242  
                                  u81 723E                                    u90 7204  
                                  u91 7200                                   l102 716E  
                                 l104 717C                                   l105 717E  
                                 l121 7232                                   l130 721E  
                                 l123 724C                                   l205 7180  
                                 l150 71A4                                   l126 71F6  
                                 l143 71F0                                   l119 7224  
                                 l128 7204                                   l208 7190  
                                 l153 71AA                                   l147 7196  
                                 l156 71B8                                   l169 7284  
                                 l522 74A6                                   l196 73A0  
                                 l900 7192                                   l820 7A5C  
                                 l812 7962                                   l821 7A4A  
                                 l902 71A6                                   l910 71E8  
                                 l807 7B3E                                   l920 7288  
                                 l904 71D2                                   l753 7D2E  
                                 l809 799E                                   l922 729C  
                                 l906 71D6                                   l770 7E48  
                                 l762 7FFE                                   l754 7D1C  
                                 l818 79E4                                   l755 7CE2  
                                 l924 72AC                                   l916 71EE  
                                 l908 71DA                                   l940 71F4  
                                 l932 7222                                   l780 7F06  
                                 l926 72B4                                   l928 72BC  
                                 l944 7218                                   l936 7246  
                                 l880 7648                                   l946 721E  
                                 l779 7F18                                   l883 77A4  
                                 l894 773C                                   l887 76E0  
                                 l898 716E                                   u100 7214  
                                 u101 7210                                   _PEN 007E2A  
                                 u900 718E                                   u901 718A  
                     __end_of_I2C_Ack 71A6                        ?_RTC_Read_Hour 0003  
                                 wreg 000FE8                           main@data_in 0048  
                        ___fltol@exp1 0041                                  l2000 75D8  
                                l1600 7CF0                                  l1520 7B6C  
                                l1512 7B40                                  l1610 7D1A  
                                l1602 7CFC                                  l1530 7BA6  
                                l1522 7B7C                                  l1514 7B4C  
                                l1700 7FD0                                  l1620 7D70  
                                l1612 7D3C                                  l1604 7D00  
                                l1540 7BD4                                  l1532 7BAC  
                                l1524 7B8C                                  l1516 7B5A  
                                l1390 71BA                                  l1710 7FEE  
                                l1702 7FD6                                  l1630 7DAA  
                                l1622 7D7E                                  l1614 7D4C  
                                l1606 7D0E                                  l1550 7C08  
                                l1542 7BD6                                  l1534 7BBE  
                                l1526 7B8E                                  l1518 7B5C  
                                l1392 71CA                                  l1704 7FD8  
                                l1640 7E16                                  l1632 7DAC  
                                l1624 7D8C                                  l1608 7D10  
                                l1560 7C44                                  l1544 7BE6  
                                l1552 7C10                                  l1536 7BC0  
                                l1528 7B96                                  l1800 79C4  
                                l1720 77C2                                  l1394 71CC  
                                l1706 7FDE                                  l1650 7E6E  
                                l1642 7E18                                  l1634 7DB6  
                                l1626 7D98                                  l1618 7D60  
                                l1570 7C58                                  l1562 7C48  
                                l1554 7C20                                  l1546 7BF6  
                                l1538 7BC6                                  l1810 7A02  
                                l1802 79CA                                  l1722 77D2  
                                l1730 77FC                                  l1714 77A6  
                                l1708 7FEC                                  l1660 7E9C  
                                l1644 7E28                                  l1628 7D9C  
                                l1636 7DBC                                  l1580 7C6C  
                                l1572 7C5C                                  l1564 7C4C  
                                l1556 7C32                                  l1548 7C06  
                                l1820 7A6C                                  l1812 7A06  
                                l1804 79D4                                  l1740 7828  
                                l1732 780C                                  l1724 77E2  
                                l1716 77B2                                  l1900 7612  
                                l1396 7180                                  l1662 7EAA  
                                l1654 7E82                                  l1670 7EC8  
                                l1638 7DE2                                  l1646 7E38  
                                l1582 7C70                                  l1574 7C60  
                                l1566 7C50                                  l1558 7C40  
                                l1590 7C80                                  l1830 7ACE  
                                l1822 7A78                                  l1814 7A14  
                                l1806 79E2                                  l1742 7838  
                                l1750 7862                                  l1734 7812  
                                l1726 77F2                                  l1718 77C0  
                                l1910 768A                                  l1902 7658  
                                l1398 718E                                  l1664 7EB2  
                                l1656 7E8C                                  l1648 7E5E  
                                l1672 7ED6                                  l1592 7C84  
                                l1584 7C74                                  l1576 7C64  
                                l1568 7C54                                  l1840 7B2C  
                                l1832 7AE4                                  l1824 7A86  
                                l1816 7A42                                  l1808 79F4  
                                l1760 78A4                                  l1752 7872  
                                l1744 7848                                  l1736 7818  
                                l1728 77F4                                  l1920 7712  
                                l1912 7696                                  l1904 766E  
                                l1682 7F28                                  l1690 7F7E  
                                l1674 7EDA                                  l1666 7EB6  
                                l1658 7E9A                                  l1594 7CAE  
                                l1586 7C78                                  l1578 7C68  
                                l1842 7B32                                  l1834 7AFE  
                                l1826 7AB0                                  l1754 7888  
                                l1746 7858                                  l1738 7826  
                                l1930 7750                                  l1922 771E  
                                l1914 76C8                                  l1692 7F8E  
                                l1684 7F34                                  l1676 7EE8  
                                l1668 7EC6                                  l1596 7CCA  
                                l1588 7C7C                                  l1844 7B34  
                                l1836 7B1A                                  l1828 7AB4  
                                l1780 7926                                  l1772 78DC  
                                l1756 7898                                  l1764 78B8  
                                l1748 785A                                  l1860 73F6  
                                l1852 73A2                                  l1932 7774  
                                l1924 772C                                  l1916 76CA  
                                l1908 7682                                  l1950 7250  
                                l1694 7F9E                                  l1686 7F42  
                                l1678 7EFE                                  l1598 7CDA  
                                l1838 7B1E                                  l1790 796C  
                                l1782 792E                                  l1774 78F6  
                                l1766 78C8                                  l1758 78A0  
                                l1862 73F8                                  l1854 73B8  
                                l1934 7784                                  l1926 774A  
                                l1918 76D6                                  l1942 72C0  
                                l1952 7262                                  l1696 7FBE  
                                l1688 7F7C                                  l1792 798A  
                                l1784 793E                                  l1776 7906  
                                l1768 78C8                                  l1864 7408  
                                l1936 7792                                  l1928 774C  
                                l1944 72C4                                  l1954 7268  
                                l1698 7FC2                                  l1794 798C  
                                l1786 7952                                  l1778 7916  
                                l1890 7486                                  l1874 7432  
                                l1866 740C                                  l1858 73CC  
                                l1938 7794                                  l1946 7398  
                                l1970 74CA                                  l1962 74A8  
                                l1956 726E                                  l1796 799C  
                                l1788 7960                                  l1892 7496  
                                l1884 745A                                  l1876 743C  
                                l1868 741A                                  l1948 739C  
                                l1980 74EC                                  l1972 74CE  
                                l1964 74B0                                  l1958 727C  
                                l1798 79AE                                  l1886 7466  
                                l1878 7446                                  l1990 7544  
                                l1982 74FE                                  l1974 74D2  
                                l1966 74C4                                  l1888 7476  
                                l1896 75F4                                  l1992 7556  
                                l1984 7512                                  l1976 74D8  
                                l1968 74C8                                  l1898 7604  
                                l1994 7578                                  l1986 751A  
                                l1978 74EA                                  l1996 759A  
                                l1988 7532                                  l1998 75AE  
                                u1100 7B6C                                  u1101 7B68  
                                u1110 7B7C                                  u1111 7B78  
                                u1200 7CC8                                  u1120 7BBE  
                                u1121 7BBA                                  u1210 7CF0  
                                u1130 7BD4                                  u1211 7CEC  
                                u1131 7BD0                                  u1300 7E28  
                                u1220 7D0E                                  u1140 7BE6  
                                u1301 7E24                                  u1221 7D0A  
                                u1141 7BE2                                  u1310 7E5E  
                                u1230 7D2E                                  u1150 7BF6  
                                u1311 7E5A                                  u1231 7D2A  
                                u1151 7BF2                                  u1400 7F28  
                                u1320 7E6E                                  u1240 7D3C  
                                u1160 7C32                                  u1401 7F24  
                                u1321 7E6A                                  u1241 7D38  
                                u1161 7C2E                                  u1410 7F42  
                                u1330 7E9A                                  u1250 7D4C  
                                u1170 7C40                                  u1090 7B5A  
                                u1411 7F3E                                  u1331 7E96  
                                u1251 7D48                                  u1171 7C3C  
                                u1091 7B56                                  u1420 7F7C  
                                u1340 7EAA                                  u1260 7D7E  
                                u1180 7CAE                                  u1500 77E2  
                                u1421 7F78                                  u1341 7EA6  
                                u1261 7D7A                                  u1181 7CAA  
                                u1501 77DE                                  u1430 7F8E  
                                u1350 7EC6                                  u1270 7D8C  
                                u1190 7CC6                                  u1510 7826  
                                _LATB 000F8A                                  u1431 7F8A  
                                u1351 7EC2                                  u1271 7D88  
                                u1191 7CC0                                  u1511 7822  
                                u1440 7F9E                                  u1360 7ED6  
                                u1280 7DAA                                  u1600 79C4  
                                u1520 7838                                  u1441 7F9A  
                                u1361 7ED2                                  u1281 7DA6  
                                u1601 79C0                                  u1521 7834  
                                u1450 7FBE                                  u1370 7EE8  
                                u1290 7DE2                                  u1610 79E2  
                                u1530 7848                                  u1451 7FBA  
                                u1371 7EE4                                  u1291 7DDE  
                                u1611 79DE                                  u1531 7844  
                                u1460 7FD0                                  u1380 7EFE  
                                u1700 7B2C                                  u1620 7A02  
                                u1540 7888                                  u1461 7FCC  
                                u1381 7EFA                                  u1701 7B28  
                                u1621 79FE                                  u1541 7884  
                                u1470 7FEC                                  u1390 7F14  
                                u1630 7A14                                  u1550 78C8  
                                u1710 73B8                                  u1471 7FE8  
                                u1391 7F10                                  u1631 7A10  
                                u1551 78C4                                  u1711 73B4  
                                u1640 7A42                                  u1560 793E  
                                u1480 77C0                                  u1720 73EC  
                                u1800 766E                                  u1641 7A3E  
                                u1561 793A                                  u1481 77BC  
                                u1801 766A                                  u1650 7A58  
                                u1570 7960                                  u1490 77D2  
                                u1730 741A                                  u1810 76C4  
                                u1651 7A54                                  u1571 795C  
                                u1491 77CE                                  u1731 7416  
                                u1811 76C0                                  u1660 7A6C  
                                u1580 798A                                  u1740 742E  
                                u1820 770E                                  u1900 7512  
                                u1661 7A68                                  u1581 7986  
                                u1741 742A                                  u1725 73E2  
                                u1821 770A                                  u1901 750E  
                                u1670 7A86                                  u1590 79AE  
                                u1750 7456                                  u1830 772C  
                                u1910 7544                                  u1671 7A82  
                                u1591 79AA                                  u1751 7452  
                                u1831 7728                                  u1911 7540  
                                u1680 7ACE                                  u1760 7476  
                                u1840 773C                                  u1920 7556  
                                u1681 7ACA                                  u1761 7472  
                                u1841 7738                                  u1921 7552  
                                u1690 7AFE                                  u1770 7486  
                                u1850 774A                                  u1930 7578  
                                u1691 7AFA                                  u1771 7482  
                                u1851 7746                                  u1931 7574  
                                u1860 7784                                  u1780 7604  
                                u1940 759A                                  u1861 7780  
                                u1781 7600                                  u1941 7596  
                                u1870 7792                                  u1790 7612  
                                u1950 75AE                                  u1871 778E  
                                u1791 760E                                  u1951 75AA  
                                u1960 75D0                                  u1880 74EA  
                                u1961 75CC                                  u1881 74E6  
                                u1970 75EA                                  u1890 74FE  
                                u1971 75E6                                  u1891 74FA  
                                u1987 7524                                  _RCEN 007E2B  
                                _RCIF 007CF5                                  _RSEN 007E29  
                                _TXIF 007CF4                                  _main 74A8  
                    __end_of_I2C_Nack 71BA                      __end_of_I2C_Init 71D0  
                    __end_of_I2C_Read 72C0                                  start 0000  
                     ___fldiv@new_exp 0020                          ___param_bank 000000  
                       ___fltol@sign1 0040                       __end_of___fladd 8000  
                               ?_main 0001                                 _ACKEN 007E2C  
                               _ACKDT 007E2D                       __end_of___fldiv 7B40  
                     __end_of___fltol 74A8                                 _RCREG 000FAE  
                               _RCSTA 000FAB                                 _SPBRG 000FAF  
                               _TRISB 000F93                                 _SSPIE 007CEB  
                               _SSPIF 007CF3                                 _TXREG 000FAD  
                               _TXSTA 000FAC                     __end_of_I2C_Ready 7180  
                   __end_of_I2C_Start 724E                     __end_of_I2C_Write 71F2  
                               status 000FD8                           ?_USART_Init 0042  
                     __initialization 7168                          __end_of_main 75F2  
                           ??_I2C_Ack 0001                                ??_main 0046  
                     ??_RTC_Read_Hour 0005                         __activetblptr 000000  
                              _ADCON1 000FC1                                _OSCCON 000FD3  
                              _SSPADD 000FC8                                _TRISC6 007CA6  
                              _TRISC7 007CA7                                _SSPBUF 000FC9  
                    __end_of___xxtofl 77A6                     RTC_Read_Hour@hour 0006  
                           ??___fladd 0030                             ??___fldiv 0017  
                           ??___fltol 003C                                isa$std 000001  
                  _I2C_Repeated_Start 71F2                             ?_I2C_Nack 0001  
                           ?_I2C_Init 0001                             ?_I2C_Read 0001  
                 ?_I2C_Repeated_Start 0001                          ___xxtofl@arg 000B  
                        ___xxtofl@exp 000A                          ___xxtofl@val 0001  
                          __accesstop 0060               __end_of__initialization 7168  
                       ___rparam_used 000001                            ___fltol@f1 0038  
                ??_I2C_Repeated_Start 0002                        __pcstackCOMRAM 0001  
                          ??_I2C_Nack 0001                            ??_I2C_Init 0001  
                          ??_I2C_Read 0001                          I2C_Read@flag 0001  
                      I2C_Read@buffer 0002                               _I2C_Ack 7192  
                             _ACKSTAT 007E2E                             ?___xxtofl 0001  
                             _SSPCON1 000FC6                               _SSPCON2 000FC5  
                             _SSPSTAT 000FC7                             _I2C_Ready 716E  
                           _I2C_Start 7220                             _I2C_Write 71D0  
                        ??_USART_Init 0046                               __Hparam 0000  
                             __Lparam 0000                               ___fladd 7B40  
                             ___fldiv 77A6                               ___fltol 73A2  
                             __pcinit 7168                               __ramtop 0800  
                             __ptext0 74A8                               __ptext1 7180  
                             __ptext2 72C0                               __ptext3 75F2  
                             __ptext4 73A2                               __ptext5 77A6  
                             __ptext6 7B40                               __ptext7 724E  
                             __ptext8 7220                               __ptext9 71F2  
                          ??___xxtofl 0005                    __end_of_USART_Init 73A2  
                end_of_initialization 7168                            ?_I2C_Ready 0001  
                          ?_I2C_Start 0001                            ?_I2C_Write 0001  
                           _PORTAbits 000F80                           ___fladd@grs 0037  
               __end_of_RTC_Read_Hour 7286                         ___xxtofl@sign 0009  
                           _TRISAbits 000F92                           ___fldiv@grs 0022  
                         ___fldiv@rem 001B                   USART_Init@baud_rate 0042  
                 start_initialization 7168  I2C_Repeated_Start@slave_read_address 0002  
                         ??_I2C_Ready 0001                           ??_I2C_Start 0002  
                         ??_I2C_Write 0001                     _USART_ReceiveChar 7180  
                  ?_USART_ReceiveChar 0001                              ?_I2C_Ack 0001  
                 ??_USART_ReceiveChar 0001                             ___fladd@a 002C  
                           ___fladd@b 0028                             ___fldiv@a 0013  
                           ___fldiv@b 000F             __end_of_USART_ReceiveChar 7192  
                            ?___fladd 0028                              ?___fldiv 000F  
                            ?___fltol 0038                              _I2C_Nack 71A6  
                            _I2C_Init 71BA                              _I2C_Read 7286  
                            _LATBbits 000F8A          I2C_Start@slave_write_address 0002  
                            __Hrparam 0000                              __Lrparam 0000  
                       I2C_Write@data 0001                              ___xxtofl 75F2  
                            __ptext10 71D0                              __ptext11 7286  
                            __ptext12 716E                              __ptext13 71A6  
                            __ptext14 7192                              __ptext15 71BA  
     RTC_Read_Hour@read_clock_address 0008                              isa$xinst 000000  
          __end_of_I2C_Repeated_Start 7220                         _RTC_Read_Hour 724E  
                         _SSPCON2bits 000FC5                         ___fladd@signs 0034  
                        ___fladd@aexp 0035                          ___fladd@bexp 0036  
                          _USART_Init 72C0  
